Microsoft (R) COFF/PE Dumper Version 12.00.40629.0
Copyright (C) Microsoft Corporation.  All rights reserved.


Dump of file nnotes.dll

File Type: DLL

  Section contains the following exports for nnotes.dll

    00000000 characteristics
    59929AD2 time date stamp Tue Aug 15 02:55:14 2017
        0.00 version
          11 ordinal base
       14024 number of functions
       14024 number of names

    ordinal hint RVA      name

         44    0 00585E80 ??0?$AutoHeap@V?$asn_sequenceof@VGeneralName@JONAH@@@JONAH@@@JONAH@@QAE@PAPAV?$asn_sequenceof@VGeneralName@JONAH@@@1@@Z
         45    1 00585D60 ??0?$AutoHeap@V?$asn_sequenceof@Vasn_oid@JONAH@@@JONAH@@@JONAH@@QAE@PAPAV?$asn_sequenceof@Vasn_oid@JONAH@@@1@@Z
         46    2 00585C40 ??0?$AutoHeap@VCMBlob@JONAH@@@JONAH@@QAE@PAPAVCMBlob@1@@Z
         93    3 005A7D20 ??0?$AutoHeap@VCertificateRequest@JONAH@@@JONAH@@QAE@PAPAVCertificateRequest@1@@Z
        355    4 00585FA0 ??0?$AutoHeap@VCertificationRequest@JONAH@@@JONAH@@QAE@PAPAVCertificationRequest@1@@Z
        356    5 005B4960 ??0?$AutoHeap@VContentInfo@JONAH@@@JONAH@@QAE@PAPAVContentInfo@1@@Z
        574    6 00585CA0 ??0?$AutoHeap@VJonahTime@JONAH@@@JONAH@@QAE@PAPAVJonahTime@1@@Z
        575    7 005B4550 ??0?$AutoHeap@VPFX@JONAH@@@JONAH@@QAE@PAPAVPFX@1@@Z
        576    8 005B4610 ??0?$AutoHeap@VPrivateKeyInfo@JONAH@@@JONAH@@QAE@PAPAVPrivateKeyInfo@1@@Z
        577    9 006670B0 ??0?$AutoHeap@VQueryCache@@@JONAH@@QAE@PAPAVQueryCache@@@Z
        578    A 00667110 ??0?$AutoHeap@VVertex@@@JONAH@@QAE@PAPAVVertex@@@Z
        579    B 00585DC0 ??0?$AutoHeap@VXBasicConstraints@JONAH@@@JONAH@@QAE@PAPAVXBasicConstraints@1@@Z
        580    C 00585D00 ??0?$AutoHeap@VXKeyUsage@JONAH@@@JONAH@@QAE@PAPAVXKeyUsage@1@@Z
        581    D 00585E20 ??0?$AutoHeap@VXNameConstraints@JONAH@@@JONAH@@QAE@PAPAVXNameConstraints@1@@Z
        582    E 00585EE0 ??0?$AutoHeap@VXNotesAliasNames@JONAH@@@JONAH@@QAE@PAPAVXNotesAliasNames@1@@Z
        583    F 00585F40 ??0?$AutoHeap@Vasn_oid@JONAH@@@JONAH@@QAE@PAPAVasn_oid@1@@Z
        584   10 005B45B0 ??0?$AutoHeap@Vx509_certificate@JONAH@@@JONAH@@QAE@PAPAVx509_certificate@1@@Z
        585   11 0058F8A0 ??0?$asn_explicit@V?$asn_sequenceof@VCertificateRequest@JONAH@@@JONAH@@$01$0A@@JONAH@@QAE@W4security_t@1@@Z
        646   12 0058F9E0 ??0?$asn_explicit@V?$asn_sequenceof@VRevocationRequest@JONAH@@@JONAH@@$01$00@JONAH@@QAE@W4security_t@1@@Z
        647   13 0058F260 ??0?$asn_explicit@V?$asn_setof@VAliasWithTag@JONAH@@@JONAH@@$01$00@JONAH@@QAE@W4security_t@1@@Z
        648   14 0058D3D0 ??0?$asn_explicit@VAlgorithmIdentifier@JONAH@@$01$00@JONAH@@QAE@W4security_t@1@@Z
        649   15 0058BB20 ??0?$asn_explicit@VAlgorithmIdentifier@JONAH@@$01$0A@@JONAH@@QAE@W4security_t@1@@Z
        651   16 00594BB0 ??0?$asn_explicit@VCAKeyUpdAnnContent@JONAH@@$01$0P@@JONAH@@QAE@W4security_t@1@@Z
        660   17 0059E050 ??0?$asn_explicit@VCALdapPostInfo@JONAH@@$01$0A@@JONAH@@QAE@W4security_t@1@@Z
        663   18 0058C710 ??0?$asn_explicit@VCRLAnnContent@JONAH@@$01$00@JONAH@@QAE@W4security_t@1@@Z
        666   19 0058E9B0 ??0?$asn_explicit@VCRLAnnContent@JONAH@@$01$0BC@@JONAH@@QAE@W4security_t@1@@Z
        667   1A 0059D130 ??0?$asn_explicit@VCertId@JONAH@@$01$00@JONAH@@QAE@W4security_t@1@@Z
        668   1B 0058C5A0 ??0?$asn_explicit@VCertIds@JONAH@@$01$0A@@JONAH@@QAE@W4security_t@1@@Z
        669   1C 005943D0 ??0?$asn_explicit@VCertRepMessage@JONAH@@$01$00@JONAH@@QAE@W4security_t@1@@Z
        670   1D 00594520 ??0?$asn_explicit@VCertRepMessage@JONAH@@$01$02@JONAH@@QAE@W4security_t@1@@Z
        671   1E 005947C0 ??0?$asn_explicit@VCertRepMessage@JONAH@@$01$07@JONAH@@QAE@W4security_t@1@@Z
        672   1F 00594A60 ??0?$asn_explicit@VCertRepMessage@JONAH@@$01$0O@@JONAH@@QAE@W4security_t@1@@Z
        673   20 0058DFA0 ??0?$asn_explicit@VCertReqMessages@JONAH@@$01$01@JONAH@@QAE@W4security_t@1@@Z
        674   21 0058E3F0 ??0?$asn_explicit@VCertReqMessages@JONAH@@$01$06@JONAH@@QAE@W4security_t@1@@Z
        675   22 0058E560 ??0?$asn_explicit@VCertReqMessages@JONAH@@$01$08@JONAH@@QAE@W4security_t@1@@Z
        676   23 0058DE30 ??0?$asn_explicit@VCertReqMessages@JONAH@@$01$0A@@JONAH@@QAE@W4security_t@1@@Z
        677   24 0058E840 ??0?$asn_explicit@VCertReqMessages@JONAH@@$01$0N@@JONAH@@QAE@W4security_t@1@@Z
        678   25 0058C2C0 ??0?$asn_explicit@VCertificates@JONAH@@$01$00@JONAH@@QAE@W4security_t@1@@Z
        679   26 00594670 ??0?$asn_explicit@VCertificationRequest@JONAH@@$01$03@JONAH@@QAE@W4security_t@1@@Z
        680   27 0058C430 ??0?$asn_explicit@VCertifiedKeyPairs@JONAH@@$01$01@JONAH@@QAE@W4security_t@1@@Z
        681   28 004A98B0 ??0?$asn_explicit@VContent@JONAH@@$01$0A@@JONAH@@QAE@W4security_t@1@@Z
        682   29 004A6560 ??0?$asn_explicit@VDistributionPointName@JONAH@@$01$0A@@JONAH@@QAE@W4security_t@1@@Z
        834   2A 0059DDE0 ??0?$asn_explicit@VEncryptedKey@JONAH@@$01$0A@@JONAH@@QAE@W4security_t@1@@Z
        835   2B 00593A70 ??0?$asn_explicit@VEncryptedValue@JONAH@@$01$00@JONAH@@QAE@W4security_t@1@@Z
        836   2C 00593B60 ??0?$asn_explicit@VEncryptedValue@JONAH@@$01$0A@@JONAH@@QAE@W4security_t@1@@Z
        897   2D 00593F40 ??0?$asn_explicit@VEnvelopedData@JONAH@@$01$0A@@JONAH@@QAE@W4security_t@1@@Z
        898   2E 0058F020 ??0?$asn_explicit@VErrorMsgContent@JONAH@@$01$0BH@@JONAH@@QAE@W4security_t@1@@Z
        899   2F 0059DED0 ??0?$asn_explicit@VGeneralName@JONAH@@$01$0A@@JONAH@@QAE@W4security_t@1@@Z
        922   30 0058DCC0 ??0?$asn_explicit@VInfoTypesAndValues@JONAH@@$01$07@JONAH@@QAE@W4security_t@1@@Z
        986   31 0058ED40 ??0?$asn_explicit@VInfoTypesAndValues@JONAH@@$01$0BF@@JONAH@@QAE@W4security_t@1@@Z
       1033   32 0058EEB0 ??0?$asn_explicit@VInfoTypesAndValues@JONAH@@$01$0BG@@JONAH@@QAE@W4security_t@1@@Z
       1034   33 0058AE70 ??0?$asn_explicit@VJonahTime@JONAH@@$01$00@JONAH@@QAE@W4security_t@1@@Z
       1084   34 0058AD80 ??0?$asn_explicit@VJonahTime@JONAH@@$01$0A@@JONAH@@QAE@W4security_t@1@@Z
       1085   35 0059E3C0 ??0?$asn_explicit@VKeyRecRepContent@JONAH@@$01$09@JONAH@@QAE@W4security_t@1@@Z
       1086   36 0058F370 ??0?$asn_explicit@VNotesLicenseExt@JONAH@@$01$00@JONAH@@QAE@W4security_t@1@@Z
       1087   37 0058DB50 ??0?$asn_explicit@VPKIFreeText@JONAH@@$01$06@JONAH@@QAE@W4security_t@1@@Z
       1104   38 0058C170 ??0?$asn_explicit@VPKIPublicationInfo@JONAH@@$01$00@JONAH@@QAE@W4security_t@1@@Z
       1105   39 0058E110 ??0?$asn_explicit@VPOPODecKeyChallContent@JONAH@@$01$04@JONAH@@QAE@W4security_t@1@@Z
       1106   3A 0058E280 ??0?$asn_explicit@VPOPODecKeyRespContent@JONAH@@$01$05@JONAH@@QAE@W4security_t@1@@Z
       1107   3B 005940F0 ??0?$asn_explicit@VPOPOPrivKey@JONAH@@$01$01@JONAH@@QAE@W4security_t@1@@Z
       1108   3C 005941E0 ??0?$asn_explicit@VPOPOPrivKey@JONAH@@$01$02@JONAH@@QAE@W4security_t@1@@Z
       1109   3D 0059E230 ??0?$asn_explicit@VRACCertPkiConfirmWarp@JONAH@@$01$02@JONAH@@QAE@W4security_t@1@@Z
       1110   3E 0059E140 ??0?$asn_explicit@VRACCertWarp@JONAH@@$01$00@JONAH@@QAE@W4security_t@1@@Z
       1111   3F 0059E510 ??0?$asn_explicit@VRevAnnContent@JONAH@@$01$0BB@@JONAH@@QAE@W4security_t@1@@Z
       1266   40 00594910 ??0?$asn_explicit@VRevRepContent@JONAH@@$01$0M@@JONAH@@QAE@W4security_t@1@@Z
       1270   41 0058E6D0 ??0?$asn_explicit@VRevReqContent@JONAH@@$01$0L@@JONAH@@QAE@W4security_t@1@@Z
       1309   42 004A72E0 ??0?$asn_explicit@VSignedContent@JONAH@@$01$0A@@JONAH@@QAE@W4security_t@1@@Z
       1310   43 0058CCB0 ??0?$asn_explicit@VSubsequentMessage@JONAH@@$01$00@JONAH@@QAE@W4security_t@1@@Z
       1413   44 0058F7B0 ??0?$asn_explicit@Vasn_UTF8String@JONAH@@$01$02@JONAH@@QAE@W4security_t@1@@Z
       1414   45 0058F460 ??0?$asn_explicit@Vasn_UTF8String@JONAH@@$01$0A@@JONAH@@QAE@W4security_t@1@@Z
       1416   46 0058D100 ??0?$asn_explicit@Vasn_any@JONAH@@$01$01@JONAH@@QAE@W4security_t@1@@Z
       1417   47 0058D1F0 ??0?$asn_explicit@Vasn_any@JONAH@@$01$03@JONAH@@QAE@W4security_t@1@@Z
       1418   48 004A1F60 ??0?$asn_explicit@Vasn_any@JONAH@@$01$0A@@JONAH@@QAE@W4security_t@1@@Z
       1419   49 0058EC50 ??0?$asn_explicit@Vasn_any@JONAH@@$01$0BE@@JONAH@@QAE@W4security_t@1@@Z
       1420   4A 0058CDA0 ??0?$asn_explicit@Vasn_bitstring@JONAH@@$01$01@JONAH@@QAE@W4security_t@1@@Z
       1421   4B 0058CB60 ??0?$asn_explicit@Vasn_bitstring@JONAH@@$01$0A@@JONAH@@QAE@W4security_t@1@@Z
       1422   4C 0058F680 ??0?$asn_explicit@Vasn_boolean@JONAH@@$01$00@JONAH@@QAE@W4security_t@1@@Z
       1501   4D 0058CA30 ??0?$asn_explicit@Vasn_boolean@JONAH@@$01$01@JONAH@@QAE@W4security_t@1@@Z
       1502   4E 0058F550 ??0?$asn_explicit@Vasn_boolean@JONAH@@$01$0A@@JONAH@@QAE@W4security_t@1@@Z
       1531   4F 0049ED90 ??0?$asn_explicit@Vasn_directoryString@JONAH@@$01$00@JONAH@@QAE@W4security_t@1@@Z
       1660   50 0049ECA0 ??0?$asn_explicit@Vasn_directoryString@JONAH@@$01$0A@@JONAH@@QAE@W4security_t@1@@Z
       1661   51 0058D2E0 ??0?$asn_explicit@Vasn_generalizedtime@JONAH@@$01$0A@@JONAH@@QAE@W4security_t@1@@Z
       1777   52 0058F170 ??0?$asn_explicit@Vasn_ia5String@JONAH@@$01$0A@@JONAH@@QAE@W4security_t@1@@Z
       1801   53 0049E700 ??0?$asn_explicit@Vasn_integer@JONAH@@$01$0A@@JONAH@@QAE@W4security_t@1@@Z
       1803   54 0058EB20 ??0?$asn_explicit@Vasn_null@JONAH@@$01$0BD@@JONAH@@QAE@W4security_t@1@@Z
       1805   55 0058C8E0 ??0?$asn_explicit@Vasn_octetstring@JONAH@@$01$00@JONAH@@QAE@W4security_t@1@@Z
       3161   56 0058D4C0 ??0?$asn_explicit@Vasn_octetstring@JONAH@@$01$01@JONAH@@QAE@W4security_t@1@@Z
       3162   57 0058D610 ??0?$asn_explicit@Vasn_octetstring@JONAH@@$01$02@JONAH@@QAE@W4security_t@1@@Z
       3163   58 0058D760 ??0?$asn_explicit@Vasn_octetstring@JONAH@@$01$03@JONAH@@QAE@W4security_t@1@@Z
       3164   59 0058D8B0 ??0?$asn_explicit@Vasn_octetstring@JONAH@@$01$04@JONAH@@QAE@W4security_t@1@@Z
       3212   5A 0058DA00 ??0?$asn_explicit@Vasn_octetstring@JONAH@@$01$05@JONAH@@QAE@W4security_t@1@@Z
       3213   5B 004A16B0 ??0?$asn_explicit@Vasn_octetstring@JONAH@@$01$0A@@JONAH@@QAE@W4security_t@1@@Z
       3214   5C 0058B070 ??0?$asn_explicit@Vasn_x500name@JONAH@@$01$02@JONAH@@QAE@W4security_t@1@@Z
       3215   5D 0049F0A0 ??0?$asn_explicit@Vasn_x500name@JONAH@@$01$03@JONAH@@QAE@W4security_t@1@@Z
       3216   5E 0058B1C0 ??0?$asn_explicit@Vasn_x500name@JONAH@@$01$04@JONAH@@QAE@W4security_t@1@@Z
       3217   5F 0049EB30 ??0?$asn_explicit@Vx509_Extensions@JONAH@@$01$02@JONAH@@QAE@W4security_t@1@@Z
       3218   60 004A1540 ??0?$asn_explicit@Vx509_Extensions@JONAH@@$01$0A@@JONAH@@QAE@W4security_t@1@@Z
       3219   61 00593920 ??0?$asn_explicit@Vx509_certificate@JONAH@@$01$0A@@JONAH@@QAE@W4security_t@1@@Z
       3220   62 00594D40 ??0?$asn_explicit@Vx509_certificate@JONAH@@$01$0BA@@JONAH@@QAE@W4security_t@1@@Z
       3221   63 0049F740 ??0?$asn_implicit@V?$asn_sequenceof@VGeneralName@JONAH@@@JONAH@@$01$00@JONAH@@QAE@W4security_t@1@@Z
       3222   64 004A0C00 ??0?$asn_implicit@V?$asn_sequenceof@VGeneralName@JONAH@@@JONAH@@$01$01@JONAH@@QAE@W4security_t@1@@Z
       3223   65 004A0810 ??0?$asn_implicit@V?$asn_sequenceof@VGeneralName@JONAH@@@JONAH@@$01$0A@@JONAH@@QAE@W4security_t@1@@Z
       3224   66 004A06C0 ??0?$asn_implicit@V?$asn_sequenceof@VGeneralSubtree@JONAH@@@JONAH@@$01$00@JONAH@@QAE@W4security_t@1@@Z
       3225   67 004A0570 ??0?$asn_implicit@V?$asn_sequenceof@VGeneralSubtree@JONAH@@@JONAH@@$01$0A@@JONAH@@QAE@W4security_t@1@@Z
       3226   68 0058BD20 ??0?$asn_implicit@VAlgorithmIdentifier@JONAH@@$01$00@JONAH@@QAE@W4security_t@1@@Z
       3257   69 0058AF60 ??0?$asn_implicit@VAlgorithmIdentifier@JONAH@@$01$01@JONAH@@QAE@W4security_t@1@@Z
       3575   6A 0058BE30 ??0?$asn_implicit@VAlgorithmIdentifier@JONAH@@$01$02@JONAH@@QAE@W4security_t@1@@Z
       3579   6B 0058BC10 ??0?$asn_implicit@VAlgorithmIdentifier@JONAH@@$01$0A@@JONAH@@QAE@W4security_t@1@@Z
       3580   6C 004A19C0 ??0?$asn_implicit@VAttributes@JONAH@@$01$00@JONAH@@QAE@W4security_t@1@@Z
       3581   6D 004A1800 ??0?$asn_implicit@VAttributes@JONAH@@$01$0A@@JONAH@@QAE@W4security_t@1@@Z
       3583   6E 004A1D40 ??0?$asn_implicit@VCertRevocationLists@JONAH@@$01$00@JONAH@@QAE@W4security_t@1@@Z
       3651   6F 004A6450 ??0?$asn_implicit@VEDIPartyName@JONAH@@$01$04@JONAH@@QAE@W4security_t@1@@Z
       3654   70 004A1B80 ??0?$asn_implicit@VExtendedCertsAndCertificates@JONAH@@$01$0A@@JONAH@@QAE@W4security_t@1@@Z
       4250   71 005937B0 ??0?$asn_implicit@VOptionalValidity@JONAH@@$01$03@JONAH@@QAE@W4security_t@1@@Z
       4425   72 005A5C00 ??0?$asn_implicit@VPOPOSigningKey@JONAH@@$01$00@JONAH@@QAE@W4security_t@1@@Z
       4426   73 005A0710 ??0?$asn_implicit@VPOPOSigningKeyInput@JONAH@@$01$0A@@JONAH@@QAE@W4security_t@1@@Z
       4427   74 004A0AF0 ??0?$asn_implicit@VReasonFlags@JONAH@@$01$00@JONAH@@QAE@W4security_t@1@@Z
       4524   75 004A12E0 ??0?$asn_implicit@VReasonFlags@JONAH@@$01$02@JONAH@@QAE@W4security_t@1@@Z
       4816   76 0058B2B0 ??0?$asn_implicit@VSubjectPublicKeyInfo@JONAH@@$01$05@JONAH@@QAE@W4security_t@1@@Z
       4817   77 004A0960 ??0?$asn_implicit@Vasn_RDN@JONAH@@$01$00@JONAH@@QAE@W4security_t@1@@Z
       4818   78 0049E850 ??0?$asn_implicit@Vasn_bitstring@JONAH@@$01$00@JONAH@@QAE@W4security_t@1@@Z
       4918   79 0049E9C0 ??0?$asn_implicit@Vasn_bitstring@JONAH@@$01$01@JONAH@@QAE@W4security_t@1@@Z
       4919   7A 0058B3C0 ??0?$asn_implicit@Vasn_bitstring@JONAH@@$01$06@JONAH@@QAE@W4security_t@1@@Z
       4920   7B 0058B530 ??0?$asn_implicit@Vasn_bitstring@JONAH@@$01$07@JONAH@@QAE@W4security_t@1@@Z
       4921   7C 004A1040 ??0?$asn_implicit@Vasn_boolean@JONAH@@$01$00@JONAH@@QAE@W4security_t@1@@Z
       4922   7D 004A1190 ??0?$asn_implicit@Vasn_boolean@JONAH@@$01$01@JONAH@@QAE@W4security_t@1@@Z
       4923   7E 004A13F0 ??0?$asn_implicit@Vasn_boolean@JONAH@@$01$03@JONAH@@QAE@W4security_t@1@@Z
       4924   7F 0049FB10 ??0?$asn_implicit@Vasn_generalizedtime@JONAH@@$01$00@JONAH@@QAE@W4security_t@1@@Z
       4925   80 0049FA00 ??0?$asn_implicit@Vasn_generalizedtime@JONAH@@$01$0A@@JONAH@@QAE@W4security_t@1@@Z
       4926   81 0049EE80 ??0?$asn_implicit@Vasn_ia5String@JONAH@@$01$00@JONAH@@QAE@W4security_t@1@@Z
       4927   82 0049EF90 ??0?$asn_implicit@Vasn_ia5String@JONAH@@$01$01@JONAH@@QAE@W4security_t@1@@Z
       4928   83 0049F1F0 ??0?$asn_implicit@Vasn_ia5String@JONAH@@$01$05@JONAH@@QAE@W4security_t@1@@Z
       4929   84 004A0400 ??0?$asn_implicit@Vasn_integer@JONAH@@$01$00@JONAH@@QAE@W4security_t@1@@Z
       4930   85 0049F890 ??0?$asn_implicit@Vasn_integer@JONAH@@$01$01@JONAH@@QAE@W4security_t@1@@Z
       4931   86 004A0290 ??0?$asn_implicit@Vasn_integer@JONAH@@$01$0A@@JONAH@@QAE@W4security_t@1@@Z
       4932   87 0058CEF0 ??0?$asn_implicit@Vasn_null@JONAH@@$01$0A@@JONAH@@QAE@W4security_t@1@@Z
       4933   88 0058BF40 ??0?$asn_implicit@Vasn_octetstring@JONAH@@$01$03@JONAH@@QAE@W4security_t@1@@Z
       4934   89 0049F300 ??0?$asn_implicit@Vasn_octetstring@JONAH@@$01$06@JONAH@@QAE@W4security_t@1@@Z
       4935   8A 0049F5D0 ??0?$asn_implicit@Vasn_octetstring@JONAH@@$01$0A@@JONAH@@QAE@W4security_t@1@@Z
       4936   8B 0049F470 ??0?$asn_implicit@Vasn_oid@JONAH@@$01$07@JONAH@@QAE@W4security_t@1@@Z
       4937   8C 0058B6A0 ??0?$asn_implicit@Vx509_Extensions@JONAH@@$01$08@JONAH@@QAE@W4security_t@1@@Z
       4938   8D 005847E0 ??0?$asn_sequenceof@VAttributeTypeAndValue@JONAH@@@JONAH@@QAE@IW4security_t@1@@Z
       4939   8E 00584750 ??0?$asn_sequenceof@VAttributeTypeAndValue@JONAH@@@JONAH@@QAE@W4security_t@1@@Z
       4940   8F 00583680 ??0?$asn_sequenceof@VCertId@JONAH@@@JONAH@@QAE@IW4security_t@1@@Z
       4941   90 005835F0 ??0?$asn_sequenceof@VCertId@JONAH@@@JONAH@@QAE@W4security_t@1@@Z
       4942   91 00584900 ??0?$asn_sequenceof@VCertReqMsg@JONAH@@@JONAH@@QAE@IW4security_t@1@@Z
       4943   92 00584870 ??0?$asn_sequenceof@VCertReqMsg@JONAH@@@JONAH@@QAE@W4security_t@1@@Z
       4944   93 00583D40 ??0?$asn_sequenceof@VCertResponse@JONAH@@@JONAH@@QAE@IW4security_t@1@@Z
       4945   94 00583CB0 ??0?$asn_sequenceof@VCertResponse@JONAH@@@JONAH@@QAE@W4security_t@1@@Z
       4946   95 00584040 ??0?$asn_sequenceof@VCertificateList@JONAH@@@JONAH@@QAE@IW4security_t@1@@Z
       4947   96 00583FB0 ??0?$asn_sequenceof@VCertificateList@JONAH@@@JONAH@@QAE@W4security_t@1@@Z
       4948   97 005858D0 ??0?$asn_sequenceof@VCertificateRequest@JONAH@@@JONAH@@QAE@IW4security_t@1@@Z
       4949   98 00585840 ??0?$asn_sequenceof@VCertificateRequest@JONAH@@@JONAH@@QAE@W4security_t@1@@Z
       4950   99 00583BC0 ??0?$asn_sequenceof@VCertifiedKeyPair@JONAH@@@JONAH@@QAE@IW4security_t@1@@Z
       4951   9A 00583B30 ??0?$asn_sequenceof@VCertifiedKeyPair@JONAH@@@JONAH@@QAE@W4security_t@1@@Z
       4952   9B 00583830 ??0?$asn_sequenceof@VChallenge@JONAH@@@JONAH@@QAE@IW4security_t@1@@Z
       4953   9C 005837A0 ??0?$asn_sequenceof@VChallenge@JONAH@@@JONAH@@QAE@W4security_t@1@@Z
       4954   9D 00498680 ??0?$asn_sequenceof@VContentInfo@JONAH@@@JONAH@@QAE@IW4security_t@1@@Z
       4955   9E 004985F0 ??0?$asn_sequenceof@VContentInfo@JONAH@@@JONAH@@QAE@W4security_t@1@@Z
       4956   9F 00494E30 ??0?$asn_sequenceof@VGeneralName@JONAH@@@JONAH@@QAE@IW4security_t@1@@Z
       4957   A0 00494DA0 ??0?$asn_sequenceof@VGeneralName@JONAH@@@JONAH@@QAE@W4security_t@1@@Z
       4958   A1 00496050 ??0?$asn_sequenceof@VGeneralSubtree@JONAH@@@JONAH@@QAE@IW4security_t@1@@Z
       4959   A2 00495FC0 ??0?$asn_sequenceof@VGeneralSubtree@JONAH@@@JONAH@@QAE@W4security_t@1@@Z
       4960   A3 00584B00 ??0?$asn_sequenceof@VInfoTypeAndValue@JONAH@@@JONAH@@QAE@IW4security_t@1@@Z
       4961   A4 00584A70 ??0?$asn_sequenceof@VInfoTypeAndValue@JONAH@@@JONAH@@QAE@W4security_t@1@@Z
       4962   A5 00583500 ??0?$asn_sequenceof@VPKIStatusInfo@JONAH@@@JONAH@@QAE@IW4security_t@1@@Z
       4963   A6 00583470 ??0?$asn_sequenceof@VPKIStatusInfo@JONAH@@@JONAH@@QAE@W4security_t@1@@Z
       4964   A7 00495920 ??0?$asn_sequenceof@VPolicyInformation@JONAH@@@JONAH@@QAE@IW4security_t@1@@Z
       4965   A8 00495890 ??0?$asn_sequenceof@VPolicyInformation@JONAH@@@JONAH@@QAE@W4security_t@1@@Z
       4966   A9 00495D90 ??0?$asn_sequenceof@VPolicyMapping@JONAH@@@JONAH@@QAE@IW4security_t@1@@Z
       4967   AA 00495D00 ??0?$asn_sequenceof@VPolicyMapping@JONAH@@@JONAH@@QAE@W4security_t@1@@Z
       4968   AB 004957A0 ??0?$asn_sequenceof@VPolicyQualifierInfo@JONAH@@@JONAH@@QAE@IW4security_t@1@@Z
       4969   AC 00495710 ??0?$asn_sequenceof@VPolicyQualifierInfo@JONAH@@@JONAH@@QAE@W4security_t@1@@Z
       4974   AD 00498500 ??0?$asn_sequenceof@VPrivateKeyInfo@JONAH@@@JONAH@@QAE@IW4security_t@1@@Z
       4975   AE 00498470 ??0?$asn_sequenceof@VPrivateKeyInfo@JONAH@@@JONAH@@QAE@W4security_t@1@@Z
       4976   AF 00497BB0 ??0?$asn_sequenceof@VRecipientInfo@JONAH@@@JONAH@@QAE@IW4security_t@1@@Z
       4977   B0 00497B20 ??0?$asn_sequenceof@VRecipientInfo@JONAH@@@JONAH@@QAE@W4security_t@1@@Z
       4978   B1 00583EC0 ??0?$asn_sequenceof@VRevDetails@JONAH@@@JONAH@@QAE@IW4security_t@1@@Z
       4979   B2 00583E30 ??0?$asn_sequenceof@VRevDetails@JONAH@@@JONAH@@QAE@W4security_t@1@@Z
       4980   B3 00585A50 ??0?$asn_sequenceof@VRevocationRequest@JONAH@@@JONAH@@QAE@IW4security_t@1@@Z
       4986   B4 005859C0 ??0?$asn_sequenceof@VRevocationRequest@JONAH@@@JONAH@@QAE@W4security_t@1@@Z
       4987   B5 00496B00 ??0?$asn_sequenceof@VRevokedCertificate@JONAH@@@JONAH@@QAE@IW4security_t@1@@Z
       4988   B6 00496A70 ??0?$asn_sequenceof@VRevokedCertificate@JONAH@@@JONAH@@QAE@W4security_t@1@@Z
       4989   B7 00498800 ??0?$asn_sequenceof@VSafeBag@JONAH@@@JONAH@@QAE@IW4security_t@1@@Z
       4990   B8 00498770 ??0?$asn_sequenceof@VSafeBag@JONAH@@@JONAH@@QAE@W4security_t@1@@Z
       4991   B9 00583380 ??0?$asn_sequenceof@VSinglePubInfo@JONAH@@@JONAH@@QAE@IW4security_t@1@@Z
       4992   BA 005832F0 ??0?$asn_sequenceof@VSinglePubInfo@JONAH@@@JONAH@@QAE@W4security_t@1@@Z
       4993   BB 004942A0 ??0?$asn_sequenceof@Vasn_RDN@JONAH@@@JONAH@@QAE@IW4security_t@1@@Z
       4994   BC 00494210 ??0?$asn_sequenceof@Vasn_RDN@JONAH@@@JONAH@@QAE@W4security_t@1@@Z
       5000   BD 00583200 ??0?$asn_sequenceof@Vasn_UTF8String@JONAH@@@JONAH@@QAE@IW4security_t@1@@Z
       5001   BE 00583170 ??0?$asn_sequenceof@Vasn_UTF8String@JONAH@@@JONAH@@QAE@W4security_t@1@@Z
       5002   BF 00495680 ??0?$asn_sequenceof@Vasn_integer@JONAH@@@JONAH@@QAE@IW4security_t@1@@Z
       5003   C0 004955F0 ??0?$asn_sequenceof@Vasn_integer@JONAH@@@JONAH@@QAE@W4security_t@1@@Z
       5004   C1 004947A0 ??0?$asn_sequenceof@Vx509_Extension@JONAH@@@JONAH@@QAE@IW4security_t@1@@Z
       5005   C2 00494710 ??0?$asn_sequenceof@Vx509_Extension@JONAH@@@JONAH@@QAE@W4security_t@1@@Z
       5006   C3 00497380 ??0?$asn_sequenceof@Vx509_certificate@JONAH@@@JONAH@@QAE@IW4security_t@1@@Z
       5007   C4 004972F0 ??0?$asn_sequenceof@Vx509_certificate@JONAH@@@JONAH@@QAE@W4security_t@1@@Z
       5008   C5 004981B0 ??0?$asn_setof@VAlgorithmIdentifier@JONAH@@@JONAH@@QAE@IW4security_t@1@@Z
       5009   C6 00498150 ??0?$asn_setof@VAlgorithmIdentifier@JONAH@@@JONAH@@QAE@W4security_t@1@@Z
       5010   C7 005853F0 ??0?$asn_setof@VAliasWithTag@JONAH@@@JONAH@@QAE@IW4security_t@1@@Z
       5011   C8 00585390 ??0?$asn_setof@VAliasWithTag@JONAH@@@JONAH@@QAE@W4security_t@1@@Z
       5012   C9 004977C0 ??0?$asn_setof@VAttribute@JONAH@@@JONAH@@QAE@IW4security_t@1@@Z
       5013   CA 00497760 ??0?$asn_setof@VAttribute@JONAH@@@JONAH@@QAE@W4security_t@1@@Z
       5014   CB 00498380 ??0?$asn_setof@VCertificateList@JONAH@@@JONAH@@QAE@IW4security_t@1@@Z
       5015   CC 00498320 ??0?$asn_setof@VCertificateList@JONAH@@@JONAH@@QAE@W4security_t@1@@Z
       5018   CD 00496DB0 ??0?$asn_setof@VHostIdMappingValue@JONAH@@@JONAH@@QAE@IW4security_t@1@@Z
       5021   CE 00496D50 ??0?$asn_setof@VHostIdMappingValue@JONAH@@@JONAH@@QAE@W4security_t@1@@Z
       5022   CF 00497D90 ??0?$asn_setof@VSignerInfo@JONAH@@@JONAH@@QAE@IW4security_t@1@@Z
       5023   D0 00497D30 ??0?$asn_setof@VSignerInfo@JONAH@@@JONAH@@QAE@W4security_t@1@@Z
       5025   D1 00494140 ??0?$asn_setof@Vasn_AVA@JONAH@@@JONAH@@QAE@IW4security_t@1@@Z
       5026   D2 004940E0 ??0?$asn_setof@Vasn_AVA@JONAH@@@JONAH@@QAE@W4security_t@1@@Z
       5035   D3 00497280 ??0?$asn_setof@Vasn_octetstring@JONAH@@@JONAH@@QAE@IW4security_t@1@@Z
       5036   D4 00497220 ??0?$asn_setof@Vasn_octetstring@JONAH@@@JONAH@@QAE@W4security_t@1@@Z
       5051   D5 004982B0 ??0?$asn_setof@Vx509_certificate@JONAH@@@JONAH@@QAE@IW4security_t@1@@Z
       5077   D6 00498250 ??0?$asn_setof@Vx509_certificate@JONAH@@@JONAH@@QAE@W4security_t@1@@Z
       5078   D7 004A7FF0 ??0AccessDescription@JONAH@@QAE@W4security_t@1@@Z
       5079   D8 00580190 ??0Action@JONAH@@QAE@W4security_t@1@@Z
       5080   D9 0048EF40 ??0AlgorithmIdentifier@JONAH@@QAE@W4security_t@1@@Z
       5081   DA 00581280 ??0AliasWithTag@JONAH@@QAE@W4security_t@1@@Z
       5082   DB 00595580 ??0Asn1Random@JONAH@@QAE@W4security_t@1@@Z
       5083   DC 00490BA0 ??0Attribute@JONAH@@QAE@W4security_t@1@@Z
       5084   DD 00580EC0 ??0AttributeTypeAndValue@JONAH@@QAE@W4security_t@1@@Z
       5085   DE 00588740 ??0AttributeTypesAndValues@JONAH@@QAE@W4security_t@1@@Z
       5086   DF 0049C560 ??0Attributes@JONAH@@QAE@W4security_t@1@@Z
       5087   E0 0059EB70 ??0AuthInfo@JONAH@@QAE@W4security_t@1@@Z
       5088   E1 0049DBB0 ??0AuthenticatedSafes@JONAH@@QAE@W4security_t@1@@Z
       5089   E2 00591150 ??0CAKeyUpdAnnContent@JONAH@@QAE@W4security_t@1@@Z
       5090   E3 00596D50 ??0CALdapPostInfo@JONAH@@QAE@W4security_t@1@@Z
       5091   E4 008D0040 ??0CAcctMgmt@@QAE@PBD@Z
       5092   E5 008D0450 ??0CAcctMgmt@@QAE@PBDPAX1@Z
       5093   E6 007A6340 ??0CAssistant@@QAE@XZ
       5094   E7 009B9BC0 ??0CAssociatedItems@@QAE@GPAXPAD0PAG@Z
       5095   E8 008D5060 ??0CBTree@@QAE@P6GGPAX0PAH@Z@Z
       5101   E9 008D5000 ??0CBTree@@QAE@XZ
       5146   EA 00677460 ??0CBaseNewsArticle@@QAE@XZ
       5147   EB 006778E0 ??0CBaseNewsGroup@@QAE@XZ
       5148   EC 00107F90 ??0CBookMarkDb@@QAE@XZ
       5251   ED 0013D580 ??0CCDBlobLoad@@QAE@AAVCCDInputStream@@@Z
       5252   EE 0013D580 ??0CCDBlobSave@@QAE@AAVCCDOutputStream@@@Z
       5389   EF 008C5B50 ??0CCDEventLanguageTableLoader@@QAE@AAVCCDInputStream@@AAVCEventLanguageLoaderHelper@@@Z
       5398   F0 008C5B50 ??0CCDEventLanguageTableSaver@@QAE@AAVCCDOutputStream@@AAVCEventLanguageSaverHelper@@@Z
       5461   F1 00231510 ??0CCDHTMLCodeLoad@@QAE@AAVCCDInputStream@@@Z
       5463   F2 0013D5A0 ??0CCDHTMLCodeSave@@QAE@AAVCCDOutputStream@@@Z
       5469   F3 000D1230 ??0CCDTagAttributeLoader@@QAE@AAVCCDInputStream@@@Z
       5470   F4 000D1230 ??0CCDTagAttributeSaver@@QAE@AAVCCDOutputStream@@@Z
       5473   F5 00317920 ??0CCSMeeting@@QAE@XZ
       5474   F6 0031E480 ??0CCSValue@@QAE@XZ
       5475   F7 0031F5D0 ??0CCSValueArray@@QAE@XZ
       5476   F8 0012BF00 ??0CCache@@QAE@XZ
       5477   F9 008D8BB0 ??0CCacheDb@@QAE@XZ
       5478   FA 007CAE00 ??0CCacheEntry@@QAE@PAX@Z
       5479   FB 000800A0 ??0CCacheEntry@@QAE@XZ
       5485   FC 0007AE50 ??0CCacheKey@@QAE@PBDPAVCCacheEntry@@@Z
       5486   FD 00321450 ??0CCalendarFormat@@QAE@XZ
       5487   FE 0095FB60 ??0CClientSession@@QAE@XZ
       5488   FF 00127100 ??0CCodeLib@@QAE@W4ACTION_TYPE@@@Z
       5489  100 010F7130 ??0CCodeLib@@QAE@XZ
       5490  101 002181B0 ??0CColumnFormat@@QAE@XZ
       5491  102 01099B30 ??0CDAVNoteStore@@QAE@XZ
       5492  103 010E1660 ??0CDaemon@@QAE@XZ
       5493  104 010E2020 ??0CDaemonManager@@QAE@XZ
       5494  105 010E24E0 ??0CDaemonWorker@@QAE@XZ
       5495  106 008D9630 ??0CDatabase@@QAE@PBD@Z
       5496  107 000FD530 ??0CDatabase@@QAE@XZ
       5497  108 007AE2F0 ??0CDefActionCtx@@QAE@XZ
       5557  109 0011DB60 ??0CDesignNote@@QAE@XZ
       5589  10A 00786670 ??0CDirException@@QAE@ABV0@@Z
       5641  10B 00786620 ??0CDirException@@QAE@GPBD0G@Z
       5642  10C 00077AC0 ??0CEventLanguageTable@@QAE@XZ
       5644  10D 008DAFA0 ??0CFolderCollection@@QAE@XZ
       5651  10E 008DAEE0 ??0CFolderInfo@@QAE@XZ
       5657  10F 008DB100 ??0CFolderRefCollection@@QAE@XZ
       5864  110 008DB0D0 ??0CFolderRefInfo@@QAE@XZ
       6078  111 00320310 ??0CGURUInternetClient@@QAE@XZ
       6079  112 008DBB90 ??0CHandleBuffer@@QAE@XZ
       6163  113 007CAF50 ??0CHandlePool@@QAE@GG@Z
       6189  114 007CAFE0 ??0CHandlePool@@QAE@XZ
       6547  115 00321450 ??0CIMAIL_Authentication@@QAE@XZ
       6611  116 00679AC0 ??0CIMAP4Client@@QAE@PAX@Z
       6612  117 01099EA0 ??0CIMAPSiteMapStore@@QAE@XZ
       6613  118 00681070 ??0CIMailConfig@@QAE@PAD@Z
       6614  119 00681030 ??0CIMailConfig@@QAE@XZ
       6615  11A 00682060 ??0CIMailFolder@@QAE@KKJ@Z
       6616  11B 006820B0 ??0CIMailResync@@QAE@H@Z
       6617  11C 00322210 ??0CIMsgExportMail@@QAE@XZ
       6622  11D 00322270 ??0CIMsgExportNews@@QAE@PAD@Z
       6623  11E 003225B0 ??0CIMsgImport@@QAE@XZ
       6624  11F 0032BEF0 ??0CIMsgImportMail@@QAE@XZ
       6635  120 0032BF50 ??0CIMsgImportNews@@QAE@XZ
       6636  121 0032C030 ??0CIMsgMimeDirectoryNativeStore@@QAE@XZ
       6689  122 0032C780 ??0CIMsgMimeDirectoryStreamStore@@QAE@XZ
       6690  123 00961140 ??0CINetTask@@QAE@XZ
       6691  124 0032D390 ??0CInternetClient@@QAE@XZ
       6692  125 010F2AC0 ??0CJSArrayHelperClass@@QAE@XZ
       6693  126 010F2C50 ??0CJSBaseObjectClass@@QAE@XZ
       6694  127 010F3F00 ??0CJSNotesValue@@QAE@PAVNJSContext@@@Z
       6695  128 010F3780 ??0CJSNotesValue@@QAE@XZ
       6696  129 010F4070 ??0CJSSession@@QAE@XZ
       6697  12A 010F8950 ??0CJavaCodeLibData@@QAE@XZ
       6698  12B 010E2C20 ??0CJavaDocument@@QAE@XZ
       6700  12C 010F81B0 ??0CJavaScriptCodeLibData@@QAE@XZ
       6703  12D 00739BB0 ??0CLDAPEntry@@QAE@XZ
       6704  12E 00744030 ??0CLDAPLongestSearches@@QAE@G@Z
       6705  12F 00745990 ??0CLDAPModList@@QAE@XZ
       6706  130 00749910 ??0CLDAPSearch@@QAE@XZ
       6707  131 00F213C0 ??0CLDAPThread@@QAE@ABV0@@Z
       6708  132 00F21BB0 ??0CLDAPThread@@QAE@PADKK@Z
       6709  133 00F21B20 ??0CLDAPThread@@QAE@XZ
       6710  134 007CBB50 ??0CLMBCSToMimeText@@QAE@PAVCStream@@@Z
       6711  135 001274B0 ??0CLSCodeLibData@@QAE@XZ
       6712  136 0016A080 ??0CLSIDocument@@QAE@XZ
       6713  137 008AA0B0 ??0CLSIDocumentHolder@@QAE@XZ
       6714  138 010FCD70 ??0CLSLib@@QAE@XZ
       6715  139 00688200 ??0CLdapClient@@QAE@H@Z
       6716  13A 000CBE50 ??0CLinkList@@QAE@XZ
       6717  13B 007CC800 ??0CListBase@@QAE@ABV0@@Z
       6718  13C 007CC7A0 ??0CListBase@@QAE@KKKPBX@Z
       6719  13D 007CC6D0 ??0CListBase@@QAE@XZ
       6720  13E 002FEE10 ??0CLogEvent@@QAE@XZ
       6721  13F 00593010 ??0CMBlob@JONAH@@QAE@W4security_t@1@@Z
       6722  140 00592D20 ??0CMBlobBody@JONAH@@QAE@W4security_t@1@@Z
       6723  141 00592AC0 ??0CMBlobHeader@JONAH@@QAE@W4security_t@1@@Z
       6724  142 008DFAE0 ??0CManageDIP@@QAE@K@Z
       6725  143 008DFAC0 ??0CManageDIP@@QAE@XZ
       6726  144 008DFF20 ??0CManageDPAB@@QAE@PAD@Z
       6727  145 008DFF00 ??0CManageDPAB@@QAE@XZ
       6728  146 007CCE30 ??0CMemStr@@QAE@ABV0@@Z
       6729  147 000887E0 ??0CMemStr@@QAE@PBD@Z
       6730  148 0003C430 ??0CMemStr@@QAE@XZ
       6731  149 0011D5F0 ??0CMemStrList@@QAE@XZ
       6732  14A 003C0B20 ??0CMimeSymbol@@QAE@XZ
       6733  14B 00965930 ??0CNHTTPRetriever@@QAE@XZ
       6734  14C 008DC3F0 ??0CNIFCollection@@QAE@XZ
       6735  14D 008E7040 ??0CNIFCollectionNew@@QAE@QAX0@Z
       6736  14E 008DCA80 ??0CNIFEntryData@@QAE@XZ
       6737  14F 0028ED10 ??0CNNTPDatabase@@QAE@XZ
       6738  150 00290140 ??0CNNTPViewNote@@QAE@XZ
       6739  151 009BB4A0 ??0CNSFNoteExtendableFileObj@@QAE@XZ
       6740  152 00961D80 ??0CNetIOCP@@QAE@XZ
       6741  153 0096A8E0 ??0CNetSession@@QAE@XZ
       6742  154 00689910 ??0CNewsGroup@@QAE@XZ
       6743  155 0068A780 ??0CNewsServer@@QAE@XZ
       6744  156 0011DBD0 ??0CNote@@QAE@XZ
       6745  157 007CF210 ??0CNumberList@@QAE@AAV0@@Z
       6746  158 007CF3E0 ??0CNumberList@@QAE@ABURANGE@@@Z
       6747  159 007CF190 ??0CNumberList@@QAE@KK@Z
       6748  15A 007CF120 ??0CNumberList@@QAE@XZ
       6749  15B 00173460 ??0CObjectArray@@QAE@XZ
       6750  15C 0032DE30 ??0CPOP3InternetClient@@QAE@XZ
       6751  15D 010CD270 ??0CPROGDocument@@QAE@XZ
       6752  15E 0032FCF0 ??0CParse@@QAE@XZ
       6753  15F 0014E1B0 ??0CPointerList@@QAE@H@Z
       6754  160 008E9BC0 ??0CPolicyTypes@@QAE@XZ
       6755  161 00681EA0 ??0CProgressInfo@@QAE@XZ
       6756  162 005880E0 ??0CRLAnnContent@JONAH@@QAE@W4security_t@1@@Z
       6757  163 004A5CD0 ??0CRLBag@JONAH@@QAE@W4security_t@1@@Z
       6758  164 007AEBF0 ??0CRawAction@@QAE@XZ
       6759  165 007B4680 ??0CRawActionByForm@@QAE@XZ
       6760  166 007B3F10 ??0CRawActionDBCopy@@QAE@XZ
       6761  167 007B4510 ??0CRawActionDelete@@QAE@XZ
       6762  168 007B4C70 ??0CRawActionFolder@@QAE@H@Z
       6763  169 007B2460 ??0CRawActionFormula@@QAE@H@Z
       6764  16A 007B2AF0 ??0CRawActionLotusScript@@QAE@XZ
       6765  16B 007B3490 ??0CRawActionMail@@QAE@XZ
       6766  16C 007B1550 ??0CRawActionModifyField@@QAE@XZ
       6767  16D 007B8120 ??0CRawActionNewsletter@@QAE@XZ
       6768  16E 007B4A10 ??0CRawActionReadMarks@@QAE@H@Z
       6769  16F 007B1C60 ??0CRawActionReply@@QAE@XZ
       6770  170 007B52F0 ??0CRawActionRunAgent@@QAE@XZ
       6771  171 007B5D30 ??0CRawActionSendDocument@@QAE@XZ
       6772  172 007B3A20 ??0CRawActionSendMail@@QAE@XZ
       6773  173 007B1460 ??0CRawActionTerm@@QAE@XZ
       6774  174 007B9E30 ??0CRawJavaScript@@QAE@XZ
       6775  175 007B9BB0 ??0CRawJavaScriptTerm@@QAE@XZ
       6776  176 0022D790 ??0CRawQuery@@QAE@XZ
       6777  177 007BB740 ??0CRawQueryByField@@QAE@XZ
       6778  178 007BC9D0 ??0CRawQueryByForm@@QAE@XZ
       6779  179 007BB250 ??0CRawQueryFormula@@QAE@XZ
       6780  17A 007BADA0 ??0CRawQueryTerm@@QAE@XZ
       6781  17B 007BAE00 ??0CRawQueryTextTerm@@QAE@XZ
       6782  17C 007BD120 ??0CRawQueryTopicTerm@@QAE@XZ
       6783  17D 007BC340 ??0CRawQueryUsesForm@@QAE@XZ
       6784  17E 001B2100 ??0CRawStyleSheet@@QAE@XZ
       6785  17F 007BF5C0 ??0CRawStyleSheetTerm@@QAE@XZ
       6786  180 0008D230 ??0CRefCntBaseClass@@QAE@H@Z
       6787  181 0008D250 ??0CRefCntHandleClass@@QAE@PAXKH@Z
       6788  182 008EA460 ??0CReplica@@QAE@XZ
       6789  183 007CFD40 ??0CReplicaIDList@@QAE@XZ
       6790  184 008EAE10 ??0CReplicaList@@QAE@PAUtagTIMEDATE@@@Z
       6791  185 008ECB70 ??0CReplicaSelectionNote@@QAE@PAX0PBD@Z
       6792  186 004AA130 ??0CSAMLDiag@@QAE@XZ
       6793  187 00331150 ??0CSMTPInternetClient@@QAE@XZ
       6794  188 00334FE0 ??0CSSLPolicy@@QAE@GKKH@Z
       6795  189 00687E80 ??0CSearchCondition@@QAE@HHHPAD@Z
       6796  18A 004ADA60 ??0CSecLtpaToken2@@QAE@PADPAE10K0K@Z
       6797  18B 004AD9E0 ??0CSecLtpaToken2@@QAE@PADPAE10K@Z
       6798  18C 004ADCA0 ??0CSecLtpaToken@@QAE@PAE0PADK1K@Z
       6799  18D 004ADC30 ??0CSecLtpaToken@@QAE@PAE0PADK@Z
       6800  18E 004AF870 ??0CSecSecurityProvider@@QAE@G@Z
       6801  18F 004AAB40 ??0CSecWasSSOToken@@QAE@PAE0PADK1K@Z
       6802  190 004ADC30 ??0CSecWasSSOToken@@QAE@PAE0PADK@Z
       6803  191 009724E0 ??0CServerSession@@QAE@XZ
       6804  192 007CFDF0 ??0CSet@@QAE@XZ
       6805  193 0007A770 ??0CSiteMapEntry@@QAE@XZ
       6806  194 0109F7F0 ??0CSiteMapReplEntry@@QAE@XZ
       6807  195 0109F290 ??0CSiteMapReplStore@@QAE@XZ
       6808  196 00125260 ??0CSiteMapStore@@QAE@XZ
       6809  197 007D0110 ??0CSortedMemStrList@@QAE@H@Z
       6810  198 007D0070 ??0CSortedMemStrList@@QAE@HH@Z
       6811  199 007D0410 ??0CStr@@QAE@W4CStreamDataFormat@@@Z
       6812  19A 007D2E40 ??0CStrList@@QAE@H@Z
       6813  19B 007D7FF0 ??0CStream@@QAE@ABV0@@Z
       6814  19C 00065EC0 ??0CStream@@QAE@W4CStreamDataFormat@@P6GGPAXPADK@Z1@Z
       6815  19D 001B7060 ??0CSubscriptionStore@@QAE@XZ
       6816  19E 007D9030 ??0CTaskStatDictionary@@QAE@XZ
       6817  19F 007D8FB0 ??0CTaskStatList@@QAE@ABV0@@Z
       6818  1A0 010EC2D0 ??0CTaskStatList@@QAE@XZ
       6819  1A1 0074E030 ??0CTblBuffer@@QAE@K@Z
       6820  1A2 0074E070 ??0CTblBuffer@@QAE@KK@Z
       6821  1A3 0074E000 ??0CTblBuffer@@QAE@XZ
       6822  1A4 007BFE40 ??0CTermElement@@QAE@XZ
       6823  1A5 001B2130 ??0CTermList@@QAE@XZ
       6824  1A6 007D9B70 ??0CTextList@@QAE@AAV0@@Z
       6825  1A7 007D9D90 ??0CTextList@@QAE@ABULIST@@H@Z
       6826  1A8 007D9AE0 ??0CTextList@@QAE@KK@Z
       6827  1A9 007D9A60 ??0CTextList@@QAE@XZ
       6828  1AA 007D9E20 ??0CTimeDate@@QAE@ABUtagTIMEDATE@@@Z
       6829  1AB 007D9E50 ??0CTimeDate@@QAE@XZ
       6830  1AC 008F2FB0 ??0CTrustMgmt@@QAE@PBD0@Z
       6831  1AD 008F3250 ??0CTrustMgmt@@QAE@PBDPAX1@Z
       6832  1AE 007DA9E0 ??0CVector@@QAE@ABV0@@Z
       6833  1AF 001B28A0 ??0CVector@@QAE@KK@Z
       6834  1B0 007DA640 ??0CVector@@QAE@PAXKK@Z
       6835  1B1 0004F830 ??0CVector@@QAE@XZ
       6836  1B2 00218FA0 ??0CViewFormat@@QAE@XZ
       6837  1B3 008F4C50 ??0CViewNote@@QAE@XZ
       6838  1B4 007DAAE0 ??0CWebUserPreferences@@QAE@XZ
       6839  1B5 00581120 ??0CaLdapPostType@JONAH@@QAE@W4security_t@1@@Z
       6840  1B6 004A5BB0 ??0CertBag@JONAH@@QAE@W4security_t@1@@Z
       6841  1B7 00595270 ??0CertId@JONAH@@QAE@W4security_t@1@@Z
       6842  1B8 005871E0 ??0CertIds@JONAH@@QAE@W4security_t@1@@Z
       6843  1B9 0049C390 ??0CertList@JONAH@@QAE@W4security_t@1@@Z
       6844  1BA 00595950 ??0CertOrEncCert@JONAH@@QAE@W4security_t@1@@Z
       6845  1BB 00590A00 ??0CertRepMessage@JONAH@@QAE@W4security_t@1@@Z
       6846  1BC 00588A60 ??0CertReqMessages@JONAH@@QAE@W4security_t@1@@Z
       6847  1BD 005A5E20 ??0CertReqMsg@JONAH@@QAE@W4security_t@1@@Z
       6848  1BE 00596C00 ??0CertRequest@JONAH@@QAE@W4security_t@1@@Z
       6849  1BF 00595D70 ??0CertResponse@JONAH@@QAE@W4security_t@1@@Z
       6850  1C0 00587D00 ??0CertResponses@JONAH@@QAE@W4security_t@1@@Z
       6851  1C1 0049D740 ??0CertRevocationLists@JONAH@@QAE@W4security_t@1@@Z
       6852  1C2 00594F00 ??0CertTemplate@JONAH@@QAE@W4security_t@1@@Z
       6853  1C3 004A3C70 ??0CertificateList@JONAH@@QAE@W4security_t@1@@Z
       6854  1C4 004A3EF0 ??0CertificatePair@JONAH@@QAE@W4security_t@1@@Z
       6855  1C5 005A5F30 ??0CertificateRequest@JONAH@@QAE@W4security_t@1@@Z
       6856  1C6 005876B0 ??0Certificates@JONAH@@QAE@W4security_t@1@@Z
       6857  1C7 004A61D0 ??0CertificationRequest@JONAH@@QAE@W4security_t@1@@Z
       6858  1C8 004A5F10 ??0CertificationRequestInfo@JONAH@@QAE@W4security_t@1@@Z
       6859  1C9 00595B40 ??0CertifiedKeyPair@JONAH@@QAE@W4security_t@1@@Z
       6860  1CA 00587BD0 ??0CertifiedKeyPairs@JONAH@@QAE@W4security_t@1@@Z
       6861  1CB 005956A0 ??0Challenge@JONAH@@QAE@W4security_t@1@@Z
       6862  1CC 008F4F90 ??0Config@@QAE@H@Z
       6863  1CD 008F50D0 ??0Config@@QAE@PAXH@Z
       6864  1CE 004A87E0 ??0Content@JONAH@@QAE@W4security_t@1@@Z
       6865  1CF 004A99B0 ??0ContentInfo@JONAH@@QAE@W4security_t@1@@Z
       6866  1D0 00580850 ??0DHBMParameter@JONAH@@QAE@W4security_t@1@@Z
       6867  1D1 00490860 ??0DSAParams@JONAH@@QAE@W4security_t@1@@Z
       6868  1D2 0049D260 ??0DigestAlgorithmIdentifiers@JONAH@@QAE@W4security_t@1@@Z
       6869  1D3 004A45B0 ??0DigestContentInfo@JONAH@@QAE@W4security_t@1@@Z
       6870  1D4 00491280 ??0DigestInfo@JONAH@@QAE@W4security_t@1@@Z
       6871  1D5 004A46D0 ??0DigestedData@JONAH@@QAE@W4security_t@1@@Z
       6872  1D6 0048FBF0 ??0DisplayText@JONAH@@QAE@W4security_t@1@@Z
       6873  1D7 004A7D60 ??0DistributionPoint@JONAH@@QAE@W4security_t@1@@Z
       6874  1D8 004A3470 ??0DistributionPointName@JONAH@@QAE@W4security_t@1@@Z
       6875  1D9 004A2950 ??0EDIPartyName@JONAH@@QAE@W4security_t@1@@Z
       6876  1DA 004A4200 ??0EncryptedContentInfo@JONAH@@QAE@W4security_t@1@@Z
       6877  1DB 004A4340 ??0EncryptedData@JONAH@@QAE@W4security_t@1@@Z
       6878  1DC 005965F0 ??0EncryptedKey@JONAH@@QAE@W4security_t@1@@Z
       6879  1DD 004914D0 ??0EncryptedPrivateKeyInfo@JONAH@@QAE@W4security_t@1@@Z
       6880  1DE 00590550 ??0EncryptedValue@JONAH@@QAE@W4security_t@1@@Z
       6881  1DF 004A4460 ??0EnvelopedData@JONAH@@QAE@W4security_t@1@@Z
       6882  1E0 00588EE0 ??0ErrorMsgContent@JONAH@@QAE@W4security_t@1@@Z
       6883  1E1 0049D410 ??0ExtendedCertsAndCertificates@JONAH@@QAE@W4security_t@1@@Z
       6884  1E2 002C5EB0 ??0FTFDGroupMgr@@QAE@XZ
       6885  1E3 002C4A40 ??0FTUBMGroupMgr@@QAE@XZ
       6886  1E4 0059EF30 ??0GeneralInfoData@JONAH@@QAE@W4security_t@1@@Z
       6887  1E5 004A7A20 ??0GeneralName@JONAH@@QAE@W4security_t@1@@Z
       6888  1E6 004A7B80 ??0GeneralSubtree@JONAH@@QAE@W4security_t@1@@Z
       6889  1E7 00299990 ??0HTMLEmitter@@QAE@XZ
       6890  1E8 004A4110 ??0HostIdMappingValue@JONAH@@QAE@W4security_t@1@@Z
       6891  1E9 0049BE10 ??0HostIdMappings@JONAH@@QAE@W4security_t@1@@Z
       6892  1EA 0059F1B0 ??0InfoTypeAndValue@JONAH@@QAE@W4security_t@1@@Z
       6893  1EB 00588D70 ??0InfoTypesAndValues@JONAH@@QAE@W4security_t@1@@Z
       6894  1EC 00490D30 ??0IssuerAndSerialNumber@JONAH@@QAE@W4security_t@1@@Z
       6895  1ED 00596E80 ??0IssuerRAInfo@JONAH@@QAE@W4security_t@1@@Z
       6896  1EE 010E3850 ??0JavaOptions@@QAE@W4JVM_TASK_ENUM@@PADPAUJVMPerProcessOpts@@@Z
       6897  1EF 010E4D90 ??0JavaSession@@QAE@XZ
       6898  1F0 0048EDD0 ??0JonahTime@JONAH@@QAE@W4security_t@1@@Z
       6899  1F1 0049D9C0 ??0KeyList@JONAH@@QAE@W4security_t@1@@Z
       6909  1F2 00596090 ??0KeyRecRepContent@JONAH@@QAE@W4security_t@1@@Z
       6911  1F3 0074E720 ??0LDAPBuffer@@QAE@K@Z
       6914  1F4 0074E750 ??0LDAPBuffer@@QAE@KK@Z
       6915  1F5 0074E700 ??0LDAPBuffer@@QAE@XZ
       6916  1F6 001F6B80 ??0LSISession@@QAE@XZ
       6917  1F7 001935B0 ??0LSIThread@@QAE@PAVLSISession@@@Z
       6918  1F8 010FF250 ??0LSIThread@@QAE@PAVLSISession@@PAVCLSIDocument@@@Z
       6919  1F9 000480F0 ??0LinkedElement@@QAE@XZ
       6920  1FA 000FD1F0 ??0ListMgr@@QAE@K@Z
       6921  1FB 003C0F60 ??0MIMEActiveContentEmitter@@QAE@PAVMIMEActiveContentFStr@@KPAVMIMEWalkEntry@@@Z
       6922  1FC 003C10E0 ??0MIMEActiveContentEmitter@@QAE@PAVMIMEActiveContentFStr@@KPAVMIMEWalkEntry@@PAVCTrustedSiteList@@@Z
       6923  1FD 008C5B50 ??0MIMEActiveContentFilter@@QAE@PAXK@Z
       6924  1FE 003C66C0 ??0MIMEActiveContentHTMLFStr@@QAE@PAVMIMEActiveContentFilter@@PAXPBD@Z
       6925  1FF 003C7140 ??0MIMEWalkEntry@@QAE@PAXPAVCMimeEntity@@@Z
       6926  200 004918A0 ??0MacData@JONAH@@QAE@W4security_t@1@@Z
       6927  201 007DD290 ??0NABLookup@@QAE@XZ
       6928  202 007DD9E0 ??0NABLookupKerberosName@@QAE@XZ
       6929  203 00EA7280 ??0NIFSQL@@QAE@AAGPAXPAD22H@Z
       6930  204 00491BA0 ??0NetscapePublicKeyAndChallenge@JONAH@@QAE@W4security_t@1@@Z
       6931  205 00491D60 ??0NetscapeSignedPublicKeyAndChallenge@JONAH@@QAE@W4security_t@1@@Z
       6932  206 00581440 ??0NotesLicenseExt@JONAH@@QAE@W4security_t@1@@Z
       6933  207 00499E20 ??0NoticeReference@JONAH@@QAE@W4security_t@1@@Z
       6934  208 0059E900 ??0OOBCertHash@JONAH@@QAE@W4security_t@1@@Z
       6935  209 00972E80 ??0OpenURL@@QAE@XZ
       6936  20A 0058FB40 ??0OptionalValidity@JONAH@@QAE@W4security_t@1@@Z
       6937  20B 00580500 ??0PBMParameter@JONAH@@QAE@W4security_t@1@@Z
       6938  20C 004A9AE0 ??0PFX@JONAH@@QAE@W4security_t@1@@Z
       6939  20D 0059EA80 ??0PKIArchiveOptions@JONAH@@QAE@W4security_t@1@@Z
       6940  20E 0059F500 ??0PKIBody@JONAH@@QAE@W4security_t@1@@Z
       6941  20F 00586730 ??0PKIFreeText@JONAH@@QAE@W4security_t@1@@Z
       6942  210 00597310 ??0PKIHeader@JONAH@@QAE@W4security_t@1@@Z
       6943  211 005A00C0 ??0PKIMessage@JONAH@@QAE@W4security_t@1@@Z
       6944  212 005869D0 ??0PKIPublicationInfo@JONAH@@QAE@W4security_t@1@@Z
       6945  213 00580A50 ??0PKIStatus@JONAH@@QAE@W4security_t@1@@Z
       6946  214 00586BE0 ??0PKIStatusInfo@JONAH@@QAE@W4security_t@1@@Z
       6947  215 00586F20 ??0PKIStatusInfos@JONAH@@QAE@W4security_t@1@@Z
       6951  216 00580C70 ??0PKMACValue@JONAH@@QAE@W4security_t@1@@Z
       6952  217 005873D0 ??0POPODecKeyChallContent@JONAH@@QAE@W4security_t@1@@Z
       6953  218 005875A0 ??0POPODecKeyRespContent@JONAH@@QAE@W4security_t@1@@Z
       6954  219 005916C0 ??0POPOPrivKey@JONAH@@QAE@W4security_t@1@@Z
       6955  21A 005A0B80 ??0POPOSigningKey@JONAH@@QAE@W4security_t@1@@Z
       6956  21B 0059EC40 ??0POPOSigningKeyInput@JONAH@@QAE@W4security_t@1@@Z
       6957  21C 0049A7D0 ??0PolicyInformation@JONAH@@QAE@W4security_t@1@@Z
       6958  21D 0048FE90 ??0PolicyMapping@JONAH@@QAE@W4security_t@1@@Z
       6959  21E 0049A250 ??0PolicyQualifier@JONAH@@QAE@W4security_t@1@@Z
       6960  21F 0049A440 ??0PolicyQualifierInfo@JONAH@@QAE@W4security_t@1@@Z
       6961  220 004A56B0 ??0PrivateKeyInfo@JONAH@@QAE@W4security_t@1@@Z
       6962  221 0049C120 ??0PrivateValues@JONAH@@QAE@W4security_t@1@@Z
       6963  222 005A5D20 ??0ProofOfPossesion@JONAH@@QAE@W4security_t@1@@Z
       6964  223 00490600 ??0ProofofIdPossession@JONAH@@QAE@W4security_t@1@@Z
       6965  224 0059FEB0 ??0ProtectedPart@JONAH@@QAE@W4security_t@1@@Z
       6966  225 00586920 ??0PubInfos@JONAH@@QAE@W4security_t@1@@Z
       6967  226 00580360 ??0PubMethod@JONAH@@QAE@W4security_t@1@@Z
       6968  227 00597020 ??0RACCertPkiConfirmWarp@JONAH@@QAE@W4security_t@1@@Z
       6969  228 00596F50 ??0RACCertWarp@JONAH@@QAE@W4security_t@1@@Z
       6970  229 004903B0 ??0ReasonFlags@JONAH@@QAE@W4security_t@1@@Z
       6971  22A 00490F60 ??0RecipientInfo@JONAH@@QAE@W4security_t@1@@Z
       6972  22B 0049CA30 ??0RecipientInfos@JONAH@@QAE@W4security_t@1@@Z
       6973  22C 005964A0 ??0RevAnnContent@JONAH@@QAE@W4security_t@1@@Z
       6974  22D 00596360 ??0RevDetails@JONAH@@QAE@W4security_t@1@@Z
       6975  22E 00590EC0 ??0RevRepContent@JONAH@@QAE@W4security_t@1@@Z
       6976  22F 00587FB0 ??0RevReqContent@JONAH@@QAE@W4security_t@1@@Z
       6977  230 00597D00 ??0RevocationRequest@JONAH@@QAE@W4security_t@1@@Z
       6978  231 0049B500 ??0RevokedCertificate@JONAH@@QAE@W4security_t@1@@Z
       6979  232 0049B8B0 ??0RevokedCertificates@JONAH@@QAE@W4security_t@1@@Z
       6980  233 004A5A30 ??0SafeBag@JONAH@@QAE@W4security_t@1@@Z
       6981  234 0049E110 ??0SafeContents@JONAH@@QAE@W4security_t@1@@Z
       6982  235 004A5DF0 ??0SecretBag@JONAH@@QAE@W4security_t@1@@Z
       6983  236 002999D0 ??0SgmlCDFileInputStream@@QAE@PAXPBDG@Z
       6984  237 00299E20 ??0SgmlCDInputStream@@QAE@PAXPBDG@Z
       6985  238 0029A220 ??0SgmlCStrInputStream@@QAE@PAVCStr@@H@Z
       6986  239 0029A6A0 ??0SgmlDHandleInputStream@@QAE@PAXKH@Z
       6987  23A 0029A830 ??0SgmlFileInputStream@@QAE@HKK@Z
       6988  23B 0029A7C0 ??0SgmlFileInputStream@@QAE@PBD@Z
       6989  23C 0029AA60 ??0SgmlHTextInputStream@@QAE@PAU_HText@@@Z
       6990  23D 0029A4A0 ??0SgmlHandleInputStream@@QAE@PAXKH@Z
       6991  23E 0029ACC0 ??0SgmlInputStream@@QAE@XZ
       6992  23F 0029A700 ??0SgmlMemHandleInputStream@@QAE@KKH@Z
       6993  240 0029ADD0 ??0SgmlNoteItemInputStream@@QAE@PAXPBDG@Z
       6994  241 0029B0A0 ??0SgmlStringInputStream@@QAE@PBDK@Z
       6995  242 004A4EC0 ??0SignedContent@JONAH@@QAE@W4security_t@1@@Z
       6996  243 004A8450 ??0SignedContentInfo@JONAH@@QAE@W4security_t@1@@Z
       6997  244 004A85B0 ??0SignedData@JONAH@@QAE@W4security_t@1@@Z
       6998  245 004A4A70 ??0SignerInfo@JONAH@@QAE@W4security_t@1@@Z
       6999  246 0049CF30 ??0SignerInfos@JONAH@@QAE@W4security_t@1@@Z
       7013  247 00595190 ??0SinglePubInfo@JONAH@@QAE@W4security_t@1@@Z
       7014  248 007E0B20 ??0SmartMemoryObject@@QAE@ABV0@@Z
       7015  249 0048F340 ??0SubjectPublicKeyInfo@JONAH@@QAE@W4security_t@1@@Z
       7016  24A 00580040 ??0SubsequentMessage@JONAH@@QAE@W4security_t@1@@Z
       7017  24B 004A3880 ??0TBSCertList@JONAH@@QAE@W4security_t@1@@Z
       7018  24C 004A21C0 ??0TBSCertificate@JONAH@@QAE@W4security_t@1@@Z
       7019  24D 0048EBF0 ??0Time@JONAH@@QAE@W4security_t@1@@Z
       7020  24E 0049A030 ??0UserNotice@JONAH@@QAE@W4security_t@1@@Z
       7021  24F 0048F130 ??0Validity@JONAH@@QAE@W4security_t@1@@Z
       7022  250 004A2060 ??0Version@JONAH@@QAE@W4security_t@1@@Z
       7023  251 004A2DD0 ??0XAuthorityKeyIdentifier@JONAH@@QAE@W4security_t@1@@Z
       7024  252 00490130 ??0XBasicConstraints@JONAH@@QAE@W4security_t@1@@Z
       7025  253 004A8110 ??0XIssuingDistributionPoint@JONAH@@QAE@W4security_t@1@@Z
       7026  254 0048F870 ??0XKeyUsage@JONAH@@QAE@W4security_t@1@@Z
       7027  255 004A3190 ??0XNameConstraints@JONAH@@QAE@W4security_t@1@@Z
       7028  256 005928E0 ??0XNotesAliasNames@JONAH@@QAE@W4security_t@1@@Z
       7029  257 005929E0 ??0XNotesLicenseID@JONAH@@QAE@W4security_t@1@@Z
       7030  258 005816E0 ??0XNotesPrivateKeyCreationTime@JONAH@@QAE@W4security_t@1@@Z
       7031  259 004A3280 ??0XPolicyConstraints@JONAH@@QAE@W4security_t@1@@Z
       7032  25A 004A2F10 ??0XPrivateKeyUsagePeriod@JONAH@@QAE@W4security_t@1@@Z
       7033  25B 007A2F40 ??0XmlLog@@QAE@XZ
       7034  25C 007A38F0 ??0XmlReformatter@@QAE@PAVXmlInputSource@@@Z
       7035  25D 005BA0E0 ??0asn_AVA@JONAH@@QAE@W4security_t@1@@Z
       7036  25E 00498B00 ??0asn_RDN@JONAH@@QAE@W4security_t@1@@Z
       7037  25F 0048DBF0 ??0asn_UTCtime@JONAH@@QAE@W4security_t@1@@Z
       7038  260 0048E8F0 ??0asn_UTF8String@JONAH@@QAE@W4security_t@1@@Z
       7039  261 005C41D0 ??0asn_any@JONAH@@QAE@W4security_t@1@@Z
       7040  262 0048CDF0 ??0asn_bitstring@JONAH@@QAE@W4security_t@1@@Z
       7041  263 0048E730 ??0asn_bmpString@JONAH@@QAE@W4security_t@1@@Z
       7042  264 0048D0D0 ??0asn_boolean@JONAH@@QAE@W4security_t@1@@Z
       7043  265 0048E070 ??0asn_charstring@JONAH@@QAE@W4security_t@1@@Z
       7044  266 0048DF00 ??0asn_choice@JONAH@@QAE@IW4security_t@1@@Z
       7045  267 0048DEA0 ??0asn_choice@JONAH@@QAE@W4security_t@1@@Z
       7046  268 005C31D0 ??0asn_composite@JONAH@@QAE@IW4security_t@1@@Z
       7047  269 005C3170 ??0asn_composite@JONAH@@QAE@W4security_t@1@@Z
       7048  26A 0048E1C0 ??0asn_directoryString@JONAH@@QAE@W4security_t@1@@Z
       7049  26B 0048CD20 ??0asn_enumerated@JONAH@@QAE@W4security_t@1@@Z
       7050  26C 0048DCC0 ??0asn_generalizedtime@JONAH@@QAE@W4security_t@1@@Z
       7051  26D 0048E350 ??0asn_ia5String@JONAH@@QAE@W4security_t@1@@Z
       7052  26E 0048CBF0 ??0asn_integer@JONAH@@QAE@W4security_t@1@@Z
       7053  26F 0048CF80 ??0asn_namedbits@JONAH@@QAE@W4security_t@1@@Z
       7054  270 0048D480 ??0asn_nothing@JONAH@@QAE@W4security_t@1@@Z
       7055  271 0048D380 ??0asn_null@JONAH@@QAE@W4security_t@1@@Z
       7056  272 005C2CD0 ??0asn_object@JONAH@@QAE@W4security_t@1@@Z
       7057  273 0048D250 ??0asn_octetstring@JONAH@@QAE@W4security_t@1@@Z
       7058  274 0048D560 ??0asn_oid@JONAH@@QAE@W4security_t@1@@Z
       7059  275 0048CAF0 ??0asn_primitive@JONAH@@QAE@W4security_t@1@@Z
       7060  276 0048E430 ??0asn_printableString@JONAH@@QAE@W4security_t@1@@Z
       7061  277 0048D740 ??0asn_sequence@JONAH@@QAE@IW4security_t@1@@Z
       7062  278 0048D6D0 ??0asn_sequence@JONAH@@QAE@W4security_t@1@@Z
       7063  279 0048DAC0 ??0asn_set@JONAH@@QAE@IW4security_t@1@@Z
       7064  27A 0048DA30 ??0asn_set@JONAH@@QAE@W4security_t@1@@Z
       7065  27B 0048D900 ??0asn_sorted@JONAH@@QAE@IW4security_t@1@@Z
       7066  27C 0048D890 ??0asn_sorted@JONAH@@QAE@W4security_t@1@@Z
       7067  27D 0048E650 ??0asn_teletexString@JONAH@@QAE@W4security_t@1@@Z
       7068  27E 0048E810 ??0asn_universalString@JONAH@@QAE@W4security_t@1@@Z
       7069  27F 0048E510 ??0asn_visibleString@JONAH@@QAE@W4security_t@1@@Z
       7070  280 005BC920 ??0asn_x500name@JONAH@@QAE@W4security_t@1@@Z
       7071  281 005C6170 ??0bigUInt@@QAE@ABV0@@Z
       7072  282 005C5B40 ??0bigUInt@@QAE@ABVasn_integer@JONAH@@@Z
       7073  283 005C59E0 ??0bigUInt@@QAE@XZ
       7074  284 005C1510 ??0buffer_t@JONAH@@AAE@ABV01@@Z
       7075  285 005C15C0 ??0buffer_t@JONAH@@QAE@ABVmemory_funcs_t@1@@Z
       7076  286 005C17D0 ??0buffer_t@JONAH@@QAE@ABVmemory_funcs_t@1@W4security_t@1@@Z
       7077  287 005C1A20 ??0buffer_t@JONAH@@QAE@IABVmemory_funcs_t@1@@Z
       7078  288 005C1B90 ??0buffer_t@JONAH@@QAE@IABVmemory_funcs_t@1@W4security_t@1@@Z
       7079  289 005C1910 ??0buffer_t@JONAH@@QAE@IW4security_t@1@@Z
       7080  28A 005C1700 ??0buffer_t@JONAH@@QAE@W4security_t@1@@Z
       7081  28B 0074ED30 ??0encQueue@@QAE@ABV0@@Z
       7082  28C 0074ECE0 ??0encQueue@@QAE@XZ
       7083  28D 0048C5D0 ??0jonah_assignment_exception@JONAH@@QAE@ABV01@@Z
       7084  28E 0048C5A0 ??0jonah_assignment_exception@JONAH@@QAE@PBDH00@Z
       7085  28F 005BCD10 ??0jonah_base_class@JONAH@@QAE@PBDW4security_t@1@@Z
       7086  290 0048C500 ??0jonah_exception@JONAH@@QAE@ABV01@@Z
       7087  291 0048C4D0 ??0jonah_exception@JONAH@@QAE@PBDH000@Z
       7088  292 0048C560 ??0jonah_memory_exception@JONAH@@QAE@ABV01@@Z
       7089  293 0048C530 ??0jonah_memory_exception@JONAH@@QAE@PBDH00@Z
       7090  294 0048C690 ??0jonah_syntax_exception@JONAH@@QAE@ABV01@@Z
       7091  295 0048C650 ??0jonah_syntax_exception@JONAH@@QAE@ABVjonah_exception@1@@Z
       7092  296 0048C620 ??0jonah_syntax_exception@JONAH@@QAE@PBDH00@Z
       7093  297 00597E10 ??0lsasn1@JONAH@@QAE@W4security_t@1@@Z
       7094  298 0048C920 ??0memory_funcs_t@JONAH@@QAE@IP6APAXII@ZP6AXIPAX@ZP6APAXI1I@ZP6APAXIII@Z@Z
       7095  299 0048C8E0 ??0memory_funcs_t@JONAH@@QAE@P6APAXI@ZP6AXPAX@ZP6APAX1I@ZP6APAXII@Z@Z
       7096  29A 0048C8B0 ??0memory_funcs_t@JONAH@@QAE@XZ
       7097  29B 0048C7C0 ??0objType_t@JONAH@@QAE@XZ
       7098  29C 00491600 ??0pkcs_12PbeParams@JONAH@@QAE@W4security_t@1@@Z
       7099  29D 005BD900 ??0r_buffer_t@JONAH@@QAE@ABV01@@Z
       7100  29E 005BD970 ??0r_buffer_t@JONAH@@QAE@PAEI@Z
       7101  29F 005BD8B0 ??0r_buffer_t@JONAH@@QAE@XZ
       7104  2A0 0048F590 ??0x509_Extension@JONAH@@QAE@W4security_t@1@@Z
       7105  2A1 00498FD0 ??0x509_Extensions@JONAH@@QAE@W4security_t@1@@Z
       7106  2A2 004A26B0 ??0x509_certificate@JONAH@@QAE@W4security_t@1@@Z
       7107  2A3 00585EA0 ??1?$AutoHeap@V?$asn_sequenceof@VGeneralName@JONAH@@@JONAH@@@JONAH@@UAE@XZ
       7108  2A4 00585D80 ??1?$AutoHeap@V?$asn_sequenceof@Vasn_oid@JONAH@@@JONAH@@@JONAH@@UAE@XZ
       7111  2A5 00585C60 ??1?$AutoHeap@VCMBlob@JONAH@@@JONAH@@UAE@XZ
       7124  2A6 005A7D40 ??1?$AutoHeap@VCertificateRequest@JONAH@@@JONAH@@UAE@XZ
       7125  2A7 00585FC0 ??1?$AutoHeap@VCertificationRequest@JONAH@@@JONAH@@UAE@XZ
       7142  2A8 005B4980 ??1?$AutoHeap@VContentInfo@JONAH@@@JONAH@@UAE@XZ
       7165  2A9 00585CC0 ??1?$AutoHeap@VJonahTime@JONAH@@@JONAH@@UAE@XZ
       7175  2AA 005B4570 ??1?$AutoHeap@VPFX@JONAH@@@JONAH@@UAE@XZ
       7176  2AB 005B4630 ??1?$AutoHeap@VPrivateKeyInfo@JONAH@@@JONAH@@UAE@XZ
       7177  2AC 006670D0 ??1?$AutoHeap@VQueryCache@@@JONAH@@UAE@XZ
       7178  2AD 00667130 ??1?$AutoHeap@VVertex@@@JONAH@@UAE@XZ
       7179  2AE 00585DE0 ??1?$AutoHeap@VXBasicConstraints@JONAH@@@JONAH@@UAE@XZ
       7180  2AF 00585D20 ??1?$AutoHeap@VXKeyUsage@JONAH@@@JONAH@@UAE@XZ
       7181  2B0 00585E40 ??1?$AutoHeap@VXNameConstraints@JONAH@@@JONAH@@UAE@XZ
       7182  2B1 00585F00 ??1?$AutoHeap@VXNotesAliasNames@JONAH@@@JONAH@@UAE@XZ
       7183  2B2 00585F60 ??1?$AutoHeap@Vasn_oid@JONAH@@@JONAH@@UAE@XZ
       7184  2B3 005B45D0 ??1?$AutoHeap@Vx509_certificate@JONAH@@@JONAH@@UAE@XZ
       7185  2B4 00585B40 ??1?$asn_explicit@V?$asn_sequenceof@VCertificateRequest@JONAH@@@JONAH@@$01$0A@@JONAH@@UAE@XZ
       7186  2B5 00585BC0 ??1?$asn_explicit@V?$asn_sequenceof@VRevocationRequest@JONAH@@@JONAH@@$01$00@JONAH@@UAE@XZ
       7187  2B6 00585550 ??1?$asn_explicit@V?$asn_setof@VAliasWithTag@JONAH@@@JONAH@@$01$00@JONAH@@UAE@XZ
       7188  2B7 00584C80 ??1?$asn_explicit@VAlgorithmIdentifier@JONAH@@$01$00@JONAH@@UAE@XZ
       7189  2B8 00583710 ??1?$asn_explicit@VAlgorithmIdentifier@JONAH@@$01$0A@@JONAH@@UAE@XZ
       7190  2B9 00594CA0 ??1?$asn_explicit@VCAKeyUpdAnnContent@JONAH@@$01$0P@@JONAH@@UAE@XZ
       7230  2BA 005942D0 ??1?$asn_explicit@VCALdapPostInfo@JONAH@@$01$0A@@JONAH@@UAE@XZ
       7231  2BB 0058C800 ??1?$asn_explicit@VCRLAnnContent@JONAH@@$01$00@JONAH@@UAE@XZ
       7232  2BC 0058EAA0 ??1?$asn_explicit@VCRLAnnContent@JONAH@@$01$0BC@@JONAH@@UAE@XZ
       7233  2BD 005938C0 ??1?$asn_explicit@VCertId@JONAH@@$01$00@JONAH@@UAE@XZ
       7234  2BE 0058C690 ??1?$asn_explicit@VCertIds@JONAH@@$01$0A@@JONAH@@UAE@XZ
       7235  2BF 005944C0 ??1?$asn_explicit@VCertRepMessage@JONAH@@$01$00@JONAH@@UAE@XZ
       7236  2C0 00594610 ??1?$asn_explicit@VCertRepMessage@JONAH@@$01$02@JONAH@@UAE@XZ
       7237  2C1 005948B0 ??1?$asn_explicit@VCertRepMessage@JONAH@@$01$07@JONAH@@UAE@XZ
       7238  2C2 00594B50 ??1?$asn_explicit@VCertRepMessage@JONAH@@$01$0O@@JONAH@@UAE@XZ
       7239  2C3 0058E090 ??1?$asn_explicit@VCertReqMessages@JONAH@@$01$01@JONAH@@UAE@XZ
       7240  2C4 0058E4E0 ??1?$asn_explicit@VCertReqMessages@JONAH@@$01$06@JONAH@@UAE@XZ
       7241  2C5 0058E650 ??1?$asn_explicit@VCertReqMessages@JONAH@@$01$08@JONAH@@UAE@XZ
       7242  2C6 0058DF20 ??1?$asn_explicit@VCertReqMessages@JONAH@@$01$0A@@JONAH@@UAE@XZ
       7243  2C7 0058E930 ??1?$asn_explicit@VCertReqMessages@JONAH@@$01$0N@@JONAH@@UAE@XZ
       7244  2C8 0058C3B0 ??1?$asn_explicit@VCertificates@JONAH@@$01$00@JONAH@@UAE@XZ
       7245  2C9 00594760 ??1?$asn_explicit@VCertificationRequest@JONAH@@$01$03@JONAH@@UAE@XZ
       7246  2CA 0058C520 ??1?$asn_explicit@VCertifiedKeyPairs@JONAH@@$01$01@JONAH@@UAE@XZ
       7247  2CB 004A73D0 ??1?$asn_explicit@VContent@JONAH@@$01$0A@@JONAH@@UAE@XZ
       7248  2CC 004A6650 ??1?$asn_explicit@VDistributionPointName@JONAH@@$01$0A@@JONAH@@UAE@XZ
       7249  2CD 00594030 ??1?$asn_explicit@VEncryptedKey@JONAH@@$01$0A@@JONAH@@UAE@XZ
       7277  2CE 0058C0B0 ??1?$asn_explicit@VEncryptedValue@JONAH@@$01$00@JONAH@@UAE@XZ
       7278  2CF 0058C110 ??1?$asn_explicit@VEncryptedValue@JONAH@@$01$0A@@JONAH@@UAE@XZ
       7279  2D0 0058C880 ??1?$asn_explicit@VEnvelopedData@JONAH@@$01$0A@@JONAH@@UAE@XZ
       7280  2D1 0058F110 ??1?$asn_explicit@VErrorMsgContent@JONAH@@$01$0BH@@JONAH@@UAE@XZ
       7288  2D2 00594090 ??1?$asn_explicit@VGeneralName@JONAH@@$01$0A@@JONAH@@UAE@XZ
       7289  2D3 0058DDB0 ??1?$asn_explicit@VInfoTypesAndValues@JONAH@@$01$07@JONAH@@UAE@XZ
       7290  2D4 0058EE30 ??1?$asn_explicit@VInfoTypesAndValues@JONAH@@$01$0BF@@JONAH@@UAE@XZ
       7291  2D5 0058EFA0 ??1?$asn_explicit@VInfoTypesAndValues@JONAH@@$01$0BG@@JONAH@@UAE@XZ
       7292  2D6 00582B30 ??1?$asn_explicit@VJonahTime@JONAH@@$01$00@JONAH@@UAE@XZ
       7293  2D7 00582AD0 ??1?$asn_explicit@VJonahTime@JONAH@@$01$0A@@JONAH@@UAE@XZ
       7294  2D8 0059E4B0 ??1?$asn_explicit@VKeyRecRepContent@JONAH@@$01$09@JONAH@@UAE@XZ
       7295  2D9 005855D0 ??1?$asn_explicit@VNotesLicenseExt@JONAH@@$01$00@JONAH@@UAE@XZ
       7296  2DA 0058DC40 ??1?$asn_explicit@VPKIFreeText@JONAH@@$01$06@JONAH@@UAE@XZ
       7297  2DB 0058C260 ??1?$asn_explicit@VPKIPublicationInfo@JONAH@@$01$00@JONAH@@UAE@XZ
       7300  2DC 0058E200 ??1?$asn_explicit@VPOPODecKeyChallContent@JONAH@@$01$04@JONAH@@UAE@XZ
       7301  2DD 0058E370 ??1?$asn_explicit@VPOPODecKeyRespContent@JONAH@@$01$05@JONAH@@UAE@XZ
       7309  2DE 0058D040 ??1?$asn_explicit@VPOPOPrivKey@JONAH@@$01$01@JONAH@@UAE@XZ
       7310  2DF 0058D0A0 ??1?$asn_explicit@VPOPOPrivKey@JONAH@@$01$02@JONAH@@UAE@XZ
       7311  2E0 0059E320 ??1?$asn_explicit@VRACCertPkiConfirmWarp@JONAH@@$01$02@JONAH@@UAE@XZ
       7312  2E1 00594330 ??1?$asn_explicit@VRACCertWarp@JONAH@@$01$00@JONAH@@UAE@XZ
       7313  2E2 00594E90 ??1?$asn_explicit@VRevAnnContent@JONAH@@$01$0BB@@JONAH@@UAE@XZ
       7314  2E3 00594A00 ??1?$asn_explicit@VRevRepContent@JONAH@@$01$0M@@JONAH@@UAE@XZ
       7315  2E4 0058E7C0 ??1?$asn_explicit@VRevReqContent@JONAH@@$01$0L@@JONAH@@UAE@XZ
       7316  2E5 004A1F00 ??1?$asn_explicit@VSignedContent@JONAH@@$01$0A@@JONAH@@UAE@XZ
       7317  2E6 005842B0 ??1?$asn_explicit@VSubsequentMessage@JONAH@@$01$00@JONAH@@UAE@XZ
       7318  2E7 00585780 ??1?$asn_explicit@Vasn_UTF8String@JONAH@@$01$02@JONAH@@UAE@XZ
       7319  2E8 00585630 ??1?$asn_explicit@Vasn_UTF8String@JONAH@@$01$0A@@JONAH@@UAE@XZ
       7336  2E9 00584990 ??1?$asn_explicit@Vasn_any@JONAH@@$01$01@JONAH@@UAE@XZ
       7337  2EA 00584A10 ??1?$asn_explicit@Vasn_any@JONAH@@$01$03@JONAH@@UAE@XZ
       7338  2EB 00498710 ??1?$asn_explicit@Vasn_any@JONAH@@$01$0A@@JONAH@@UAE@XZ
       7339  2EC 00585040 ??1?$asn_explicit@Vasn_any@JONAH@@$01$0BE@@JONAH@@UAE@XZ
       7340  2ED 00584340 ??1?$asn_explicit@Vasn_bitstring@JONAH@@$01$01@JONAH@@UAE@XZ
       7341  2EE 00584220 ??1?$asn_explicit@Vasn_bitstring@JONAH@@$01$0A@@JONAH@@UAE@XZ
       7342  2EF 00585720 ??1?$asn_explicit@Vasn_boolean@JONAH@@$01$00@JONAH@@UAE@XZ
       7343  2F0 005841C0 ??1?$asn_explicit@Vasn_boolean@JONAH@@$01$01@JONAH@@UAE@XZ
       7344  2F1 005856C0 ??1?$asn_explicit@Vasn_boolean@JONAH@@$01$0A@@JONAH@@UAE@XZ
       7345  2F2 00494A00 ??1?$asn_explicit@Vasn_directoryString@JONAH@@$01$00@JONAH@@UAE@XZ
       7346  2F3 00494970 ??1?$asn_explicit@Vasn_directoryString@JONAH@@$01$0A@@JONAH@@UAE@XZ
       7347  2F4 00584BF0 ??1?$asn_explicit@Vasn_generalizedtime@JONAH@@$01$0A@@JONAH@@UAE@XZ
       7348  2F5 005854C0 ??1?$asn_explicit@Vasn_ia5String@JONAH@@$01$0A@@JONAH@@UAE@XZ
       7349  2F6 00494390 ??1?$asn_explicit@Vasn_integer@JONAH@@$01$0A@@JONAH@@UAE@XZ
       7373  2F7 00584FE0 ??1?$asn_explicit@Vasn_null@JONAH@@$01$0BD@@JONAH@@UAE@XZ
       7374  2F8 00584130 ??1?$asn_explicit@Vasn_octetstring@JONAH@@$01$00@JONAH@@UAE@XZ
       7375  2F9 00584D10 ??1?$asn_explicit@Vasn_octetstring@JONAH@@$01$01@JONAH@@UAE@XZ
       7376  2FA 00584DA0 ??1?$asn_explicit@Vasn_octetstring@JONAH@@$01$02@JONAH@@UAE@XZ
       7377  2FB 00584E30 ??1?$asn_explicit@Vasn_octetstring@JONAH@@$01$03@JONAH@@UAE@XZ
       7378  2FC 00584EC0 ??1?$asn_explicit@Vasn_octetstring@JONAH@@$01$04@JONAH@@UAE@XZ
       7379  2FD 00584F50 ??1?$asn_explicit@Vasn_octetstring@JONAH@@$01$05@JONAH@@UAE@XZ
       7380  2FE 00497CA0 ??1?$asn_explicit@Vasn_octetstring@JONAH@@$01$0A@@JONAH@@UAE@XZ
       7381  2FF 00582C20 ??1?$asn_explicit@Vasn_x500name@JONAH@@$01$02@JONAH@@UAE@XZ
       7382  300 00494B90 ??1?$asn_explicit@Vasn_x500name@JONAH@@$01$03@JONAH@@UAE@XZ
       7383  301 00582C80 ??1?$asn_explicit@Vasn_x500name@JONAH@@$01$04@JONAH@@UAE@XZ
       7384  302 0049EC20 ??1?$asn_explicit@Vx509_Extensions@JONAH@@$01$02@JONAH@@UAE@XZ
       7385  303 004A1630 ??1?$asn_explicit@Vx509_Extensions@JONAH@@$01$0A@@JONAH@@UAE@XZ
       7386  304 00593A10 ??1?$asn_explicit@Vx509_certificate@JONAH@@$01$0A@@JONAH@@UAE@XZ
       7387  305 00594E30 ??1?$asn_explicit@Vx509_certificate@JONAH@@$01$0BA@@JONAH@@UAE@XZ
       7388  306 00494FA0 ??1?$asn_implicit@V?$asn_sequenceof@VGeneralName@JONAH@@@JONAH@@$01$00@JONAH@@UAE@XZ
       7389  307 00496340 ??1?$asn_implicit@V?$asn_sequenceof@VGeneralName@JONAH@@@JONAH@@$01$01@JONAH@@UAE@XZ
       7390  308 00496240 ??1?$asn_implicit@V?$asn_sequenceof@VGeneralName@JONAH@@@JONAH@@$01$0A@@JONAH@@UAE@XZ
       7391  309 004961C0 ??1?$asn_implicit@V?$asn_sequenceof@VGeneralSubtree@JONAH@@@JONAH@@$01$00@JONAH@@UAE@XZ
       7392  30A 00496140 ??1?$asn_implicit@V?$asn_sequenceof@VGeneralSubtree@JONAH@@@JONAH@@$01$0A@@JONAH@@UAE@XZ
       7393  30B 00583950 ??1?$asn_implicit@VAlgorithmIdentifier@JONAH@@$01$00@JONAH@@UAE@XZ
       7394  30C 00582B90 ??1?$asn_implicit@VAlgorithmIdentifier@JONAH@@$01$01@JONAH@@UAE@XZ
       7395  30D 00583A00 ??1?$asn_implicit@VAlgorithmIdentifier@JONAH@@$01$02@JONAH@@UAE@XZ
       7396  30E 005838C0 ??1?$asn_implicit@VAlgorithmIdentifier@JONAH@@$01$0A@@JONAH@@UAE@XZ
       7397  30F 004A1B00 ??1?$asn_implicit@VAttributes@JONAH@@$01$00@JONAH@@UAE@XZ
       7398  310 004A1940 ??1?$asn_implicit@VAttributes@JONAH@@$01$0A@@JONAH@@UAE@XZ
       7399  311 004A1E80 ??1?$asn_implicit@VCertRevocationLists@JONAH@@$01$00@JONAH@@UAE@XZ
       7408  312 0049F190 ??1?$asn_implicit@VEDIPartyName@JONAH@@$01$04@JONAH@@UAE@XZ
       7409  313 004A1CC0 ??1?$asn_implicit@VExtendedCertsAndCertificates@JONAH@@$01$0A@@JONAH@@UAE@XZ
       7410  314 0058B160 ??1?$asn_implicit@VOptionalValidity@JONAH@@$01$03@JONAH@@UAE@XZ
       7411  315 005A0820 ??1?$asn_implicit@VPOPOSigningKey@JONAH@@$01$00@JONAH@@UAE@XZ
       7412  316 0059DFC0 ??1?$asn_implicit@VPOPOSigningKeyInput@JONAH@@$01$0A@@JONAH@@UAE@XZ
       7413  317 004962C0 ??1?$asn_implicit@VReasonFlags@JONAH@@$01$00@JONAH@@UAE@XZ
       7414  318 00496C70 ??1?$asn_implicit@VReasonFlags@JONAH@@$01$02@JONAH@@UAE@XZ
       7415  319 00582CE0 ??1?$asn_implicit@VSubjectPublicKeyInfo@JONAH@@$01$05@JONAH@@UAE@XZ
       7416  31A 004A0A70 ??1?$asn_implicit@Vasn_RDN@JONAH@@$01$00@JONAH@@UAE@XZ
       7417  31B 00494850 ??1?$asn_implicit@Vasn_bitstring@JONAH@@$01$00@JONAH@@UAE@XZ
       7418  31C 004948D0 ??1?$asn_implicit@Vasn_bitstring@JONAH@@$01$01@JONAH@@UAE@XZ
       7419  31D 00582D40 ??1?$asn_implicit@Vasn_bitstring@JONAH@@$01$06@JONAH@@UAE@XZ
       7420  31E 00582DC0 ??1?$asn_implicit@Vasn_bitstring@JONAH@@$01$07@JONAH@@UAE@XZ
       7421  31F 00496B90 ??1?$asn_implicit@Vasn_boolean@JONAH@@$01$00@JONAH@@UAE@XZ
       7422  320 00496C10 ??1?$asn_implicit@Vasn_boolean@JONAH@@$01$01@JONAH@@UAE@XZ
       7423  321 00496CF0 ??1?$asn_implicit@Vasn_boolean@JONAH@@$01$03@JONAH@@UAE@XZ
       7424  322 00495180 ??1?$asn_implicit@Vasn_generalizedtime@JONAH@@$01$00@JONAH@@UAE@XZ
       7425  323 004950B0 ??1?$asn_implicit@Vasn_generalizedtime@JONAH@@$01$0A@@JONAH@@UAE@XZ
       7426  324 00494A90 ??1?$asn_implicit@Vasn_ia5String@JONAH@@$01$00@JONAH@@UAE@XZ
       7427  325 00494B10 ??1?$asn_implicit@Vasn_ia5String@JONAH@@$01$01@JONAH@@UAE@XZ
       7428  326 00494C20 ??1?$asn_implicit@Vasn_ia5String@JONAH@@$01$05@JONAH@@UAE@XZ
       7429  327 00495F30 ??1?$asn_implicit@Vasn_integer@JONAH@@$01$00@JONAH@@UAE@XZ
       7430  328 00495020 ??1?$asn_implicit@Vasn_integer@JONAH@@$01$01@JONAH@@UAE@XZ
       7431  329 00495E80 ??1?$asn_implicit@Vasn_integer@JONAH@@$01$0A@@JONAH@@UAE@XZ
       7432  32A 005843D0 ??1?$asn_implicit@Vasn_null@JONAH@@$01$0A@@JONAH@@UAE@XZ
       7433  32B 00583A90 ??1?$asn_implicit@Vasn_octetstring@JONAH@@$01$03@JONAH@@UAE@XZ
       7434  32C 00494CA0 ??1?$asn_implicit@Vasn_octetstring@JONAH@@$01$06@JONAH@@UAE@XZ
       7435  32D 00494F20 ??1?$asn_implicit@Vasn_octetstring@JONAH@@$01$0A@@JONAH@@UAE@XZ
       7436  32E 00494D40 ??1?$asn_implicit@Vasn_oid@JONAH@@$01$07@JONAH@@UAE@XZ
       7437  32F 0058B7B0 ??1?$asn_implicit@Vx509_Extensions@JONAH@@$01$08@JONAH@@UAE@XZ
       7438  330 005887F0 ??1?$asn_sequenceof@VAttributeTypeAndValue@JONAH@@@JONAH@@UAE@XZ
       7439  331 00587280 ??1?$asn_sequenceof@VCertId@JONAH@@@JONAH@@UAE@XZ
       7440  332 00588B00 ??1?$asn_sequenceof@VCertReqMsg@JONAH@@@JONAH@@UAE@XZ
       7441  333 00583DD0 ??1?$asn_sequenceof@VCertResponse@JONAH@@@JONAH@@UAE@XZ
       7442  334 005840D0 ??1?$asn_sequenceof@VCertificateList@JONAH@@@JONAH@@UAE@XZ
       7443  335 00585960 ??1?$asn_sequenceof@VCertificateRequest@JONAH@@@JONAH@@UAE@XZ
       7444  336 00583C50 ??1?$asn_sequenceof@VCertifiedKeyPair@JONAH@@@JONAH@@UAE@XZ
       7445  337 00587470 ??1?$asn_sequenceof@VChallenge@JONAH@@@JONAH@@UAE@XZ
       7446  338 0049DC40 ??1?$asn_sequenceof@VContentInfo@JONAH@@@JONAH@@UAE@XZ
       7447  339 00494EC0 ??1?$asn_sequenceof@VGeneralName@JONAH@@@JONAH@@UAE@XZ
       7448  33A 004960E0 ??1?$asn_sequenceof@VGeneralSubtree@JONAH@@@JONAH@@UAE@XZ
       7449  33B 00584B90 ??1?$asn_sequenceof@VInfoTypeAndValue@JONAH@@@JONAH@@UAE@XZ
       7450  33C 00583590 ??1?$asn_sequenceof@VPKIStatusInfo@JONAH@@@JONAH@@UAE@XZ
       7451  33D 004959B0 ??1?$asn_sequenceof@VPolicyInformation@JONAH@@@JONAH@@UAE@XZ
       7452  33E 00495E20 ??1?$asn_sequenceof@VPolicyMapping@JONAH@@@JONAH@@UAE@XZ
       7453  33F 00495830 ??1?$asn_sequenceof@VPolicyQualifierInfo@JONAH@@@JONAH@@UAE@XZ
       7454  340 00498590 ??1?$asn_sequenceof@VPrivateKeyInfo@JONAH@@@JONAH@@UAE@XZ
       7455  341 00497C40 ??1?$asn_sequenceof@VRecipientInfo@JONAH@@@JONAH@@UAE@XZ
       7456  342 00583F50 ??1?$asn_sequenceof@VRevDetails@JONAH@@@JONAH@@UAE@XZ
       7457  343 00585AE0 ??1?$asn_sequenceof@VRevocationRequest@JONAH@@@JONAH@@UAE@XZ
       7458  344 0049B950 ??1?$asn_sequenceof@VRevokedCertificate@JONAH@@@JONAH@@UAE@XZ
       7459  345 0049E1A0 ??1?$asn_sequenceof@VSafeBag@JONAH@@@JONAH@@UAE@XZ
       7460  346 00583410 ??1?$asn_sequenceof@VSinglePubInfo@JONAH@@@JONAH@@UAE@XZ
       7461  347 00494330 ??1?$asn_sequenceof@Vasn_RDN@JONAH@@@JONAH@@UAE@XZ
       7462  348 00583290 ??1?$asn_sequenceof@Vasn_UTF8String@JONAH@@@JONAH@@UAE@XZ
       7463  349 00587640 ??1?$asn_sequenceof@Vasn_integer@JONAH@@@JONAH@@UAE@XZ
       7464  34A 00499070 ??1?$asn_sequenceof@Vx509_Extension@JONAH@@@JONAH@@UAE@XZ
       7465  34B 00497410 ??1?$asn_sequenceof@Vx509_certificate@JONAH@@@JONAH@@UAE@XZ
       7466  34C 0049D2E0 ??1?$asn_setof@VAlgorithmIdentifier@JONAH@@@JONAH@@UAE@XZ
       7467  34D 00585460 ??1?$asn_setof@VAliasWithTag@JONAH@@@JONAH@@UAE@XZ
       7468  34E 0049C5E0 ??1?$asn_setof@VAttribute@JONAH@@@JONAH@@UAE@XZ
       7469  34F 004983F0 ??1?$asn_setof@VCertificateList@JONAH@@@JONAH@@UAE@XZ
       7470  350 0049BE80 ??1?$asn_setof@VHostIdMappingValue@JONAH@@@JONAH@@UAE@XZ
       7471  351 0049CFB0 ??1?$asn_setof@VSignerInfo@JONAH@@@JONAH@@UAE@XZ
       7472  352 004941B0 ??1?$asn_setof@Vasn_AVA@JONAH@@@JONAH@@UAE@XZ
       7473  353 0049C190 ??1?$asn_setof@Vasn_octetstring@JONAH@@@JONAH@@UAE@XZ
       7474  354 0049D490 ??1?$asn_setof@Vx509_certificate@JONAH@@@JONAH@@UAE@XZ
       7475  355 004A36A0 ??1AccessDescription@JONAH@@UAE@XZ
       7476  356 005800F0 ??1Action@JONAH@@UAE@XZ
       7477  357 00490CB0 ??1AlgorithmIdentifier@JONAH@@UAE@XZ
       7478  358 00581340 ??1AliasWithTag@JONAH@@UAE@XZ
       7479  359 005902B0 ??1Asn1Random@JONAH@@UAE@XZ
       7480  35A 00490CB0 ??1Attribute@JONAH@@UAE@XZ
       7481  35B 00580FD0 ??1AttributeTypeAndValue@JONAH@@UAE@XZ
       7482  35C 005887F0 ??1AttributeTypesAndValues@JONAH@@UAE@XZ
       7483  35D 0049C5E0 ??1Attributes@JONAH@@UAE@XZ
       7484  35E 005969B0 ??1AuthInfo@JONAH@@UAE@XZ
       7485  35F 0049DC40 ??1AuthenticatedSafes@JONAH@@UAE@XZ
       7486  360 00591230 ??1CAKeyUpdAnnContent@JONAH@@UAE@XZ
       7487  361 00591A60 ??1CALdapPostInfo@JONAH@@UAE@XZ
       7488  362 008CF210 ??1CAcctMgmt@@QAE@XZ
       7489  363 007A8660 ??1CAssistant@@UAE@XZ
       7490  364 009BB170 ??1CAssociatedItems@@QAE@XZ
       7491  365 008D5860 ??1CBTree@@UAE@XZ
       7492  366 00677520 ??1CBaseNewsArticle@@UAE@XZ
       7493  367 00677810 ??1CBaseNewsGroup@@UAE@XZ
       7494  368 0068BCF0 ??1CBaseNewsServer@@UAE@XZ
       7495  369 000B7E50 ??1CCDInputStream@@UAE@XZ
       7496  36A 0012CE80 ??1CCDOutputStream@@UAE@XZ
       7497  36B 010E2F50 ??1CCSMeeting@@QAE@XZ
       7498  36C 0031F630 ??1CCSValue@@UAE@XZ
       7499  36D 0031FEF0 ??1CCSValueArray@@UAE@XZ
       7515  36E 007CADB0 ??1CCache@@UAE@XZ
       7516  36F 008D8BD0 ??1CCacheDb@@UAE@XZ
       7517  370 001733A0 ??1CCacheEntry@@UAE@XZ
       7518  371 001733D0 ??1CCacheKey@@UAE@XZ
       7519  372 00717570 ??1CCalendarFormat@@QAE@XZ
       7520  373 00960830 ??1CClientSession@@UAE@XZ
       7521  374 010F7600 ??1CCodeLibData@@UAE@XZ
       7522  375 0046DEE0 ??1CColumnFormat@@QAE@XZ
       7523  376 01099B90 ??1CDAVNoteStore@@UAE@XZ
       7524  377 010E16D0 ??1CDaemon@@UAE@XZ
       7525  378 010E2050 ??1CDaemonManager@@UAE@XZ
       7526  379 010E2510 ??1CDaemonWorker@@UAE@XZ
       7527  37A 0011DB40 ??1CDatabase@@UAE@XZ
       7528  37B 007AFA90 ??1CDefActionCtx@@UAE@XZ
       7529  37C 007866C0 ??1CDirException@@UAE@XZ
       7530  37D 0011DB30 ??1CEventLanguageLoaderHelper@@UAE@XZ
       7531  37E 0013D970 ??1CEventLanguageSaverHelper@@UAE@XZ
       7532  37F 00176610 ??1CEventLanguageTable@@UAE@XZ
       7533  380 008DAFC0 ??1CFolderCollection@@UAE@XZ
       7534  381 008DAF00 ??1CFolderInfo@@UAE@XZ
       7535  382 008DB120 ??1CFolderRefCollection@@UAE@XZ
       7536  383 008DB0F0 ??1CFolderRefInfo@@UAE@XZ
       7537  384 00320050 ??1CGURUInternetClient@@UAE@XZ
       7538  385 008DC3B0 ??1CHandleBuffer@@QAE@XZ
       7540  386 007CB050 ??1CHandlePool@@UAE@XZ
       7541  387 007E1430 ??1CHashElement@@UAE@XZ
       7542  388 007E1EE0 ??1CHashTable@@QAE@XZ
       7543  389 00717570 ??1CIMAIL_Authentication@@QAE@XZ
       7544  38A 00679030 ??1CIMAP4Client@@UAE@XZ
       7545  38B 01099EC0 ??1CIMAPSiteMapStore@@UAE@XZ
       7546  38C 006810F0 ??1CIMailConfig@@UAE@XZ
       7547  38D 006820A0 ??1CIMailFolder@@UAE@XZ
       7548  38E 00682150 ??1CIMailResync@@UAE@XZ
       7549  38F 00335430 ??1CIMsgExport@@UAE@XZ
       7550  390 00322230 ??1CIMsgExportMail@@UAE@XZ
       7551  391 003225D0 ??1CIMsgImport@@UAE@XZ
       7552  392 0032BF10 ??1CIMsgImportMail@@UAE@XZ
       7553  393 0032C0A0 ??1CIMsgMimeDirectoryNativeStore@@UAE@XZ
       7554  394 009611B0 ??1CINetTask@@UAE@XZ
       7555  395 0032D3B0 ??1CInternetClient@@UAE@XZ
       7556  396 010F2AE0 ??1CJSArrayHelperClass@@UAE@XZ
       7557  397 010F3690 ??1CJSBaseObjectClass@@UAE@XZ
       7558  398 010F38A0 ??1CJSNotesValue@@QAE@XZ
       7559  399 010F40B0 ??1CJSSession@@UAE@XZ
       7560  39A 010F8980 ??1CJavaCodeLibData@@UAE@XZ
       7561  39B 010E2C50 ??1CJavaDocument@@UAE@XZ
       7562  39C 010F81D0 ??1CJavaScriptCodeLibData@@UAE@XZ
       7563  39D 00739C10 ??1CLDAPEntry@@QAE@XZ
       7564  39E 00745080 ??1CLDAPLongestSearches@@UAE@XZ
       7565  39F 00746480 ??1CLDAPModList@@QAE@XZ
       7566  3A0 0074D040 ??1CLDAPSearch@@QAE@XZ
       7567  3A1 00F22320 ??1CLDAPThread@@QAE@XZ
       7568  3A2 007CB340 ??1CLMBCSToMimeText@@UAE@XZ
       7569  3A3 010F7610 ??1CLSCodeLibData@@UAE@XZ
       7570  3A4 010F9D20 ??1CLSIDocument@@UAE@XZ
       7571  3A5 010F9B90 ??1CLSIDocumentHolder@@QAE@XZ
       7572  3A6 010FCDA0 ??1CLSLib@@UAE@XZ
       7573  3A7 00688310 ??1CLdapClient@@UAE@XZ
       7574  3A8 007CBC10 ??1CLinkList@@QAE@XZ
       7575  3A9 007CC150 ??1CListBase@@UAE@XZ
       7576  3AA 002FEB10 ??1CLogEvent@@QAE@XZ
       7577  3AB 005930B0 ??1CMBlob@JONAH@@UAE@XZ
       7578  3AC 00592E10 ??1CMBlobBody@JONAH@@UAE@XZ
       7579  3AD 00589B20 ??1CMBlobHeader@JONAH@@UAE@XZ
       7580  3AE 008DFB10 ??1CManageDIP@@QAE@XZ
       7581  3AF 008DFF40 ??1CManageDPAB@@QAE@XZ
       7582  3B0 00044760 ??1CMemStr@@UAE@XZ
       7583  3B1 001B2370 ??1CMemStrList@@QAE@XZ
       7584  3B2 003C0B60 ??1CMimeSymbol@@UAE@XZ
       7585  3B3 00965950 ??1CNHTTPRetriever@@UAE@XZ
       7586  3B4 008DC410 ??1CNIFCollection@@UAE@XZ
       7587  3B5 008E70E0 ??1CNIFCollectionNew@@QAE@XZ
       7588  3B6 008DCAB0 ??1CNIFEntryData@@UAE@XZ
       7589  3B7 009BE2D0 ??1CNSFNoteExtendableFileObj@@QAE@XZ
       7590  3B8 00961E00 ??1CNetIOCP@@UAE@XZ
       7591  3B9 0096FFE0 ??1CNetSession@@UAE@XZ
       7592  3BA 00689940 ??1CNewsGroup@@UAE@XZ
       7593  3BB 0068A7E0 ??1CNewsServer@@UAE@XZ
       7594  3BC 001B6DA0 ??1CNote@@UAE@XZ
       7595  3BD 007CF290 ??1CNumberList@@UAE@XZ
       7596  3BE 00485BA0 ??1CObjectArray@@QAE@XZ
       7597  3BF 0032DF50 ??1CPOP3InternetClient@@UAE@XZ
       7598  3C0 010CD610 ??1CPROGDocument@@UAE@XZ
       7599  3C1 0032FD00 ??1CParse@@UAE@XZ
       7600  3C2 001734C0 ??1CPointerList@@UAE@XZ
       7601  3C3 008E8C30 ??1CPolicyTypes@@QAE@XZ
       7602  3C4 00681F50 ??1CProgressInfo@@UAE@XZ
       7603  3C5 005840D0 ??1CRLAnnContent@JONAH@@UAE@XZ
       7604  3C6 0049E290 ??1CRLBag@JONAH@@UAE@XZ
       7605  3C7 007AEC10 ??1CRawAction@@UAE@XZ
       7606  3C8 007B46A0 ??1CRawActionByForm@@UAE@XZ
       7607  3C9 007B3F30 ??1CRawActionDBCopy@@UAE@XZ
       7608  3CA 007B5D50 ??1CRawActionDelete@@UAE@XZ
       7609  3CB 007B5D50 ??1CRawActionFolder@@UAE@XZ
       7610  3CC 007B2490 ??1CRawActionFormula@@UAE@XZ
       7611  3CD 007B2B10 ??1CRawActionLotusScript@@UAE@XZ
       7612  3CE 007B3A50 ??1CRawActionMail@@UAE@XZ
       7613  3CF 007B1570 ??1CRawActionModifyField@@UAE@XZ
       7614  3D0 007B9070 ??1CRawActionNewsletter@@UAE@XZ
       7615  3D1 007B5D50 ??1CRawActionReadMarks@@UAE@XZ
       7616  3D2 007B1C80 ??1CRawActionReply@@UAE@XZ
       7617  3D3 007B5D50 ??1CRawActionRunAgent@@UAE@XZ
       7618  3D4 007B5D50 ??1CRawActionSendDocument@@UAE@XZ
       7619  3D5 007B3A50 ??1CRawActionSendMail@@UAE@XZ
       7620  3D6 007B5D50 ??1CRawActionTerm@@UAE@XZ
       7621  3D7 007B9E50 ??1CRawJavaScript@@UAE@XZ
       7622  3D8 007B9BE0 ??1CRawJavaScriptTerm@@UAE@XZ
       7623  3D9 007B9FD0 ??1CRawQuery@@UAE@XZ
       7624  3DA 007BB760 ??1CRawQueryByField@@UAE@XZ
       7625  3DB 007BC9F0 ??1CRawQueryByForm@@UAE@XZ
       7626  3DC 007BB270 ??1CRawQueryFormula@@UAE@XZ
       7627  3DD 007BADC0 ??1CRawQueryTerm@@UAE@XZ
       7628  3DE 007BAE40 ??1CRawQueryTextTerm@@UAE@XZ
       7629  3DF 007BD140 ??1CRawQueryTopicTerm@@UAE@XZ
       7630  3E0 007BC360 ??1CRawQueryUsesForm@@UAE@XZ
       7631  3E1 001B2120 ??1CRawStyleSheet@@UAE@XZ
       7632  3E2 007BF5F0 ??1CRawStyleSheetTerm@@UAE@XZ
       7633  3E3 001B2510 ??1CRefCntBaseClass@@MAE@XZ
       7634  3E4 001B2560 ??1CRefCntHandleClass@@MAE@XZ
       7635  3E5 008E9E70 ??1CReplica@@UAE@XZ
       7636  3E6 007CFD90 ??1CReplicaIDList@@UAE@XZ
       7637  3E7 008EAE80 ??1CReplicaList@@QAE@XZ
       7638  3E8 008EC0C0 ??1CReplicaSelectionNote@@QAE@XZ
       7639  3E9 003304D0 ??1CSMTPInternetClient@@UAE@XZ
       7640  3EA 00335010 ??1CSSLPolicy@@UAE@XZ
       7641  3EB 00689850 ??1CSearchConditionList@@UAE@XZ
       7642  3EC 004ADAA0 ??1CSecLtpaToken2@@QAE@XZ
       7643  3ED 004ADCD0 ??1CSecLtpaToken@@QAE@XZ
       7644  3EE 004AF940 ??1CSecSecurityProvider@@QAE@XZ
       7645  3EF 004AD720 ??1CSecWasSSOToken@@QAE@XZ
       7646  3F0 00972580 ??1CServerSession@@UAE@XZ
       7647  3F1 007CFE10 ??1CSet@@UAE@XZ
       7648  3F2 00148910 ??1CSiteMapEntry@@UAE@XZ
       7649  3F3 0109F860 ??1CSiteMapReplEntry@@UAE@XZ
       7650  3F4 0109F2C0 ??1CSiteMapReplStore@@UAE@XZ
       7651  3F5 001F35A0 ??1CSiteMapStore@@UAE@XZ
       7652  3F6 007D0400 ??1CSortedMemStrList@@QAE@XZ
       7653  3F7 007D0450 ??1CStr@@QAE@XZ
       7654  3F8 007D3190 ??1CStrList@@QAE@XZ
       7655  3F9 00067150 ??1CStream@@QAE@XZ
       7656  3FA 001B7140 ??1CSubscriptionStore@@UAE@XZ
       7657  3FB 007D93B0 ??1CTaskStatDictionary@@QAE@XZ
       7658  3FC 007D8B10 ??1CTaskStatList@@QAE@XZ
       7659  3FD 0074E640 ??1CTblBuffer@@UAE@XZ
       7660  3FE 007BFE50 ??1CTermElement@@UAE@XZ
       7661  3FF 001B2150 ??1CTermList@@UAE@XZ
       7662  400 007D9C00 ??1CTextList@@UAE@XZ
       7663  401 00717570 ??1CTimeDate@@QAE@XZ
       7664  402 008F3310 ??1CTrustMgmt@@QAE@XZ
       7665  403 0011D610 ??1CVector@@UAE@XZ
       7666  404 00477080 ??1CViewFontTable@@UAE@XZ
       7667  405 00474C40 ??1CViewFormat@@UAE@XZ
       7668  406 00717570 ??1CWebUserPreferences@@QAE@XZ
       7669  407 005800F0 ??1CaLdapPostType@JONAH@@UAE@XZ
       7670  408 0049E290 ??1CertBag@JONAH@@UAE@XZ
       7671  409 005901A0 ??1CertId@JONAH@@UAE@XZ
       7672  40A 00587280 ??1CertIds@JONAH@@UAE@XZ
       7673  40B 00497410 ??1CertList@JONAH@@UAE@XZ
       7674  40C 00595A00 ??1CertOrEncCert@JONAH@@UAE@XZ
       7675  40D 00590AE0 ??1CertRepMessage@JONAH@@UAE@XZ
       7676  40E 00588B00 ??1CertReqMessages@JONAH@@UAE@XZ
       7677  40F 005A0F00 ??1CertReqMsg@JONAH@@UAE@XZ
       7678  410 00591930 ??1CertRequest@JONAH@@UAE@XZ
       7679  411 00595F40 ??1CertResponse@JONAH@@UAE@XZ
       7680  412 00583DD0 ??1CertResponses@JONAH@@UAE@XZ
       7681  413 004983F0 ??1CertRevocationLists@JONAH@@UAE@XZ
       7682  414 0058FE30 ??1CertTemplate@JONAH@@UAE@XZ
       7683  415 004A3DB0 ??1CertificateList@JONAH@@UAE@XZ
       7684  416 004A3FD0 ??1CertificatePair@JONAH@@UAE@XZ
       7685  417 005A1000 ??1CertificateRequest@JONAH@@UAE@XZ
       7686  418 00497410 ??1Certificates@JONAH@@UAE@XZ
       7687  419 004A6310 ??1CertificationRequest@JONAH@@UAE@XZ
       7688  41A 004A6070 ??1CertificationRequestInfo@JONAH@@UAE@XZ
       7689  41B 00595C40 ??1CertifiedKeyPair@JONAH@@UAE@XZ
       7690  41C 00583C50 ??1CertifiedKeyPairs@JONAH@@UAE@XZ
       7691  41D 005903B0 ??1Challenge@JONAH@@UAE@XZ
       7692  41E 008F55F0 ??1Config@@UAE@XZ
       7693  41F 004A5590 ??1Content@JONAH@@UAE@XZ
       7694  420 004A8A20 ??1ContentInfo@JONAH@@UAE@XZ
       7695  421 00580910 ??1DHBMParameter@JONAH@@UAE@XZ
       7696  422 00490A40 ??1DSAParams@JONAH@@UAE@XZ
       7697  423 0049D2E0 ??1DigestAlgorithmIdentifiers@JONAH@@UAE@XZ
       7698  424 0049CC60 ??1DigestContentInfo@JONAH@@UAE@XZ
       7699  425 004913A0 ??1DigestInfo@JONAH@@UAE@XZ
       7700  426 0049CD70 ??1DigestedData@JONAH@@UAE@XZ
       7701  427 0048FD10 ??1DisplayText@JONAH@@UAE@XZ
       7702  428 004A7E70 ??1DistributionPoint@JONAH@@UAE@XZ
       7703  429 004A3530 ??1DistributionPointName@JONAH@@UAE@XZ
       7704  42A 00499260 ??1EDIPartyName@JONAH@@UAE@XZ
       7705  42B 0049C6B0 ??1EncryptedContentInfo@JONAH@@UAE@XZ
       7706  42C 0049C7F0 ??1EncryptedData@JONAH@@UAE@XZ
       7707  42D 00591570 ??1EncryptedKey@JONAH@@UAE@XZ
       7708  42E 004913A0 ??1EncryptedPrivateKeyInfo@JONAH@@UAE@XZ
       7709  42F 005878E0 ??1EncryptedValue@JONAH@@UAE@XZ
       7710  430 0049CAE0 ??1EnvelopedData@JONAH@@UAE@XZ
       7711  431 00589030 ??1ErrorMsgContent@JONAH@@UAE@XZ
       7712  432 0049D490 ??1ExtendedCertsAndCertificates@JONAH@@UAE@XZ
       7713  433 0059F040 ??1GeneralInfoData@JONAH@@UAE@XZ
       7714  434 004A2B40 ??1GeneralName@JONAH@@UAE@XZ
       7715  435 004A3020 ??1GeneralSubtree@JONAH@@UAE@XZ
       7716  436 002999A0 ??1HTMLEmitter@@UAE@XZ
       7717  437 0049BC60 ??1HostIdMappingValue@JONAH@@UAE@XZ
       7718  438 0049BE80 ??1HostIdMappings@JONAH@@UAE@XZ
       7719  439 0059F2D0 ??1InfoTypeAndValue@JONAH@@UAE@XZ
       7720  43A 00584B90 ??1InfoTypesAndValues@JONAH@@UAE@XZ
       7721  43B 00490E50 ??1IssuerAndSerialNumber@JONAH@@UAE@XZ
       7722  43C 00591BC0 ??1IssuerRAInfo@JONAH@@UAE@XZ
       7723  43D 010E2F50 ??1JavaOptions@@QAE@XZ
       7724  43E 010E4DF0 ??1JavaSession@@UAE@XZ
       7725  43F 0048EDF0 ??1JonahTime@JONAH@@UAE@XZ
       7726  440 00498590 ??1KeyList@JONAH@@UAE@XZ
       7727  441 005961C0 ??1KeyRecRepContent@JONAH@@UAE@XZ
       7728  442 0074E950 ??1LDAPBuffer@@UAE@XZ
       7729  443 010FF180 ??1LSISession@@UAE@XZ
       7730  444 010FF2A0 ??1LSIThread@@UAE@XZ
       7731  445 0011D640 ??1LinkedElement@@UAE@XZ
       7732  446 00173610 ??1ListMgr@@UAE@XZ
       7733  447 003C62F0 ??1MIMEActiveContentEmitter@@UAE@XZ
       7734  448 00717570 ??1MIMEActiveContentFilter@@QAE@XZ
       7735  449 003C6910 ??1MIMEActiveContentHTMLFStr@@UAE@XZ
       7736  44A 003C7250 ??1MIMEWalkEntry@@UAE@XZ
       7737  44B 00491A40 ??1MacData@JONAH@@UAE@XZ
       7738  44C 007DDA30 ??1NABLookup@@QAE@XZ
       7739  44D 007DDA30 ??1NABLookupKerberosName@@QAE@XZ
       7740  44E 00EA7430 ??1NIFSQL@@QAE@XZ
       7741  44F 00491C60 ??1NetscapePublicKeyAndChallenge@JONAH@@UAE@XZ
       7742  450 00491EA0 ??1NetscapeSignedPublicKeyAndChallenge@JONAH@@UAE@XZ
       7743  451 005815B0 ??1NotesLicenseExt@JONAH@@UAE@XZ
       7744  452 00499F30 ??1NoticeReference@JONAH@@UAE@XZ
       7745  453 00595460 ??1OOBCertHash@JONAH@@UAE@XZ
       7746  454 00972EE0 ??1OpenURL@@UAE@XZ
       7747  455 00586180 ??1OptionalValidity@JONAH@@UAE@XZ
       7748  456 005806B0 ??1PBMParameter@JONAH@@UAE@XZ
       7749  457 004A8B10 ??1PFX@JONAH@@UAE@XZ
       7750  458 00596780 ??1PKIArchiveOptions@JONAH@@UAE@XZ
       7751  459 0059F860 ??1PKIBody@JONAH@@UAE@XZ
       7752  45A 00583290 ??1PKIFreeText@JONAH@@UAE@XZ
       7753  45B 00591F70 ??1PKIHeader@JONAH@@UAE@XZ
       7754  45C 005A01E0 ??1PKIMessage@JONAH@@UAE@XZ
       7755  45D 00586AB0 ??1PKIPublicationInfo@JONAH@@UAE@XZ
       7756  45E 005800F0 ??1PKIStatus@JONAH@@UAE@XZ
       7757  45F 00586D40 ??1PKIStatusInfo@JONAH@@UAE@XZ
       7758  460 00583590 ??1PKIStatusInfos@JONAH@@UAE@XZ
       7759  461 00580D90 ??1PKMACValue@JONAH@@UAE@XZ
       7760  462 00587470 ??1POPODecKeyChallContent@JONAH@@UAE@XZ
       7761  463 00587640 ??1POPODecKeyRespContent@JONAH@@UAE@XZ
       7762  464 00588490 ??1POPOPrivKey@JONAH@@UAE@XZ
       7763  465 0059ED70 ??1POPOSigningKey@JONAH@@UAE@XZ
       7764  466 00596AA0 ??1POPOSigningKeyInput@JONAH@@UAE@XZ
       7765  467 0049A930 ??1PolicyInformation@JONAH@@UAE@XZ
       7766  468 0048FFF0 ??1PolicyMapping@JONAH@@UAE@XZ
       7767  469 0049A310 ??1PolicyQualifier@JONAH@@UAE@XZ
       7768  46A 0049A550 ??1PolicyQualifierInfo@JONAH@@UAE@XZ
       7769  46B 004A5870 ??1PrivateKeyInfo@JONAH@@UAE@XZ
       7770  46C 0049C190 ??1PrivateValues@JONAH@@UAE@XZ
       7771  46D 005A0D90 ??1ProofOfPossesion@JONAH@@UAE@XZ
       7772  46E 00490730 ??1ProofofIdPossession@JONAH@@UAE@XZ
       7773  46F 0059FF70 ??1ProtectedPart@JONAH@@UAE@XZ
       7774  470 00583410 ??1PubInfos@JONAH@@UAE@XZ
       7775  471 005800F0 ??1PubMethod@JONAH@@UAE@XZ
       7776  472 00597100 ??1RACCertPkiConfirmWarp@JONAH@@UAE@XZ
       7777  473 00591CC0 ??1RACCertWarp@JONAH@@UAE@XZ
       7778  474 0048CE90 ??1ReasonFlags@JONAH@@UAE@XZ
       7779  475 00491110 ??1RecipientInfo@JONAH@@UAE@XZ
       7780  476 00497C40 ??1RecipientInfos@JONAH@@UAE@XZ
       7781  477 00591320 ??1RevAnnContent@JONAH@@UAE@XZ
       7782  478 00590C90 ??1RevDetails@JONAH@@UAE@XZ
       7783  479 00590FC0 ??1RevRepContent@JONAH@@UAE@XZ
       7784  47A 00583F50 ??1RevReqContent@JONAH@@UAE@XZ
       7785  47B 00592BB0 ??1RevocationRequest@JONAH@@UAE@XZ
       7786  47C 0049B640 ??1RevokedCertificate@JONAH@@UAE@XZ
       7787  47D 0049B950 ??1RevokedCertificates@JONAH@@UAE@XZ
       7788  47E 0049DEB0 ??1SafeBag@JONAH@@UAE@XZ
       7789  47F 0049E1A0 ??1SafeContents@JONAH@@UAE@XZ
       7790  480 0049E290 ??1SecretBag@JONAH@@UAE@XZ
       7791  481 00299AB0 ??1SgmlCDFileInputStream@@UAE@XZ
       7792  482 00299F00 ??1SgmlCDInputStream@@UAE@XZ
       7793  483 0029A390 ??1SgmlCStrInputStream@@UAE@XZ
       7794  484 0029A650 ??1SgmlDHandleInputStream@@UAE@XZ
       7795  485 0029A9E0 ??1SgmlFileInputStream@@UAE@XZ
       7796  486 0029AB10 ??1SgmlHTextInputStream@@UAE@XZ
       7797  487 0029A650 ??1SgmlHandleInputStream@@UAE@XZ
       7798  488 0029ACE0 ??1SgmlInputStream@@UAE@XZ
       7799  489 0029A650 ??1SgmlMemHandleInputStream@@UAE@XZ
       7800  48A 0029AE80 ??1SgmlNoteItemInputStream@@UAE@XZ
       7801  48B 0029B110 ??1SgmlStringInputStream@@UAE@XZ
       7802  48C 0049D830 ??1SignedContent@JONAH@@UAE@XZ
       7803  48D 004A52C0 ??1SignedContentInfo@JONAH@@UAE@XZ
       7804  48E 004A53B0 ??1SignedData@JONAH@@UAE@XZ
       7805  48F 004A4C90 ??1SignerInfo@JONAH@@UAE@XZ
       7806  490 0049CFB0 ??1SignerInfos@JONAH@@UAE@XZ
       7807  491 005900A0 ??1SinglePubInfo@JONAH@@UAE@XZ
       7808  492 007E1420 ??1SmartConstTaggedTextlist@@UAE@XZ
       7809  493 007E13D0 ??1SmartConstTextlist@@UAE@XZ
       7810  494 007E1330 ??1SmartMemoryObject@@UAE@XZ
       7811  495 0048F460 ??1SubjectPublicKeyInfo@JONAH@@UAE@XZ
       7812  496 005800F0 ??1SubsequentMessage@JONAH@@UAE@XZ
       7813  497 004A3A90 ??1TBSCertList@JONAH@@UAE@XZ
       7814  498 004A2420 ??1TBSCertificate@JONAH@@UAE@XZ
       7815  499 0048ECB0 ??1Time@JONAH@@UAE@XZ
       7816  49A 0049A110 ??1UserNotice@JONAH@@UAE@XZ
       7817  49B 0048F200 ??1Validity@JONAH@@UAE@XZ
       7818  49C 00498E20 ??1Version@JONAH@@UAE@XZ
       7819  49D 00499980 ??1XAuthorityKeyIdentifier@JONAH@@UAE@XZ
       7820  49E 004902A0 ??1XBasicConstraints@JONAH@@UAE@XZ
       7821  49F 004A8270 ??1XIssuingDistributionPoint@JONAH@@UAE@XZ
       7822  4A0 0048CE90 ??1XKeyUsage@JONAH@@UAE@XZ
       7823  4A1 0049B070 ??1XNameConstraints@JONAH@@UAE@XZ
       7824  4A2 00589770 ??1XNotesAliasNames@JONAH@@UAE@XZ
       7825  4A3 00589980 ??1XNotesLicenseID@JONAH@@UAE@XZ
       7826  4A4 0048E580 ??1XNotesPrivateKeyCreationTime@JONAH@@UAE@XZ
       7827  4A5 0049B1B0 ??1XPolicyConstraints@JONAH@@UAE@XZ
       7828  4A6 00499B90 ??1XPrivateKeyUsagePeriod@JONAH@@UAE@XZ
       7829  4A7 007A22B0 ??1XmlLog@@UAE@XZ
       7830  4A8 007A3610 ??1XmlReformatter@@UAE@XZ
       7831  4A9 0048E9D0 ??1asn_AVA@JONAH@@UAE@XZ
       7832  4AA 004941B0 ??1asn_RDN@JONAH@@UAE@XZ
       7833  4AB 0048E580 ??1asn_UTCtime@JONAH@@UAE@XZ
       7834  4AC 0048E580 ??1asn_UTF8String@JONAH@@UAE@XZ
       7835  4AD 005C4240 ??1asn_any@JONAH@@UAE@XZ
       7836  4AE 0048CE90 ??1asn_bitstring@JONAH@@UAE@XZ
       7837  4AF 0048E580 ??1asn_bmpString@JONAH@@UAE@XZ
       7838  4B0 0048CB20 ??1asn_boolean@JONAH@@UAE@XZ
       7839  4B1 0048E580 ??1asn_charstring@JONAH@@UAE@XZ
       7840  4B2 0048DF70 ??1asn_choice@JONAH@@UAE@XZ
       7841  4B3 005C3290 ??1asn_composite@JONAH@@UAE@XZ
       7842  4B4 0048E580 ??1asn_directoryString@JONAH@@UAE@XZ
       7843  4B5 005800F0 ??1asn_enumerated@JONAH@@UAE@XZ
       7844  4B6 0048E580 ??1asn_generalizedtime@JONAH@@UAE@XZ
       7845  4B7 0048E580 ??1asn_ia5String@JONAH@@UAE@XZ
       7846  4B8 005800F0 ??1asn_integer@JONAH@@UAE@XZ
       7847  4B9 0048CE90 ??1asn_namedbits@JONAH@@UAE@XZ
       7848  4BA 0048CB20 ??1asn_nothing@JONAH@@UAE@XZ
       7849  4BB 0048CB20 ??1asn_null@JONAH@@UAE@XZ
       7850  4BC 005C2DF0 ??1asn_object@JONAH@@UAE@XZ
       7851  4BD 0048E580 ??1asn_octetstring@JONAH@@UAE@XZ
       7852  4BE 005C5600 ??1asn_oid@JONAH@@UAE@XZ
       7853  4BF 0048CB20 ??1asn_primitive@JONAH@@UAE@XZ
       7854  4C0 0048E580 ??1asn_printableString@JONAH@@UAE@XZ
       7855  4C1 0048D7B0 ??1asn_sequence@JONAH@@UAE@XZ
       7856  4C2 0048DB60 ??1asn_set@JONAH@@UAE@XZ
       7857  4C3 005C4180 ??1asn_sorted@JONAH@@UAE@XZ
       7858  4C4 0048E580 ??1asn_teletexString@JONAH@@UAE@XZ
       7859  4C5 0048E580 ??1asn_universalString@JONAH@@UAE@XZ
       7860  4C6 0048E580 ??1asn_visibleString@JONAH@@UAE@XZ
       7861  4C7 00494330 ??1asn_x500name@JONAH@@UAE@XZ
       7862  4C8 005C5B10 ??1bigUInt@@UAE@XZ
       7863  4C9 005C1DD0 ??1buffer_t@JONAH@@UAE@XZ
       7864  4CA 0074ED80 ??1encQueue@@QAE@XZ
       7865  4CB 0048C610 ??1jonah_assignment_exception@JONAH@@UAE@XZ
       7866  4CC 005BCD70 ??1jonah_base_class@JONAH@@UAE@XZ
       7867  4CD 0048C610 ??1jonah_exception@JONAH@@UAE@XZ
       7868  4CE 0048C610 ??1jonah_memory_exception@JONAH@@UAE@XZ
       7869  4CF 0048C610 ??1jonah_syntax_exception@JONAH@@UAE@XZ
       7870  4D0 005931E0 ??1lsasn1@JONAH@@UAE@XZ
       7871  4D1 0048C970 ??1memory_funcs_t@JONAH@@UAE@XZ
       7872  4D2 0048C7E0 ??1objType_t@JONAH@@UAE@XZ
       7873  4D3 00491770 ??1pkcs_12PbeParams@JONAH@@UAE@XZ
       7874  4D4 0048C730 ??1r_buffer_t@JONAH@@UAE@XZ
       7875  4D5 0048F760 ??1x509_Extension@JONAH@@UAE@XZ
       7876  4D6 00499070 ??1x509_Extensions@JONAH@@UAE@XZ
       7877  4D7 004A27F0 ??1x509_certificate@JONAH@@UAE@XZ
       7878  4D8 005BCD00 ??2jonah_base_class@JONAH@@SAPAXI@Z
       7879  4D9 000488C0 ??3jonah_base_class@JONAH@@SAXPAXI@Z
       7880  4DA 005C7050 ??4JonahTime@JONAH@@QAEAAV01@ABV01@@Z
       7881  4DB 007E0C40 ??4SmartMemoryObject@@QAEAAV0@ABV0@@Z
       7882  4DC 005C3100 ??4asn_integer@JONAH@@QAEAAV01@ABV01@@Z
       7883  4DD 005C3D00 ??4asn_oid@JONAH@@QAEAAV01@ABV01@@Z
       7884  4DE 005C61F0 ??4bigUInt@@QAEAAV0@ABV0@@Z
       7885  4DF 005C5C10 ??4bigUInt@@QAEAAV0@ABVasn_integer@JONAH@@@Z
       7886  4E0 005C6100 ??4bigUInt@@QAEAAV0@I@Z
       7887  4E1 005BDA00 ??4r_buffer_t@JONAH@@QAEAAV01@ABV01@@Z
       7888  4E2 0048EB00 ??8GeneralName@JONAH@@UBE_NABVasn_object@1@@Z
       7889  4E3 005C6C50 ??8JonahTime@JONAH@@QBE_NABV01@@Z
       7890  4E4 0048EB00 ??8JonahTime@JONAH@@UBE_NABVasn_object@1@@Z
       7891  4E5 005B8760 ??8asn_AVA@JONAH@@QBE_NABV01@@Z
       7892  4E6 0048EB00 ??8asn_AVA@JONAH@@UBE_NABVasn_object@1@@Z
       7893  4E7 005B9430 ??8asn_RDN@JONAH@@QBE_NABV01@@Z
       7894  4E8 0048EB00 ??8asn_RDN@JONAH@@UBE_NABVasn_object@1@@Z
       7895  4E9 005C21A0 ??8asn_object@JONAH@@UBE_NABV01@@Z
       7896  4EA 005C33F0 ??8asn_oid@JONAH@@QBE_NABV01@@Z
       7897  4EB 0048EB00 ??8asn_oid@JONAH@@UBE_NABVasn_object@1@@Z
       7898  4EC 005BA570 ??8asn_x500name@JONAH@@QBE_NABV01@@Z
       7899  4ED 0048EB00 ??8asn_x500name@JONAH@@UBE_NABVasn_object@1@@Z
       7900  4EE 005C6010 ??8bigUInt@@QBEHABV0@@Z
       7901  4EF 005BDA30 ??8r_buffer_t@JONAH@@QBE_NABV01@@Z
       7902  4F0 0048EA70 ??9asn_AVA@JONAH@@QBE_NABV01@@Z
       7903  4F1 0048EB10 ??9asn_RDN@JONAH@@QBE_NABV01@@Z
       7904  4F2 005C3480 ??9asn_oid@JONAH@@QBE_NABV01@@Z
       7905  4F3 0048EB30 ??9asn_x500name@JONAH@@QBE_NABV01@@Z
       7906  4F4 005C60C0 ??9bigUInt@@QBEHABV0@@Z
       7907  4F5 00494830 ??A?$asn_sequenceof@VAttributeTypeAndValue@JONAH@@@JONAH@@QBEPAVAttributeTypeAndValue@1@I@Z
       7908  4F6 00494830 ??A?$asn_sequenceof@VCertId@JONAH@@@JONAH@@QBEPAVCertId@1@I@Z
       7909  4F7 00494830 ??A?$asn_sequenceof@VCertReqMsg@JONAH@@@JONAH@@QBEPAVCertReqMsg@1@I@Z
       7910  4F8 00494830 ??A?$asn_sequenceof@VCertResponse@JONAH@@@JONAH@@QBEPAVCertResponse@1@I@Z
       7911  4F9 00494830 ??A?$asn_sequenceof@VCertificateList@JONAH@@@JONAH@@QBEPAVCertificateList@1@I@Z
       7912  4FA 00494830 ??A?$asn_sequenceof@VCertificateRequest@JONAH@@@JONAH@@QBEPAVCertificateRequest@1@I@Z
       7913  4FB 00494830 ??A?$asn_sequenceof@VCertifiedKeyPair@JONAH@@@JONAH@@QBEPAVCertifiedKeyPair@1@I@Z
       7914  4FC 00494830 ??A?$asn_sequenceof@VChallenge@JONAH@@@JONAH@@QBEPAVChallenge@1@I@Z
       7915  4FD 00494830 ??A?$asn_sequenceof@VContentInfo@JONAH@@@JONAH@@QBEPAVContentInfo@1@I@Z
       7916  4FE 00494830 ??A?$asn_sequenceof@VGeneralName@JONAH@@@JONAH@@QBEPAVGeneralName@1@I@Z
       7917  4FF 00494830 ??A?$asn_sequenceof@VGeneralSubtree@JONAH@@@JONAH@@QBEPAVGeneralSubtree@1@I@Z
       7918  500 00494830 ??A?$asn_sequenceof@VInfoTypeAndValue@JONAH@@@JONAH@@QBEPAVInfoTypeAndValue@1@I@Z
       7919  501 00494830 ??A?$asn_sequenceof@VPKIStatusInfo@JONAH@@@JONAH@@QBEPAVPKIStatusInfo@1@I@Z
       7920  502 00494830 ??A?$asn_sequenceof@VPolicyInformation@JONAH@@@JONAH@@QBEPAVPolicyInformation@1@I@Z
       7921  503 00494830 ??A?$asn_sequenceof@VPolicyMapping@JONAH@@@JONAH@@QBEPAVPolicyMapping@1@I@Z
       7922  504 00494830 ??A?$asn_sequenceof@VPolicyQualifierInfo@JONAH@@@JONAH@@QBEPAVPolicyQualifierInfo@1@I@Z
       7923  505 00494830 ??A?$asn_sequenceof@VPrivateKeyInfo@JONAH@@@JONAH@@QBEPAVPrivateKeyInfo@1@I@Z
       7924  506 00494830 ??A?$asn_sequenceof@VRecipientInfo@JONAH@@@JONAH@@QBEPAVRecipientInfo@1@I@Z
       7925  507 00494830 ??A?$asn_sequenceof@VRevDetails@JONAH@@@JONAH@@QBEPAVRevDetails@1@I@Z
       7926  508 00494830 ??A?$asn_sequenceof@VRevocationRequest@JONAH@@@JONAH@@QBEPAVRevocationRequest@1@I@Z
       7927  509 00494830 ??A?$asn_sequenceof@VRevokedCertificate@JONAH@@@JONAH@@QBEPAVRevokedCertificate@1@I@Z
       7928  50A 00494830 ??A?$asn_sequenceof@VSafeBag@JONAH@@@JONAH@@QBEPAVSafeBag@1@I@Z
       7929  50B 00494830 ??A?$asn_sequenceof@VSinglePubInfo@JONAH@@@JONAH@@QBEPAVSinglePubInfo@1@I@Z
       7930  50C 00494830 ??A?$asn_sequenceof@Vasn_RDN@JONAH@@@JONAH@@QBEPAVasn_RDN@1@I@Z
       7931  50D 00494830 ??A?$asn_sequenceof@Vasn_UTF8String@JONAH@@@JONAH@@QBEPAVasn_UTF8String@1@I@Z
       7932  50E 00494830 ??A?$asn_sequenceof@Vasn_integer@JONAH@@@JONAH@@QBEPAVasn_integer@1@I@Z
       7933  50F 00494830 ??A?$asn_sequenceof@Vx509_Extension@JONAH@@@JONAH@@QBEPAVx509_Extension@1@I@Z
       7934  510 00494830 ??A?$asn_sequenceof@Vx509_certificate@JONAH@@@JONAH@@QBEPAVx509_certificate@1@I@Z
       7935  511 00494830 ??A?$asn_setof@VAlgorithmIdentifier@JONAH@@@JONAH@@QBEPAVAlgorithmIdentifier@1@I@Z
       7936  512 00494830 ??A?$asn_setof@VAliasWithTag@JONAH@@@JONAH@@QBEPAVAliasWithTag@1@I@Z
       7937  513 00494830 ??A?$asn_setof@VAttribute@JONAH@@@JONAH@@QBEPAVAttribute@1@I@Z
       7938  514 00494830 ??A?$asn_setof@VCertificateList@JONAH@@@JONAH@@QBEPAVCertificateList@1@I@Z
       7939  515 00494830 ??A?$asn_setof@VHostIdMappingValue@JONAH@@@JONAH@@QBEPAVHostIdMappingValue@1@I@Z
       7940  516 00494830 ??A?$asn_setof@VSignerInfo@JONAH@@@JONAH@@QBEPAVSignerInfo@1@I@Z
       7941  517 00494830 ??A?$asn_setof@Vasn_AVA@JONAH@@@JONAH@@QBEPAVasn_AVA@1@I@Z
       7942  518 00494830 ??A?$asn_setof@Vasn_octetstring@JONAH@@@JONAH@@QBEPAVasn_octetstring@1@I@Z
       7943  519 00494830 ??A?$asn_setof@Vx509_certificate@JONAH@@@JONAH@@QBEPAVx509_certificate@1@I@Z
       7944  51A 005C3140 ??Aasn_composite@JONAH@@QBEPAVasn_object@1@I@Z
       7945  51B 0048C740 ??Ar_buffer_t@JONAH@@QAEAAEI@Z
       7946  51C 0048C740 ??Ar_buffer_t@JONAH@@QBEABEI@Z
       7947  51D 005C6DC0 ??GJonahTime@JONAH@@QAE?AVdelta_time_t@1@ABV01@@Z
       7948  51E 005C6BB0 ??MJonahTime@JONAH@@QBE_NABV01@@Z
       7949  51F 005C6510 ??MbigUInt@@QBEHABV0@@Z
       7950  520 005C6610 ??NbigUInt@@QBEHABV0@@Z
       7951  521 005C6C00 ??OJonahTime@JONAH@@QBE_NABV01@@Z
       7952  522 005C6490 ??ObigUInt@@QBEHABV0@@Z
       7953  523 005C6CA0 ??PJonahTime@JONAH@@QBE_NABV01@@Z
       7954  524 005C6CF0 ??PJonahTime@JONAH@@QBE_NABVasn_generalizedtime@1@@Z
       7955  525 005C6590 ??PbigUInt@@QBEHABV0@@Z
       7956  526 005C5F80 ??XbigUInt@@QAEAAV0@ABV0@@Z
       7957  527 005C7140 ??YJonahTime@JONAH@@QAEAAV01@ABVdelta_time_t@1@@Z
       7958  528 005C5CE0 ??YbigUInt@@QAEAAV0@ABV0@@Z
       7959  529 005C71E0 ??ZJonahTime@JONAH@@QAEAAV01@ABVdelta_time_t@1@@Z
       7960  52A 005C5F80 ??ZbigUInt@@QAEAAV0@ABV0@@Z
       7961  52B 005C5F80 ??_0bigUInt@@QAEAAV0@ABV0@@Z
       7962  52C 01356C84 ??_7?$AutoHeap@V?$asn_sequenceof@VGeneralName@JONAH@@@JONAH@@@JONAH@@6B@
       7963  52D 01356C6C ??_7?$AutoHeap@V?$asn_sequenceof@Vasn_oid@JONAH@@@JONAH@@@JONAH@@6B@
       7964  52E 01356C54 ??_7?$AutoHeap@VCMBlob@JONAH@@@JONAH@@6B@
       7965  52F 0135CCE4 ??_7?$AutoHeap@VCertificateRequest@JONAH@@@JONAH@@6B@
       7966  530 01356C9C ??_7?$AutoHeap@VCertificationRequest@JONAH@@@JONAH@@6B@
       7967  531 0135CE8C ??_7?$AutoHeap@VContentInfo@JONAH@@@JONAH@@6B@
       7968  532 01356C5C ??_7?$AutoHeap@VJonahTime@JONAH@@@JONAH@@6B@
       7969  533 0135CD98 ??_7?$AutoHeap@VPFX@JONAH@@@JONAH@@6B@
       7970  534 0135CDA8 ??_7?$AutoHeap@VPrivateKeyInfo@JONAH@@@JONAH@@6B@
       7971  535 0136EB40 ??_7?$AutoHeap@VQueryCache@@@JONAH@@6B@
       7972  536 0136EB48 ??_7?$AutoHeap@VVertex@@@JONAH@@6B@
       7973  537 01356C74 ??_7?$AutoHeap@VXBasicConstraints@JONAH@@@JONAH@@6B@
       7974  538 01356C64 ??_7?$AutoHeap@VXKeyUsage@JONAH@@@JONAH@@6B@
       7975  539 01356C7C ??_7?$AutoHeap@VXNameConstraints@JONAH@@@JONAH@@6B@
       7976  53A 01356C8C ??_7?$AutoHeap@VXNotesAliasNames@JONAH@@@JONAH@@6B@
       7977  53B 01356C94 ??_7?$AutoHeap@Vasn_oid@JONAH@@@JONAH@@6B@
       7978  53C 0135CDA0 ??_7?$AutoHeap@Vx509_certificate@JONAH@@@JONAH@@6B@
       7979  53D 01356AC4 ??_7?$asn_explicit@V?$asn_sequenceof@VCertificateRequest@JONAH@@@JONAH@@$01$0A@@JONAH@@6B@
       7980  53E 01356B8C ??_7?$asn_explicit@V?$asn_sequenceof@VRevocationRequest@JONAH@@@JONAH@@$01$00@JONAH@@6B@
       7981  53F 01356464 ??_7?$asn_explicit@V?$asn_setof@VAliasWithTag@JONAH@@@JONAH@@$01$00@JONAH@@6B@
       7982  540 01355C84 ??_7?$asn_explicit@VAlgorithmIdentifier@JONAH@@$01$00@JONAH@@6B@
       7983  541 01354AD4 ??_7?$asn_explicit@VAlgorithmIdentifier@JONAH@@$01$0A@@JONAH@@6B@
       7984  542 0135AEC4 ??_7?$asn_explicit@VCAKeyUpdAnnContent@JONAH@@$01$0P@@JONAH@@6B@
       7985  543 0135A884 ??_7?$asn_explicit@VCALdapPostInfo@JONAH@@$01$0A@@JONAH@@6B@
       7986  544 013586CC ??_7?$asn_explicit@VCRLAnnContent@JONAH@@$01$00@JONAH@@6B@
       7987  545 013591BC ??_7?$asn_explicit@VCRLAnnContent@JONAH@@$01$0BC@@JONAH@@6B@
       7988  546 0135A564 ??_7?$asn_explicit@VCertId@JONAH@@$01$00@JONAH@@6B@
       7989  547 01358604 ??_7?$asn_explicit@VCertIds@JONAH@@$01$0A@@JONAH@@6B@
       7990  548 0135AA14 ??_7?$asn_explicit@VCertRepMessage@JONAH@@$01$00@JONAH@@6B@
       7991  549 0135AADC ??_7?$asn_explicit@VCertRepMessage@JONAH@@$01$02@JONAH@@6B@
       7992  54A 0135AC6C ??_7?$asn_explicit@VCertRepMessage@JONAH@@$01$07@JONAH@@6B@
       7993  54B 0135ADFC ??_7?$asn_explicit@VCertRepMessage@JONAH@@$01$0O@@JONAH@@6B@
       7994  54C 01358C44 ??_7?$asn_explicit@VCertReqMessages@JONAH@@$01$01@JONAH@@6B@
       7995  54D 01358E9C ??_7?$asn_explicit@VCertReqMessages@JONAH@@$01$06@JONAH@@6B@
       7996  54E 01358F64 ??_7?$asn_explicit@VCertReqMessages@JONAH@@$01$08@JONAH@@6B@
       7997  54F 01358B7C ??_7?$asn_explicit@VCertReqMessages@JONAH@@$01$0A@@JONAH@@6B@
       7998  550 013590F4 ??_7?$asn_explicit@VCertReqMessages@JONAH@@$01$0N@@JONAH@@6B@
       7999  551 01358474 ??_7?$asn_explicit@VCertificates@JONAH@@$01$00@JONAH@@6B@
       8000  552 0135ABA4 ??_7?$asn_explicit@VCertificationRequest@JONAH@@$01$03@JONAH@@6B@
       8001  553 0135853C ??_7?$asn_explicit@VCertifiedKeyPairs@JONAH@@$01$01@JONAH@@6B@
       8002  554 012F039C ??_7?$asn_explicit@VContent@JONAH@@$01$0A@@JONAH@@6B@
       8003  555 012F02D4 ??_7?$asn_explicit@VDistributionPointName@JONAH@@$01$0A@@JONAH@@6B@
       8004  556 0135A6F4 ??_7?$asn_explicit@VEncryptedKey@JONAH@@$01$0A@@JONAH@@6B@
       8005  557 0135821C ??_7?$asn_explicit@VEncryptedValue@JONAH@@$01$00@JONAH@@6B@
       8006  558 013582E4 ??_7?$asn_explicit@VEncryptedValue@JONAH@@$01$0A@@JONAH@@6B@
       8007  559 01358794 ??_7?$asn_explicit@VEnvelopedData@JONAH@@$01$0A@@JONAH@@6B@
       8008  55A 01359414 ??_7?$asn_explicit@VErrorMsgContent@JONAH@@$01$0BH@@JONAH@@6B@
       8009  55B 0135A7BC ??_7?$asn_explicit@VGeneralName@JONAH@@$01$0A@@JONAH@@6B@
       8010  55C 01358AB4 ??_7?$asn_explicit@VInfoTypesAndValues@JONAH@@$01$07@JONAH@@6B@
       8011  55D 01359284 ??_7?$asn_explicit@VInfoTypesAndValues@JONAH@@$01$0BF@@JONAH@@6B@
       8012  55E 0135934C ??_7?$asn_explicit@VInfoTypesAndValues@JONAH@@$01$0BG@@JONAH@@6B@
       8013  55F 013541FC ??_7?$asn_explicit@VJonahTime@JONAH@@$01$00@JONAH@@6B@
       8014  560 01354134 ??_7?$asn_explicit@VJonahTime@JONAH@@$01$0A@@JONAH@@6B@
       8015  561 0135BE64 ??_7?$asn_explicit@VKeyRecRepContent@JONAH@@$01$09@JONAH@@6B@
       8016  562 0135652C ??_7?$asn_explicit@VNotesLicenseExt@JONAH@@$01$00@JONAH@@6B@
       8017  563 013589EC ??_7?$asn_explicit@VPKIFreeText@JONAH@@$01$06@JONAH@@6B@
       8018  564 013583AC ??_7?$asn_explicit@VPKIPublicationInfo@JONAH@@$01$00@JONAH@@6B@
       8019  565 01358D0C ??_7?$asn_explicit@VPOPODecKeyChallContent@JONAH@@$01$04@JONAH@@6B@
       8020  566 01358DD4 ??_7?$asn_explicit@VPOPODecKeyRespContent@JONAH@@$01$05@JONAH@@6B@
       8021  567 0135885C ??_7?$asn_explicit@VPOPOPrivKey@JONAH@@$01$01@JONAH@@6B@
       8022  568 01358924 ??_7?$asn_explicit@VPOPOPrivKey@JONAH@@$01$02@JONAH@@6B@
       8067  569 0135BD9C ??_7?$asn_explicit@VRACCertPkiConfirmWarp@JONAH@@$01$02@JONAH@@6B@
       8069  56A 0135A94C ??_7?$asn_explicit@VRACCertWarp@JONAH@@$01$00@JONAH@@6B@
       8070  56B 0135B054 ??_7?$asn_explicit@VRevAnnContent@JONAH@@$01$0BB@@JONAH@@6B@
       8071  56C 0135AD34 ??_7?$asn_explicit@VRevRepContent@JONAH@@$01$0M@@JONAH@@6B@
       8072  56D 0135902C ??_7?$asn_explicit@VRevReqContent@JONAH@@$01$0L@@JONAH@@6B@
       8073  56E 012EEB94 ??_7?$asn_explicit@VSignedContent@JONAH@@$01$0A@@JONAH@@6B@
       8074  56F 0135554C ??_7?$asn_explicit@VSubsequentMessage@JONAH@@$01$00@JONAH@@6B@
       8075  570 0135684C ??_7?$asn_explicit@Vasn_UTF8String@JONAH@@$01$02@JONAH@@6B@
       8076  571 013565F4 ??_7?$asn_explicit@Vasn_UTF8String@JONAH@@$01$0A@@JONAH@@6B@
       8077  572 01355954 ??_7?$asn_explicit@Vasn_any@JONAH@@$01$01@JONAH@@6B@
       8078  573 01355A1C ??_7?$asn_explicit@Vasn_any@JONAH@@$01$03@JONAH@@6B@
       8079  574 012ED134 ??_7?$asn_explicit@Vasn_any@JONAH@@$01$0A@@JONAH@@6B@
       8080  575 013561FC ??_7?$asn_explicit@Vasn_any@JONAH@@$01$0BE@@JONAH@@6B@
       8081  576 01355614 ??_7?$asn_explicit@Vasn_bitstring@JONAH@@$01$01@JONAH@@6B@
       8082  577 01355484 ??_7?$asn_explicit@Vasn_bitstring@JONAH@@$01$0A@@JONAH@@6B@
       8083  578 01356784 ??_7?$asn_explicit@Vasn_boolean@JONAH@@$01$00@JONAH@@6B@
       8084  579 013553BC ??_7?$asn_explicit@Vasn_boolean@JONAH@@$01$01@JONAH@@6B@
       8085  57A 013566BC ??_7?$asn_explicit@Vasn_boolean@JONAH@@$01$0A@@JONAH@@6B@
       8086  57B 012EACBC ??_7?$asn_explicit@Vasn_directoryString@JONAH@@$01$00@JONAH@@6B@
       8087  57C 012EABF4 ??_7?$asn_explicit@Vasn_directoryString@JONAH@@$01$0A@@JONAH@@6B@
       8088  57D 01355BBC ??_7?$asn_explicit@Vasn_generalizedtime@JONAH@@$01$0A@@JONAH@@6B@
       8089  57E 0135639C ??_7?$asn_explicit@Vasn_ia5String@JONAH@@$01$0A@@JONAH@@6B@
       8090  57F 012EA8C4 ??_7?$asn_explicit@Vasn_integer@JONAH@@$01$0A@@JONAH@@6B@
       8091  580 01356134 ??_7?$asn_explicit@Vasn_null@JONAH@@$01$0BD@@JONAH@@6B@
       8092  581 013552F4 ??_7?$asn_explicit@Vasn_octetstring@JONAH@@$01$00@JONAH@@6B@
       8093  582 01355D4C ??_7?$asn_explicit@Vasn_octetstring@JONAH@@$01$01@JONAH@@6B@
       8094  583 01355E14 ??_7?$asn_explicit@Vasn_octetstring@JONAH@@$01$02@JONAH@@6B@
       8095  584 01355EDC ??_7?$asn_explicit@Vasn_octetstring@JONAH@@$01$03@JONAH@@6B@
       8096  585 01355FA4 ??_7?$asn_explicit@Vasn_octetstring@JONAH@@$01$04@JONAH@@6B@
       8097  586 0135606C ??_7?$asn_explicit@Vasn_octetstring@JONAH@@$01$05@JONAH@@6B@
       8098  587 012ECB5C ??_7?$asn_explicit@Vasn_octetstring@JONAH@@$01$0A@@JONAH@@6B@
       8099  588 0135438C ??_7?$asn_explicit@Vasn_x500name@JONAH@@$01$02@JONAH@@6B@
       8100  589 012EAF14 ??_7?$asn_explicit@Vasn_x500name@JONAH@@$01$03@JONAH@@6B@
       8101  58A 01354454 ??_7?$asn_explicit@Vasn_x500name@JONAH@@$01$04@JONAH@@6B@
       8102  58B 012EE554 ??_7?$asn_explicit@Vx509_Extensions@JONAH@@$01$02@JONAH@@6B@
       8103  58C 012EE7AC ??_7?$asn_explicit@Vx509_Extensions@JONAH@@$01$0A@@JONAH@@6B@
       8104  58D 0135A62C ??_7?$asn_explicit@Vx509_certificate@JONAH@@$01$0A@@JONAH@@6B@
       8110  58E 0135AF8C ??_7?$asn_explicit@Vx509_certificate@JONAH@@$01$0BA@@JONAH@@6B@
       8111  58F 012EB3D4 ??_7?$asn_implicit@V?$asn_sequenceof@VGeneralName@JONAH@@@JONAH@@$01$00@JONAH@@6B@
       8112  590 012EBFDC ??_7?$asn_implicit@V?$asn_sequenceof@VGeneralName@JONAH@@@JONAH@@$01$01@JONAH@@6B@
       8113  591 012EBE4C ??_7?$asn_implicit@V?$asn_sequenceof@VGeneralName@JONAH@@@JONAH@@$01$0A@@JONAH@@6B@
       8114  592 012EBD84 ??_7?$asn_implicit@V?$asn_sequenceof@VGeneralSubtree@JONAH@@@JONAH@@$01$00@JONAH@@6B@
       8115  593 012EBCBC ??_7?$asn_implicit@V?$asn_sequenceof@VGeneralSubtree@JONAH@@@JONAH@@$01$0A@@JONAH@@6B@
       8116  594 01354D3C ??_7?$asn_implicit@VAlgorithmIdentifier@JONAH@@$01$00@JONAH@@6B@
       8117  595 013542C4 ??_7?$asn_implicit@VAlgorithmIdentifier@JONAH@@$01$01@JONAH@@6B@
       8118  596 01354E04 ??_7?$asn_implicit@VAlgorithmIdentifier@JONAH@@$01$02@JONAH@@6B@
       8119  597 01354C74 ??_7?$asn_implicit@VAlgorithmIdentifier@JONAH@@$01$0A@@JONAH@@6B@
       8120  598 012EE93C ??_7?$asn_implicit@VAttributes@JONAH@@$01$00@JONAH@@6B@
       8121  599 012EE874 ??_7?$asn_implicit@VAttributes@JONAH@@$01$0A@@JONAH@@6B@
       8122  59A 012EEACC ??_7?$asn_implicit@VCertRevocationLists@JONAH@@$01$00@JONAH@@6B@
       8123  59B 012EE61C ??_7?$asn_implicit@VEDIPartyName@JONAH@@$01$04@JONAH@@6B@
       8124  59C 012EEA04 ??_7?$asn_implicit@VExtendedCertsAndCertificates@JONAH@@$01$0A@@JONAH@@6B@
       8125  59D 0135808C ??_7?$asn_implicit@VOptionalValidity@JONAH@@$01$03@JONAH@@6B@
       8126  59E 0135C574 ??_7?$asn_implicit@VPOPOSigningKey@JONAH@@$01$00@JONAH@@6B@
       8127  59F 0135BCD4 ??_7?$asn_implicit@VPOPOSigningKeyInput@JONAH@@$01$0A@@JONAH@@6B@
       8128  5A0 012EBF14 ??_7?$asn_implicit@VReasonFlags@JONAH@@$01$00@JONAH@@6B@
       8129  5A1 012EC594 ??_7?$asn_implicit@VReasonFlags@JONAH@@$01$02@JONAH@@6B@
       8130  5A2 0135451C ??_7?$asn_implicit@VSubjectPublicKeyInfo@JONAH@@$01$05@JONAH@@6B@
       8161  5A3 012EE6E4 ??_7?$asn_implicit@Vasn_RDN@JONAH@@$01$00@JONAH@@6B@
       8213  5A4 012EAA64 ??_7?$asn_implicit@Vasn_bitstring@JONAH@@$01$00@JONAH@@6B@
       8214  5A5 012EAB2C ??_7?$asn_implicit@Vasn_bitstring@JONAH@@$01$01@JONAH@@6B@
       8215  5A6 013545E4 ??_7?$asn_implicit@Vasn_bitstring@JONAH@@$01$06@JONAH@@6B@
       8216  5A7 013546AC ??_7?$asn_implicit@Vasn_bitstring@JONAH@@$01$07@JONAH@@6B@
       8217  5A8 012EC404 ??_7?$asn_implicit@Vasn_boolean@JONAH@@$01$00@JONAH@@6B@
       8218  5A9 012EC4CC ??_7?$asn_implicit@Vasn_boolean@JONAH@@$01$01@JONAH@@6B@
       8219  5AA 012EC65C ??_7?$asn_implicit@Vasn_boolean@JONAH@@$01$03@JONAH@@6B@
       8220  5AB 012EB62C ??_7?$asn_implicit@Vasn_generalizedtime@JONAH@@$01$00@JONAH@@6B@
       8222  5AC 012EB564 ??_7?$asn_implicit@Vasn_generalizedtime@JONAH@@$01$0A@@JONAH@@6B@
       8223  5AD 012EAD84 ??_7?$asn_implicit@Vasn_ia5String@JONAH@@$01$00@JONAH@@6B@
       8225  5AE 012EAE4C ??_7?$asn_implicit@Vasn_ia5String@JONAH@@$01$01@JONAH@@6B@
       8226  5AF 012EAFDC ??_7?$asn_implicit@Vasn_ia5String@JONAH@@$01$05@JONAH@@6B@
       8285  5B0 012EBB1C ??_7?$asn_implicit@Vasn_integer@JONAH@@$01$00@JONAH@@6B@
       8290  5B1 012EB49C ??_7?$asn_implicit@Vasn_integer@JONAH@@$01$01@JONAH@@6B@
       8291  5B2 012EBA54 ??_7?$asn_implicit@Vasn_integer@JONAH@@$01$0A@@JONAH@@6B@
       8292  5B3 013556DC ??_7?$asn_implicit@Vasn_null@JONAH@@$01$0A@@JONAH@@6B@
       8293  5B4 01354ECC ??_7?$asn_implicit@Vasn_octetstring@JONAH@@$01$03@JONAH@@6B@
       8294  5B5 012EB0A4 ??_7?$asn_implicit@Vasn_octetstring@JONAH@@$01$06@JONAH@@6B@
       8295  5B6 012EB30C ??_7?$asn_implicit@Vasn_octetstring@JONAH@@$01$0A@@JONAH@@6B@
       8296  5B7 012EB16C ??_7?$asn_implicit@Vasn_oid@JONAH@@$01$07@JONAH@@6B@
       8297  5B8 01358154 ??_7?$asn_implicit@Vx509_Extensions@JONAH@@$01$08@JONAH@@6B@
       8298  5B9 013557A4 ??_7?$asn_sequenceof@VAttributeTypeAndValue@JONAH@@@JONAH@@6B@
       8307  5BA 013549FC ??_7?$asn_sequenceof@VCertId@JONAH@@@JONAH@@6B@
       8308  5BB 0135587C ??_7?$asn_sequenceof@VCertReqMsg@JONAH@@@JONAH@@6B@
       8309  5BC 0135506C ??_7?$asn_sequenceof@VCertResponse@JONAH@@@JONAH@@6B@
       8310  5BD 0135521C ??_7?$asn_sequenceof@VCertificateList@JONAH@@@JONAH@@6B@
       8311  5BE 01356914 ??_7?$asn_sequenceof@VCertificateRequest@JONAH@@@JONAH@@6B@
       8312  5BF 01354F94 ??_7?$asn_sequenceof@VCertifiedKeyPair@JONAH@@@JONAH@@6B@
       8313  5C0 01354B9C ??_7?$asn_sequenceof@VChallenge@JONAH@@@JONAH@@6B@
       8314  5C1 012ED05C ??_7?$asn_sequenceof@VContentInfo@JONAH@@@JONAH@@6B@
       8315  5C2 012EB234 ??_7?$asn_sequenceof@VGeneralName@JONAH@@@JONAH@@6B@
       8316  5C3 012EBBE4 ??_7?$asn_sequenceof@VGeneralSubtree@JONAH@@@JONAH@@6B@
       8317  5C4 01355AE4 ??_7?$asn_sequenceof@VInfoTypeAndValue@JONAH@@@JONAH@@6B@
       8318  5C5 01354924 ??_7?$asn_sequenceof@VPKIStatusInfo@JONAH@@@JONAH@@6B@
       8319  5C6 012EB8A4 ??_7?$asn_sequenceof@VPolicyInformation@JONAH@@@JONAH@@6B@
       8320  5C7 012EB97C ??_7?$asn_sequenceof@VPolicyMapping@JONAH@@@JONAH@@6B@
       8321  5C8 012EB7CC ??_7?$asn_sequenceof@VPolicyQualifierInfo@JONAH@@@JONAH@@6B@
       8322  5C9 012ECF84 ??_7?$asn_sequenceof@VPrivateKeyInfo@JONAH@@@JONAH@@6B@
       8323  5CA 012ECA84 ??_7?$asn_sequenceof@VRecipientInfo@JONAH@@@JONAH@@6B@
       8324  5CB 01355144 ??_7?$asn_sequenceof@VRevDetails@JONAH@@@JONAH@@6B@
       8325  5CC 013569EC ??_7?$asn_sequenceof@VRevocationRequest@JONAH@@@JONAH@@6B@
       8326  5CD 012EC32C ??_7?$asn_sequenceof@VRevokedCertificate@JONAH@@@JONAH@@6B@
       8327  5CE 012ED1FC ??_7?$asn_sequenceof@VSafeBag@JONAH@@@JONAH@@6B@
       8328  5CF 0135484C ??_7?$asn_sequenceof@VSinglePubInfo@JONAH@@@JONAH@@6B@
       8329  5D0 012EA7E4 ??_7?$asn_sequenceof@Vasn_RDN@JONAH@@@JONAH@@6B@
       8330  5D1 01354774 ??_7?$asn_sequenceof@Vasn_UTF8String@JONAH@@@JONAH@@6B@
       8331  5D2 012EB6F4 ??_7?$asn_sequenceof@Vasn_integer@JONAH@@@JONAH@@6B@
       8332  5D3 012EA98C ??_7?$asn_sequenceof@Vx509_Extension@JONAH@@@JONAH@@6B@
       8333  5D4 012EC8D4 ??_7?$asn_sequenceof@Vx509_certificate@JONAH@@@JONAH@@6B@
       8334  5D5 012ECCFC ??_7?$asn_setof@VAlgorithmIdentifier@JONAH@@@JONAH@@6B@
       8335  5D6 013562C4 ??_7?$asn_setof@VAliasWithTag@JONAH@@@JONAH@@6B@
       8336  5D7 012EC9AC ??_7?$asn_setof@VAttribute@JONAH@@@JONAH@@6B@
       8337  5D8 012ECEAC ??_7?$asn_setof@VCertificateList@JONAH@@@JONAH@@6B@
       8338  5D9 012EC724 ??_7?$asn_setof@VHostIdMappingValue@JONAH@@@JONAH@@6B@
       8339  5DA 012ECC24 ??_7?$asn_setof@VSignerInfo@JONAH@@@JONAH@@6B@
       8340  5DB 012EA704 ??_7?$asn_setof@Vasn_AVA@JONAH@@@JONAH@@6B@
       8341  5DC 012EC7FC ??_7?$asn_setof@Vasn_octetstring@JONAH@@@JONAH@@6B@
       8342  5DD 012ECDD4 ??_7?$asn_setof@Vx509_certificate@JONAH@@@JONAH@@6B@
       8343  5DE 012F06F4 ??_7AccessDescription@JONAH@@6B@
       8344  5DF 013536C4 ??_7Action@JONAH@@6B@
       8345  5E0 012E898C ??_7AlgorithmIdentifier@JONAH@@6B@
       8346  5E1 01353D6C ??_7AliasWithTag@JONAH@@6B@
       8347  5E2 01359744 ??_7Asn1Random@JONAH@@6B@
       8348  5E3 012E92BC ??_7Attribute@JONAH@@6B@
       8349  5E4 01353BC4 ??_7AttributeTypeAndValue@JONAH@@6B@
       8350  5E5 01357A8C ??_7AttributeTypesAndValues@JONAH@@6B@
       8351  5E6 012EDD1C ??_7Attributes@JONAH@@6B@
       8352  5E7 0135B674 ??_7AuthInfo@JONAH@@6B@
       8353  5E8 012EE364 ??_7AuthenticatedSafes@JONAH@@6B@
       8354  5E9 01359B64 ??_7CAKeyUpdAnnContent@JONAH@@6B@
       8355  5EA 01359E94 ??_7CALdapPostInfo@JONAH@@6B@
       8356  5EB 0135A38C ??_7CMBlob@JONAH@@6B@
       8357  5EC 0135A2B4 ??_7CMBlobBody@JONAH@@6B@
       8358  5ED 01357FA4 ??_7CMBlobHeader@JONAH@@6B@
       8359  5EE 013578DC ??_7CRLAnnContent@JONAH@@6B@
       8360  5EF 012EFF84 ??_7CRLBag@JONAH@@6B@
       8361  5F0 01353C8C ??_7CaLdapPostType@JONAH@@6B@
       8362  5F1 012EFEB4 ??_7CertBag@JONAH@@6B@
       8363  5F2 0135967C ??_7CertId@JONAH@@6B@
       8364  5F3 013571C4 ??_7CertIds@JONAH@@6B@
       8365  5F4 012EDC3C ??_7CertList@JONAH@@6B@
       8366  5F5 0135B234 ??_7CertOrEncCert@JONAH@@6B@
       8367  5F6 013598EC ??_7CertRepMessage@JONAH@@6B@
       8368  5F7 01357B74 ??_7CertReqMessages@JONAH@@6B@
       8369  5F8 0135C71C ??_7CertReqMsg@JONAH@@6B@
       8370  5F9 01359DCC ??_7CertRequest@JONAH@@6B@
       8371  5FA 0135B3E4 ??_7CertResponse@JONAH@@6B@
       8372  5FB 0135770C ??_7CertResponses@JONAH@@6B@
       8373  5FC 012EE1A4 ??_7CertRevocationLists@JONAH@@6B@
       8374  5FD 013594EC ??_7CertTemplate@JONAH@@6B@
       8375  5FE 012EF4BC ??_7CertificateList@JONAH@@6B@
       8376  5FF 012EF594 ??_7CertificatePair@JONAH@@6B@
       8377  600 0135C7E4 ??_7CertificateRequest@JONAH@@6B@
       8378  601 01357474 ??_7Certificates@JONAH@@6B@
       8379  602 012F020C ??_7CertificationRequest@JONAH@@6B@
       8380  603 012F0134 ??_7CertificationRequestInfo@JONAH@@6B@
       8381  604 0135B30C ??_7CertifiedKeyPair@JONAH@@6B@
       8382  605 01357624 ??_7CertifiedKeyPairs@JONAH@@6B@
       8383  606 0135980C ??_7Challenge@JONAH@@6B@
       8384  607 012F0A54 ??_7Content@JONAH@@6B@
       8385  608 012F0B24 ??_7ContentInfo@JONAH@@6B@
       8386  609 01353944 ??_7DHBMParameter@JONAH@@6B@
       8387  60A 012E91E4 ??_7DSAParams@JONAH@@6B@
       8388  60B 012EDFD4 ??_7DigestAlgorithmIdentifiers@JONAH@@6B@
       8389  60C 012EF9B4 ??_7DigestContentInfo@JONAH@@6B@
       8390  60D 012E9544 ??_7DigestInfo@JONAH@@6B@
       8391  60E 012EFA8C ??_7DigestedData@JONAH@@6B@
       8392  60F 012E8DB4 ??_7DisplayText@JONAH@@6B@
       8393  610 012F061C ??_7DistributionPoint@JONAH@@6B@
       8394  611 012EF31C ??_7DistributionPointName@JONAH@@6B@
       8395  612 012EEEE4 ??_7EDIPartyName@JONAH@@6B@
       8396  613 012EF734 ??_7EncryptedContentInfo@JONAH@@6B@
       8397  614 012EF804 ??_7EncryptedData@JONAH@@6B@
       8398  615 01359CF4 ??_7EncryptedKey@JONAH@@6B@
       8399  616 012E961C ??_7EncryptedPrivateKeyInfo@JONAH@@6B@
       8400  617 0135755C ??_7EncryptedValue@JONAH@@6B@
       8401  618 012EF8DC ??_7EnvelopedData@JONAH@@6B@
       8402  619 01357D4C ??_7ErrorMsgContent@JONAH@@6B@
       8403  61A 012EE0BC ??_7ExtendedCertsAndCertificates@JONAH@@6B@
       8404  61B 0135C03C ??_7GeneralInfoData@JONAH@@6B@
       8405  61C 012F0474 ??_7GeneralName@JONAH@@6B@
       8406  61D 012F054C ??_7GeneralSubtree@JONAH@@6B@
       8407  61E 012EF65C ??_7HostIdMappingValue@JONAH@@6B@
       8408  61F 012EDA8C ??_7HostIdMappings@JONAH@@6B@
       8409  620 0135C11C ??_7InfoTypeAndValue@JONAH@@6B@
       8410  621 01357C54 ??_7InfoTypesAndValues@JONAH@@6B@
       8411  622 012E9394 ??_7IssuerAndSerialNumber@JONAH@@6B@
       8412  623 01359F5C ??_7IssuerRAInfo@JONAH@@6B@
       8413  624 012E88B4 ??_7JonahTime@JONAH@@6B@
       8414  625 012EE284 ??_7KeyList@JONAH@@6B@
       8415  626 0135B4BC ??_7KeyRecRepContent@JONAH@@6B@
       8416  627 012E97C4 ??_7MacData@JONAH@@6B@
       8417  628 012E989C ??_7NetscapePublicKeyAndChallenge@JONAH@@6B@
       8418  629 012E9974 ??_7NetscapeSignedPublicKeyAndChallenge@JONAH@@6B@
       8419  62A 01353E44 ??_7NotesLicenseExt@JONAH@@6B@
       8420  62B 012ED4A4 ??_7NoticeReference@JONAH@@6B@
       8421  62C 0135B144 ??_7OOBCertHash@JONAH@@6B@
       8422  62D 01356CA4 ??_7OptionalValidity@JONAH@@6B@
       8423  62E 0135386C ??_7PBMParameter@JONAH@@6B@
       8424  62F 012F0BF4 ??_7PFX@JONAH@@6B@
       8425  630 0135B5A4 ??_7PKIArchiveOptions@JONAH@@6B@
       8426  631 0135C1EC ??_7PKIBody@JONAH@@6B@
       8427  632 01356D6C ??_7PKIFreeText@JONAH@@6B@
       8428  633 0135A0EC ??_7PKIHeader@JONAH@@6B@
       8429  634 0135C3A4 ??_7PKIMessage@JONAH@@6B@
       8430  635 01356F3C ??_7PKIPublicationInfo@JONAH@@6B@
       8431  636 01353A0C ??_7PKIStatus@JONAH@@6B@
       8432  637 01357014 ??_7PKIStatusInfo@JONAH@@6B@
       8433  638 013570DC ??_7PKIStatusInfos@JONAH@@6B@
       8434  639 01353AEC ??_7PKMACValue@JONAH@@6B@
       8435  63A 013572A4 ??_7POPODecKeyChallContent@JONAH@@6B@
       8436  63B 0135738C ??_7POPODecKeyRespContent@JONAH@@6B@
       8437  63C 013579BC ??_7POPOPrivKey@JONAH@@6B@
       8438  63D 0135BF64 ??_7POPOSigningKey@JONAH@@6B@
       8439  63E 0135B744 ??_7POPOSigningKeyInput@JONAH@@6B@
       8440  63F 012ED804 ??_7PolicyInformation@JONAH@@6B@
       8441  640 012E8E94 ??_7PolicyMapping@JONAH@@6B@
       8442  641 012ED654 ??_7PolicyQualifier@JONAH@@6B@
       8443  642 012ED72C ??_7PolicyQualifierInfo@JONAH@@6B@
       8444  643 012EFD14 ??_7PrivateKeyInfo@JONAH@@6B@
       8445  644 012EDB64 ??_7PrivateValues@JONAH@@6B@
       8446  645 0135C64C ??_7ProofOfPossesion@JONAH@@6B@
       8447  646 012E910C ??_7ProofofIdPossession@JONAH@@6B@
       8448  647 0135C2CC ??_7ProtectedPart@JONAH@@6B@
       8449  648 01356E4C ??_7PubInfos@JONAH@@6B@
       8450  649 0135378C ??_7PubMethod@JONAH@@6B@
       8451  64A 0135B85C ??_7RACCertPkiConfirmWarp@JONAH@@6B@
       8452  64B 0135A024 ??_7RACCertWarp@JONAH@@6B@
       8453  64C 012E9034 ??_7ReasonFlags@JONAH@@6B@
       8454  64D 012E946C ??_7RecipientInfo@JONAH@@6B@
       8455  64E 012EDE04 ??_7RecipientInfos@JONAH@@6B@
       8456  64F 01359C2C ??_7RevAnnContent@JONAH@@6B@
       8457  650 013599B4 ??_7RevDetails@JONAH@@6B@
       8458  651 01359A8C ??_7RevRepContent@JONAH@@6B@
       8459  652 013577F4 ??_7RevReqContent@JONAH@@6B@
       8460  653 0135A1DC ??_7RevocationRequest@JONAH@@6B@
       8461  654 012ED8DC ??_7RevokedCertificate@JONAH@@6B@
       8462  655 012ED9A4 ??_7RevokedCertificates@JONAH@@6B@
       8463  656 012EFDE4 ??_7SafeBag@JONAH@@6B@
       8464  657 012EE43C ??_7SafeContents@JONAH@@6B@
       8465  658 012F005C ??_7SecretBag@JONAH@@6B@
       8466  659 012EFC3C ??_7SignedContent@JONAH@@6B@
       8467  65A 012F08AC ??_7SignedContentInfo@JONAH@@6B@
       8468  65B 012F0984 ??_7SignedData@JONAH@@6B@
       8469  65C 012EFB64 ??_7SignerInfo@JONAH@@6B@
       8470  65D 012EDEEC ??_7SignerInfos@JONAH@@6B@
       8471  65E 013595B4 ??_7SinglePubInfo@JONAH@@6B@
       8472  65F 012E8B3C ??_7SubjectPublicKeyInfo@JONAH@@6B@
       8473  660 013535F4 ??_7SubsequentMessage@JONAH@@6B@
       8474  661 012EF3F4 ??_7TBSCertList@JONAH@@6B@
       8475  662 012EED34 ??_7TBSCertificate@JONAH@@6B@
       8476  663 012E87E4 ??_7Time@JONAH@@6B@
       8477  664 012ED57C ??_7UserNotice@JONAH@@6B@
       8478  665 012E8A64 ??_7Validity@JONAH@@6B@
       8479  666 012EEC5C ??_7Version@JONAH@@6B@
       8480  667 012EEFBC ??_7XAuthorityKeyIdentifier@JONAH@@6B@
       8481  668 012E8F6C ??_7XBasicConstraints@JONAH@@6B@
       8482  669 012F07CC ??_7XIssuingDistributionPoint@JONAH@@6B@
       8483  66A 012E8CD4 ??_7XKeyUsage@JONAH@@6B@
       8484  66B 012EF16C ??_7XNameConstraints@JONAH@@6B@
       8485  66C 01357E14 ??_7XNotesAliasNames@JONAH@@6B@
       8486  66D 01357EDC ??_7XNotesLicenseID@JONAH@@6B@
       8487  66E 01353F0C ??_7XNotesPrivateKeyCreationTime@JONAH@@6B@
       8504  66F 012EF244 ??_7XPolicyConstraints@JONAH@@6B@
       8512  670 012EF094 ??_7XPrivateKeyUsagePeriod@JONAH@@6B@
       8544  671 012E8714 ??_7asn_AVA@JONAH@@6B@
       8545  672 012ED2D4 ??_7asn_RDN@JONAH@@6B@
       8546  673 012E798C ??_7asn_UTCtime@JONAH@@6B@
       8547  674 012E85DC ??_7asn_UTF8String@JONAH@@6B@
       8548  675 0135D3F4 ??_7asn_any@JONAH@@6B@
       8549  676 012E71AC ??_7asn_bitstring@JONAH@@6B@
       8559  677 012E836C ??_7asn_bmpString@JONAH@@6B@
       8596  678 012E732C ??_7asn_boolean@JONAH@@6B@
       8597  679 012E7C24 ??_7asn_charstring@JONAH@@6B@
       8598  67A 012E7B4C ??_7asn_choice@JONAH@@6B@
       8634  67B 0135D28C ??_7asn_composite@JONAH@@6B@
       8635  67C 012E7D4C ??_7asn_directoryString@JONAH@@6B@
       8636  67D 012E70DC ??_7asn_enumerated@JONAH@@6B@
       8637  67E 012E7A54 ??_7asn_generalizedtime@JONAH@@6B@
       8638  67F 012E7E8C ??_7asn_ia5String@JONAH@@6B@
       8639  680 012E701C ??_7asn_integer@JONAH@@6B@
       8678  681 012E726C ??_7asn_namedbits@JONAH@@6B@
       8679  682 012E757C ??_7asn_nothing@JONAH@@6B@
       8680  683 012E74BC ??_7asn_null@JONAH@@6B@
       8681  684 0135D1C4 ??_7asn_object@JONAH@@6B@
       8682  685 012E73FC ??_7asn_octetstring@JONAH@@6B@
       8683  686 012E7644 ??_7asn_oid@JONAH@@6B@
       8688  687 012E6F54 ??_7asn_primitive@JONAH@@6B@
       8697  688 012E7FC4 ??_7asn_printableString@JONAH@@6B@
       8800  689 012E770C ??_7asn_sequence@JONAH@@6B@
       8801  68A 012E78BC ??_7asn_set@JONAH@@6B@
       8802  68B 012E77E4 ??_7asn_sorted@JONAH@@6B@
       8803  68C 012E8234 ??_7asn_teletexString@JONAH@@6B@
       8804  68D 012E84A4 ??_7asn_universalString@JONAH@@6B@
       8805  68E 012E80FC ??_7asn_visibleString@JONAH@@6B@
       8820  68F 0135CEE4 ??_7asn_x500name@JONAH@@6B@
       8821  690 0135D4B0 ??_7bigUInt@@6B@
       8822  691 0135D17C ??_7buffer_t@JONAH@@6B@
       8823  692 012E6E94 ??_7jonah_assignment_exception@JONAH@@6B@
       8824  693 0135CFE0 ??_7jonah_base_class@JONAH@@6B@
       8825  694 012E6E78 ??_7jonah_exception@JONAH@@6B@
       8826  695 012E6E80 ??_7jonah_memory_exception@JONAH@@6B@
       8827  696 012E6EAC ??_7jonah_syntax_exception@JONAH@@6B@
       8828  697 0135A454 ??_7lsasn1@JONAH@@6B@
       8829  698 012E6EE4 ??_7memory_funcs_t@JONAH@@6B@
       8830  699 012E6ED0 ??_7objType_t@JONAH@@6B@
       8831  69A 012E96F4 ??_7pkcs_12PbeParams@JONAH@@6B@
       8832  69B 012E6EC0 ??_7r_buffer_t@JONAH@@6B@
       8833  69C 012E8C0C ??_7x509_Extension@JONAH@@6B@
       8834  69D 012ED3B4 ??_7x509_Extensions@JONAH@@6B@
       8835  69E 012EEE0C ??_7x509_certificate@JONAH@@6B@
       8836  69F 00592D00 ??_F?$asn_explicit@V?$asn_sequenceof@VCertificateRequest@JONAH@@@JONAH@@$01$0A@@JONAH@@QAEXXZ
       8837  6A0 00592D10 ??_F?$asn_explicit@V?$asn_sequenceof@VRevocationRequest@JONAH@@@JONAH@@$01$00@JONAH@@QAEXXZ
       8838  6A1 005928D0 ??_F?$asn_explicit@V?$asn_setof@VAliasWithTag@JONAH@@@JONAH@@$01$00@JONAH@@QAEXXZ
       8839  6A2 00591E30 ??_F?$asn_explicit@VAlgorithmIdentifier@JONAH@@$01$00@JONAH@@QAEXXZ
       8840  6A3 005902A0 ??_F?$asn_explicit@VAlgorithmIdentifier@JONAH@@$01$0A@@JONAH@@QAEXXZ
       8841  6A4 00597B00 ??_F?$asn_explicit@VCAKeyUpdAnnContent@JONAH@@$01$0P@@JONAH@@QAEXXZ
       8842  6A5 0059EEA0 ??_F?$asn_explicit@VCALdapPostInfo@JONAH@@$01$0A@@JONAH@@QAEXXZ
       8843  6A6 00590E50 ??_F?$asn_explicit@VCRLAnnContent@JONAH@@$01$00@JONAH@@QAEXXZ
       8844  6A7 00592680 ??_F?$asn_explicit@VCRLAnnContent@JONAH@@$01$0BC@@JONAH@@QAEXXZ
       8845  6A8 0059E8F0 ??_F?$asn_explicit@VCertId@JONAH@@$01$00@JONAH@@QAEXXZ
       8846  6A9 00590DE0 ??_F?$asn_explicit@VCertIds@JONAH@@$01$0A@@JONAH@@QAEXXZ
       8847  6AA 00597620 ??_F?$asn_explicit@VCertRepMessage@JONAH@@$01$00@JONAH@@QAEXXZ
       8848  6AB 005976F0 ??_F?$asn_explicit@VCertRepMessage@JONAH@@$01$02@JONAH@@QAEXXZ
       8849  6AC 00597890 ??_F?$asn_explicit@VCertRepMessage@JONAH@@$01$07@JONAH@@QAEXXZ
       8850  6AD 00597A30 ??_F?$asn_explicit@VCertRepMessage@JONAH@@$01$0O@@JONAH@@QAEXXZ
       8851  6AE 00592370 ??_F?$asn_explicit@VCertReqMessages@JONAH@@$01$01@JONAH@@QAEXXZ
       8852  6AF 005924C0 ??_F?$asn_explicit@VCertReqMessages@JONAH@@$01$06@JONAH@@QAEXXZ
       8853  6B0 00592530 ??_F?$asn_explicit@VCertReqMessages@JONAH@@$01$08@JONAH@@QAEXXZ
       8854  6B1 00592300 ??_F?$asn_explicit@VCertReqMessages@JONAH@@$01$0A@@JONAH@@QAEXXZ
       8855  6B2 00592610 ??_F?$asn_explicit@VCertReqMessages@JONAH@@$01$0N@@JONAH@@QAEXXZ
       8856  6B3 00590990 ??_F?$asn_explicit@VCertificates@JONAH@@$01$00@JONAH@@QAEXXZ
       8857  6B4 005977C0 ??_F?$asn_explicit@VCertificationRequest@JONAH@@$01$03@JONAH@@QAEXXZ
       8858  6B5 00590C20 ??_F?$asn_explicit@VCertifiedKeyPairs@JONAH@@$01$01@JONAH@@QAEXXZ
       8859  6B6 004A99A0 ??_F?$asn_explicit@VContent@JONAH@@$01$0A@@JONAH@@QAEXXZ
       8860  6B7 004A7C90 ??_F?$asn_explicit@VDistributionPointName@JONAH@@$01$0A@@JONAH@@QAEXXZ
       8861  6B8 0059EA70 ??_F?$asn_explicit@VEncryptedKey@JONAH@@$01$0A@@JONAH@@QAEXXZ
       8862  6B9 00595940 ??_F?$asn_explicit@VEncryptedValue@JONAH@@$01$00@JONAH@@QAEXXZ
       8863  6BA 00595B30 ??_F?$asn_explicit@VEncryptedValue@JONAH@@$01$0A@@JONAH@@QAEXXZ
       8864  6BB 005965E0 ??_F?$asn_explicit@VEnvelopedData@JONAH@@$01$0A@@JONAH@@QAEXXZ
       8865  6BC 005927F0 ??_F?$asn_explicit@VErrorMsgContent@JONAH@@$01$0BH@@JONAH@@QAEXXZ
       8866  6BD 0059EB60 ??_F?$asn_explicit@VGeneralName@JONAH@@$01$0A@@JONAH@@QAEXXZ
       8867  6BE 00591F00 ??_F?$asn_explicit@VInfoTypesAndValues@JONAH@@$01$07@JONAH@@QAEXXZ
       8868  6BF 00592710 ??_F?$asn_explicit@VInfoTypesAndValues@JONAH@@$01$0BF@@JONAH@@QAEXXZ
       8869  6C0 00592780 ??_F?$asn_explicit@VInfoTypesAndValues@JONAH@@$01$0BG@@JONAH@@QAEXXZ
       8870  6C1 0058FB30 ??_F?$asn_explicit@VJonahTime@JONAH@@$01$00@JONAH@@QAEXXZ
       8871  6C2 0058FB20 ??_F?$asn_explicit@VJonahTime@JONAH@@$01$0A@@JONAH@@QAEXXZ
       8872  6C3 0059F420 ??_F?$asn_explicit@VKeyRecRepContent@JONAH@@$01$09@JONAH@@QAEXXZ
       8873  6C4 005929D0 ??_F?$asn_explicit@VNotesLicenseExt@JONAH@@$01$00@JONAH@@QAEXXZ
       8874  6C5 00591E90 ??_F?$asn_explicit@VPKIFreeText@JONAH@@$01$06@JONAH@@QAEXXZ
       8875  6C6 005908C0 ??_F?$asn_explicit@VPKIPublicationInfo@JONAH@@$01$00@JONAH@@QAEXXZ
       8876  6C7 005923E0 ??_F?$asn_explicit@VPOPODecKeyChallContent@JONAH@@$01$04@JONAH@@QAEXXZ
       8877  6C8 00592450 ??_F?$asn_explicit@VPOPODecKeyRespContent@JONAH@@$01$05@JONAH@@QAEXXZ
       8878  6C9 00596BE0 ??_F?$asn_explicit@VPOPOPrivKey@JONAH@@$01$01@JONAH@@QAEXXZ
       8879  6CA 00596BF0 ??_F?$asn_explicit@VPOPOPrivKey@JONAH@@$01$02@JONAH@@QAEXXZ
       8880  6CB 0059EEC0 ??_F?$asn_explicit@VRACCertPkiConfirmWarp@JONAH@@$01$02@JONAH@@QAEXXZ
       8881  6CC 0059EEB0 ??_F?$asn_explicit@VRACCertWarp@JONAH@@$01$00@JONAH@@QAEXXZ
       8882  6CD 0059F4F0 ??_F?$asn_explicit@VRevAnnContent@JONAH@@$01$0BB@@JONAH@@QAEXXZ
       8883  6CE 00597960 ??_F?$asn_explicit@VRevRepContent@JONAH@@$01$0M@@JONAH@@QAEXXZ
       8884  6CF 005925A0 ??_F?$asn_explicit@VRevReqContent@JONAH@@$01$0L@@JONAH@@QAEXXZ
       8885  6D0 004A8440 ??_F?$asn_explicit@VSignedContent@JONAH@@$01$0A@@JONAH@@QAEXXZ
       8886  6D1 005916A0 ??_F?$asn_explicit@VSubsequentMessage@JONAH@@$01$00@JONAH@@QAEXXZ
       8887  6D2 00592BA0 ??_F?$asn_explicit@Vasn_UTF8String@JONAH@@$01$02@JONAH@@QAEXXZ
       8888  6D3 00592AB0 ??_F?$asn_explicit@Vasn_UTF8String@JONAH@@$01$0A@@JONAH@@QAEXXZ
       8889  6D4 00591E00 ??_F?$asn_explicit@Vasn_any@JONAH@@$01$01@JONAH@@QAEXXZ
       8890  6D5 00591E10 ??_F?$asn_explicit@Vasn_any@JONAH@@$01$03@JONAH@@QAEXXZ
       8891  6D6 004A5A20 ??_F?$asn_explicit@Vasn_any@JONAH@@$01$0A@@JONAH@@QAEXXZ
       8892  6D7 00592700 ??_F?$asn_explicit@Vasn_any@JONAH@@$01$0BE@@JONAH@@QAEXXZ
       8893  6D8 005916B0 ??_F?$asn_explicit@Vasn_bitstring@JONAH@@$01$01@JONAH@@QAEXXZ
       8894  6D9 00591690 ??_F?$asn_explicit@Vasn_bitstring@JONAH@@$01$0A@@JONAH@@QAEXXZ
       8895  6DA 00592B90 ??_F?$asn_explicit@Vasn_boolean@JONAH@@$01$00@JONAH@@QAEXXZ
       8896  6DB 00591680 ??_F?$asn_explicit@Vasn_boolean@JONAH@@$01$01@JONAH@@QAEXXZ
       8897  6DC 00592B80 ??_F?$asn_explicit@Vasn_boolean@JONAH@@$01$0A@@JONAH@@QAEXXZ
       8898  6DD 004A2940 ??_F?$asn_explicit@Vasn_directoryString@JONAH@@$01$00@JONAH@@QAEXXZ
       8899  6DE 004A2930 ??_F?$asn_explicit@Vasn_directoryString@JONAH@@$01$0A@@JONAH@@QAEXXZ
       8969  6DF 00591E20 ??_F?$asn_explicit@Vasn_generalizedtime@JONAH@@$01$0A@@JONAH@@QAEXXZ
       8970  6E0 005928C0 ??_F?$asn_explicit@Vasn_ia5String@JONAH@@$01$0A@@JONAH@@QAEXXZ
       8971  6E1 004A2050 ??_F?$asn_explicit@Vasn_integer@JONAH@@$01$0A@@JONAH@@QAEXXZ
       8972  6E2 005926F0 ??_F?$asn_explicit@Vasn_null@JONAH@@$01$0BD@@JONAH@@QAEXXZ
       8973  6E3 00591670 ??_F?$asn_explicit@Vasn_octetstring@JONAH@@$01$00@JONAH@@QAEXXZ
       8974  6E4 00591E40 ??_F?$asn_explicit@Vasn_octetstring@JONAH@@$01$01@JONAH@@QAEXXZ
       8975  6E5 00591E50 ??_F?$asn_explicit@Vasn_octetstring@JONAH@@$01$02@JONAH@@QAEXXZ
       8976  6E6 00591E60 ??_F?$asn_explicit@Vasn_octetstring@JONAH@@$01$03@JONAH@@QAEXXZ
       8977  6E7 00591E70 ??_F?$asn_explicit@Vasn_octetstring@JONAH@@$01$04@JONAH@@QAEXXZ
       8978  6E8 00591E80 ??_F?$asn_explicit@Vasn_octetstring@JONAH@@$01$05@JONAH@@QAEXXZ
       8979  6E9 004A45A0 ??_F?$asn_explicit@Vasn_octetstring@JONAH@@$01$0A@@JONAH@@QAEXXZ
       8980  6EA 0058FC40 ??_F?$asn_explicit@Vasn_x500name@JONAH@@$01$02@JONAH@@QAEXXZ
       8981  6EB 004A2A50 ??_F?$asn_explicit@Vasn_x500name@JONAH@@$01$03@JONAH@@QAEXXZ
       8982  6EC 0058FD00 ??_F?$asn_explicit@Vasn_x500name@JONAH@@$01$04@JONAH@@QAEXXZ
       8983  6ED 004A2150 ??_F?$asn_explicit@Vx509_Extensions@JONAH@@$01$02@JONAH@@QAEXXZ
       8984  6EE 004A3810 ??_F?$asn_explicit@Vx509_Extensions@JONAH@@$01$0A@@JONAH@@QAEXXZ
       8985  6EF 00595870 ??_F?$asn_explicit@Vx509_certificate@JONAH@@$01$0A@@JONAH@@QAEXXZ
       8986  6F0 00597B70 ??_F?$asn_explicit@Vx509_certificate@JONAH@@$01$0BA@@JONAH@@QAEXXZ
       8987  6F1 004A2DB0 ??_F?$asn_implicit@V?$asn_sequenceof@VGeneralName@JONAH@@@JONAH@@$01$00@JONAH@@QAEXXZ
       8988  6F2 004A3690 ??_F?$asn_implicit@V?$asn_sequenceof@VGeneralName@JONAH@@@JONAH@@$01$01@JONAH@@QAEXXZ
       8989  6F3 004A3370 ??_F?$asn_implicit@V?$asn_sequenceof@VGeneralName@JONAH@@@JONAH@@$01$0A@@JONAH@@QAEXXZ
       8990  6F4 004A3180 ??_F?$asn_implicit@V?$asn_sequenceof@VGeneralSubtree@JONAH@@@JONAH@@$01$00@JONAH@@QAEXXZ
       8991  6F5 004A3170 ??_F?$asn_implicit@V?$asn_sequenceof@VGeneralSubtree@JONAH@@@JONAH@@$01$0A@@JONAH@@QAEXXZ
       8992  6F6 00590520 ??_F?$asn_implicit@VAlgorithmIdentifier@JONAH@@$01$00@JONAH@@QAEXXZ
       8993  6F7 0058FC30 ??_F?$asn_implicit@VAlgorithmIdentifier@JONAH@@$01$01@JONAH@@QAEXXZ
       8994  6F8 00590530 ??_F?$asn_implicit@VAlgorithmIdentifier@JONAH@@$01$02@JONAH@@QAEXXZ
       8995  6F9 00590510 ??_F?$asn_implicit@VAlgorithmIdentifier@JONAH@@$01$0A@@JONAH@@QAEXXZ
       8996  6FA 004A4980 ??_F?$asn_implicit@VAttributes@JONAH@@$01$00@JONAH@@QAEXXZ
       8997  6FB 004A4890 ??_F?$asn_implicit@VAttributes@JONAH@@$01$0A@@JONAH@@QAEXXZ
       8999  6FC 004A5110 ??_F?$asn_implicit@VCertRevocationLists@JONAH@@$01$00@JONAH@@QAEXXZ
       9000  6FD 004A7A10 ??_F?$asn_implicit@VEDIPartyName@JONAH@@$01$04@JONAH@@QAEXXZ
       9001  6FE 004A5020 ??_F?$asn_implicit@VExtendedCertsAndCertificates@JONAH@@$01$0A@@JONAH@@QAEXXZ
       9002  6FF 00594EF0 ??_F?$asn_implicit@VOptionalValidity@JONAH@@$01$03@JONAH@@QAEXXZ
       9003  700 005A5D10 ??_F?$asn_implicit@VPOPOSigningKey@JONAH@@$01$00@JONAH@@QAEXXZ
       9004  701 005A0B70 ??_F?$asn_implicit@VPOPOSigningKeyInput@JONAH@@$01$0A@@JONAH@@QAEXXZ
       9005  702 004A3680 ??_F?$asn_implicit@VReasonFlags@JONAH@@$01$00@JONAH@@QAEXXZ
       9006  703 004A37F0 ??_F?$asn_implicit@VReasonFlags@JONAH@@$01$02@JONAH@@QAEXXZ
       9007  704 0058FD10 ??_F?$asn_implicit@VSubjectPublicKeyInfo@JONAH@@$01$05@JONAH@@QAEXXZ
       9008  705 004A3380 ??_F?$asn_implicit@Vasn_RDN@JONAH@@$01$00@JONAH@@QAEXXZ
       9009  706 004A2130 ??_F?$asn_implicit@Vasn_bitstring@JONAH@@$01$00@JONAH@@QAEXXZ
       9010  707 004A2140 ??_F?$asn_implicit@Vasn_bitstring@JONAH@@$01$01@JONAH@@QAEXXZ
       9011  708 0058FD20 ??_F?$asn_implicit@Vasn_bitstring@JONAH@@$01$06@JONAH@@QAEXXZ
       9012  709 0058FD30 ??_F?$asn_implicit@Vasn_bitstring@JONAH@@$01$07@JONAH@@QAEXXZ
       9013  70A 004A37D0 ??_F?$asn_implicit@Vasn_boolean@JONAH@@$01$00@JONAH@@QAEXXZ
       9014  70B 004A37E0 ??_F?$asn_implicit@Vasn_boolean@JONAH@@$01$01@JONAH@@QAEXXZ
       9015  70C 004A3800 ??_F?$asn_implicit@Vasn_boolean@JONAH@@$01$03@JONAH@@QAEXXZ
       9016  70D 004A2F00 ??_F?$asn_implicit@Vasn_generalizedtime@JONAH@@$01$00@JONAH@@QAEXXZ
       9017  70E 004A2EF0 ??_F?$asn_implicit@Vasn_generalizedtime@JONAH@@$01$0A@@JONAH@@QAEXXZ
       9018  70F 004A2A30 ??_F?$asn_implicit@Vasn_ia5String@JONAH@@$01$00@JONAH@@QAEXXZ
       9019  710 004A2A40 ??_F?$asn_implicit@Vasn_ia5String@JONAH@@$01$01@JONAH@@QAEXXZ
       9020  711 004A2B10 ??_F?$asn_implicit@Vasn_ia5String@JONAH@@$01$05@JONAH@@QAEXXZ
       9021  712 004A3010 ??_F?$asn_implicit@Vasn_integer@JONAH@@$01$00@JONAH@@QAEXXZ
       9022  713 004A2DC0 ??_F?$asn_implicit@Vasn_integer@JONAH@@$01$01@JONAH@@QAEXXZ
       9023  714 004A3000 ??_F?$asn_implicit@Vasn_integer@JONAH@@$01$0A@@JONAH@@QAEXXZ
       9024  715 005917A0 ??_F?$asn_implicit@Vasn_null@JONAH@@$01$0A@@JONAH@@QAEXXZ
       9025  716 00590540 ??_F?$asn_implicit@Vasn_octetstring@JONAH@@$01$03@JONAH@@QAEXXZ
       9026  717 004A2B20 ??_F?$asn_implicit@Vasn_octetstring@JONAH@@$01$06@JONAH@@QAEXXZ
       9027  718 004A2DA0 ??_F?$asn_implicit@Vasn_octetstring@JONAH@@$01$0A@@JONAH@@QAEXXZ
       9028  719 004A2B30 ??_F?$asn_implicit@Vasn_oid@JONAH@@$01$07@JONAH@@QAEXXZ
       9029  71A 0058FD40 ??_F?$asn_implicit@Vx509_Extensions@JONAH@@$01$08@JONAH@@QAEXXZ
       9030  71B 005886C0 ??_F?$asn_sequenceof@VAttributeTypeAndValue@JONAH@@@JONAH@@QAEXXZ
       9031  71C 005870A0 ??_F?$asn_sequenceof@VCertId@JONAH@@@JONAH@@QAEXXZ
       9032  71D 00588920 ??_F?$asn_sequenceof@VCertReqMsg@JONAH@@@JONAH@@QAEXXZ
       9033  71E 00587C80 ??_F?$asn_sequenceof@VCertResponse@JONAH@@@JONAH@@QAEXXZ
       9034  71F 00588060 ??_F?$asn_sequenceof@VCertificateList@JONAH@@@JONAH@@QAEXXZ
       9035  720 00589E10 ??_F?$asn_sequenceof@VCertificateRequest@JONAH@@@JONAH@@QAEXXZ
       9036  721 00587A90 ??_F?$asn_sequenceof@VCertifiedKeyPair@JONAH@@@JONAH@@QAEXXZ
       9037  722 00587350 ??_F?$asn_sequenceof@VChallenge@JONAH@@@JONAH@@QAEXXZ
       9038  723 0049DB30 ??_F?$asn_sequenceof@VContentInfo@JONAH@@@JONAH@@QAEXXZ
       9039  724 004996A0 ??_F?$asn_sequenceof@VGeneralName@JONAH@@@JONAH@@QAEXXZ
       9040  725 0049AD70 ??_F?$asn_sequenceof@VGeneralSubtree@JONAH@@@JONAH@@QAEXXZ
       9041  726 00588CF0 ??_F?$asn_sequenceof@VInfoTypeAndValue@JONAH@@@JONAH@@QAEXXZ
       9042  727 00586EA0 ??_F?$asn_sequenceof@VPKIStatusInfo@JONAH@@@JONAH@@QAEXXZ
       9043  728 0049AA30 ??_F?$asn_sequenceof@VPolicyInformation@JONAH@@@JONAH@@QAEXXZ
       9044  729 0049AB70 ??_F?$asn_sequenceof@VPolicyMapping@JONAH@@@JONAH@@QAEXXZ
       9045  72A 0049A690 ??_F?$asn_sequenceof@VPolicyQualifierInfo@JONAH@@@JONAH@@QAEXXZ
       9046  72B 0049D940 ??_F?$asn_sequenceof@VPrivateKeyInfo@JONAH@@@JONAH@@QAEXXZ
       9047  72C 0049C8F0 ??_F?$asn_sequenceof@VRecipientInfo@JONAH@@@JONAH@@QAEXXZ
       9048  72D 00587E70 ??_F?$asn_sequenceof@VRevDetails@JONAH@@@JONAH@@QAEXXZ
       9049  72E 00589F50 ??_F?$asn_sequenceof@VRevocationRequest@JONAH@@@JONAH@@QAEXXZ
       9050  72F 0049B770 ??_F?$asn_sequenceof@VRevokedCertificate@JONAH@@@JONAH@@QAEXXZ
       9051  730 0049DFD0 ??_F?$asn_sequenceof@VSafeBag@JONAH@@@JONAH@@QAEXXZ
       9052  731 005867E0 ??_F?$asn_sequenceof@VSinglePubInfo@JONAH@@@JONAH@@QAEXXZ
       9053  732 00498C80 ??_F?$asn_sequenceof@Vasn_RDN@JONAH@@@JONAH@@QAEXXZ
       9054  733 005865F0 ??_F?$asn_sequenceof@Vasn_UTF8String@JONAH@@@JONAH@@QAEXXZ
       9055  734 00499CE0 ??_F?$asn_sequenceof@Vasn_integer@JONAH@@@JONAH@@QAEXXZ
       9056  735 00498E90 ??_F?$asn_sequenceof@Vx509_Extension@JONAH@@@JONAH@@QAEXXZ
       9057  736 0049C250 ??_F?$asn_sequenceof@Vx509_certificate@JONAH@@@JONAH@@QAEXXZ
       9058  737 0049D140 ??_F?$asn_setof@VAlgorithmIdentifier@JONAH@@@JONAH@@QAEXXZ
       9059  738 00589590 ??_F?$asn_setof@VAliasWithTag@JONAH@@@JONAH@@QAEXXZ
       9060  739 0049C440 ??_F?$asn_setof@VAttribute@JONAH@@@JONAH@@QAEXXZ
       9061  73A 0049D620 ??_F?$asn_setof@VCertificateList@JONAH@@@JONAH@@QAEXXZ
       9062  73B 0049BDB0 ??_F?$asn_setof@VHostIdMappingValue@JONAH@@@JONAH@@QAEXXZ
       9063  73C 0049CED0 ??_F?$asn_setof@VSignerInfo@JONAH@@@JONAH@@QAEXXZ
       9064  73D 004989E0 ??_F?$asn_setof@Vasn_AVA@JONAH@@@JONAH@@QAEXXZ
       9065  73E 0049C000 ??_F?$asn_setof@Vasn_octetstring@JONAH@@@JONAH@@QAEXXZ
       9066  73F 0049D3B0 ??_F?$asn_setof@Vx509_certificate@JONAH@@@JONAH@@QAEXXZ
       9067  740 004A8100 ??_FAccessDescription@JONAH@@QAEXXZ
       9068  741 00580290 ??_FAction@JONAH@@QAEXXZ
       9069  742 0048F060 ??_FAlgorithmIdentifier@JONAH@@QAEXXZ
       9070  743 005813D0 ??_FAliasWithTag@JONAH@@QAEXXZ
       9071  744 00595690 ??_FAsn1Random@JONAH@@QAEXXZ
       9072  745 00490D20 ??_FAttribute@JONAH@@QAEXXZ
       9073  746 00581040 ??_FAttributeTypeAndValue@JONAH@@QAEXXZ
       9074  747 00588850 ??_FAttributeTypesAndValues@JONAH@@QAEXXZ
       9075  748 0049C640 ??_FAttributes@JONAH@@QAEXXZ
       9076  749 0059EC30 ??_FAuthInfo@JONAH@@QAEXXZ
       9077  74A 0049DCA0 ??_FAuthenticatedSafes@JONAH@@QAEXXZ
       9078  74B 005912B0 ??_FCAKeyUpdAnnContent@JONAH@@QAEXXZ
       9079  74C 00596E70 ??_FCALdapPostInfo@JONAH@@QAEXXZ
       9080  74D 00593110 ??_FCMBlob@JONAH@@QAEXXZ
       9081  74E 00592FA0 ??_FCMBlobBody@JONAH@@QAEXXZ
       9083  74F 00592B70 ??_FCMBlobHeader@JONAH@@QAEXXZ
       9084  750 00588180 ??_FCRLAnnContent@JONAH@@QAEXXZ
       9085  751 004A5DE0 ??_FCRLBag@JONAH@@QAEXXZ
       9086  752 00581270 ??_FCaLdapPostType@JONAH@@QAEXXZ
       9087  753 004A5CC0 ??_FCertBag@JONAH@@QAEXXZ
       9088  754 00595390 ??_FCertId@JONAH@@QAEXXZ
       9089  755 005872E0 ??_FCertIds@JONAH@@QAEXXZ
       9090  756 0049C430 ??_FCertList@JONAH@@QAEXXZ
       9091  757 00595AC0 ??_FCertOrEncCert@JONAH@@QAEXXZ
       9092  758 00590BB0 ??_FCertRepMessage@JONAH@@QAEXXZ
       9093  759 00588B60 ??_FCertReqMessages@JONAH@@QAEXXZ
       9094  75A 005A5F20 ??_FCertReqMsg@JONAH@@QAEXXZ
       9105  75B 00596D40 ??_FCertRequest@JONAH@@QAEXXZ
       9108  75C 00596020 ??_FCertResponse@JONAH@@QAEXXZ
       9109  75D 00587DA0 ??_FCertResponses@JONAH@@QAEXXZ
       9120  75E 0049D7C0 ??_FCertRevocationLists@JONAH@@QAEXXZ
       9122  75F 00595180 ??_FCertTemplate@JONAH@@QAEXXZ
       9123  760 004A3E80 ??_FCertificateList@JONAH@@QAEXXZ
       9127  761 004A4040 ??_FCertificatePair@JONAH@@QAEXXZ
       9129  762 005A6090 ??_FCertificateRequest@JONAH@@QAEXXZ
       9130  763 00587750 ??_FCertificates@JONAH@@QAEXXZ
       9147  764 004A63E0 ??_FCertificationRequest@JONAH@@QAEXXZ
       9163  765 004A6160 ??_FCertificationRequestInfo@JONAH@@QAEXXZ
       9164  766 00595D00 ??_FCertifiedKeyPair@JONAH@@QAEXXZ
       9195  767 00587C70 ??_FCertifiedKeyPairs@JONAH@@QAEXXZ
       9201  768 00595860 ??_FChallenge@JONAH@@QAEXXZ
       9207  769 004A8950 ??_FContent@JONAH@@QAEXXZ
       9208  76A 004A9AD0 ??_FContentInfo@JONAH@@QAEXXZ
       9224  76B 005809E0 ??_FDHBMParameter@JONAH@@QAEXXZ
       9225  76C 00490B30 ??_FDSAParams@JONAH@@QAEXXZ
       9226  76D 0049D340 ??_FDigestAlgorithmIdentifiers@JONAH@@QAEXXZ
       9227  76E 004A46C0 ??_FDigestContentInfo@JONAH@@QAEXXZ
       9264  76F 00491460 ??_FDigestInfo@JONAH@@QAEXXZ
       9265  770 004A4880 ??_FDigestedData@JONAH@@QAEXXZ
       9266  771 0048FE20 ??_FDisplayText@JONAH@@QAEXXZ
       9267  772 004A7F80 ??_FDistributionPoint@JONAH@@QAEXXZ
       9268  773 004A3610 ??_FDistributionPointName@JONAH@@QAEXXZ
       9269  774 004A2A20 ??_FEDIPartyName@JONAH@@QAEXXZ
       9270  775 004A4330 ??_FEncryptedContentInfo@JONAH@@QAEXXZ
       9278  776 004A4450 ??_FEncryptedData@JONAH@@QAEXXZ
       9279  777 005966B0 ??_FEncryptedKey@JONAH@@QAEXXZ
       9401  778 004915F0 ??_FEncryptedPrivateKeyInfo@JONAH@@QAEXXZ
       9402  779 00590730 ??_FEncryptedValue@JONAH@@QAEXXZ
       9403  77A 004A4590 ??_FEnvelopedData@JONAH@@QAEXXZ
       9404  77B 00589100 ??_FErrorMsgContent@JONAH@@QAEXXZ
       9405  77C 0049D4F0 ??_FExtendedCertsAndCertificates@JONAH@@QAEXXZ
       9406  77D 0059F140 ??_FGeneralInfoData@JONAH@@QAEXXZ
       9407  77E 004A7B70 ??_FGeneralName@JONAH@@QAEXXZ
       9408  77F 004A7C80 ??_FGeneralSubtree@JONAH@@QAEXXZ
       9409  780 004A41F0 ??_FHostIdMappingValue@JONAH@@QAEXXZ
       9410  781 0049BEE0 ??_FHostIdMappings@JONAH@@QAEXXZ
       9411  782 0059F340 ??_FInfoTypeAndValue@JONAH@@QAEXXZ
       9412  783 00588E10 ??_FInfoTypesAndValues@JONAH@@QAEXXZ
       9413  784 00490EF0 ??_FIssuerAndSerialNumber@JONAH@@QAEXXZ
       9414  785 00596F40 ??_FIssuerRAInfo@JONAH@@QAEXXZ
       9415  786 0048EE00 ??_FJonahTime@JONAH@@QAEXXZ
       9416  787 0049DA60 ??_FKeyList@JONAH@@QAEXXZ
       9417  788 005962F0 ??_FKeyRecRepContent@JONAH@@QAEXXZ
       9418  789 00491B10 ??_FMacData@JONAH@@QAEXXZ
       9419  78A 00491CF0 ??_FNetscapePublicKeyAndChallenge@JONAH@@QAEXXZ
       9420  78B 00491F70 ??_FNetscapeSignedPublicKeyAndChallenge@JONAH@@QAEXXZ
       9421  78C 00581670 ??_FNotesLicenseExt@JONAH@@QAEXXZ
       9422  78D 00499FC0 ??_FNoticeReference@JONAH@@QAEXXZ
       9423  78E 0059EA60 ??_FOOBCertHash@JONAH@@QAEXXZ
       9424  78F 0058FC20 ??_FOptionalValidity@JONAH@@QAEXXZ
       9425  790 005807E0 ??_FPBMParameter@JONAH@@QAEXXZ
       9426  791 004A9D70 ??_FPFX@JONAH@@QAEXXZ
       9427  792 0059EB50 ??_FPKIArchiveOptions@JONAH@@QAEXXZ
       9428  793 0059FE40 ??_FPKIBody@JONAH@@QAEXXZ
       9429  794 005867D0 ??_FPKIFreeText@JONAH@@QAEXXZ
       9430  795 00597610 ??_FPKIHeader@JONAH@@QAEXXZ
       9431  796 005A02F0 ??_FPKIMessage@JONAH@@QAEXXZ
       9432  797 00586B70 ??_FPKIPublicationInfo@JONAH@@QAEXXZ
       9433  798 00580C60 ??_FPKIStatus@JONAH@@QAEXXZ
       9434  799 00586E30 ??_FPKIStatusInfo@JONAH@@QAEXXZ
       9435  79A 00586FC0 ??_FPKIStatusInfos@JONAH@@QAEXXZ
       9436  79B 00580E50 ??_FPKMACValue@JONAH@@QAEXXZ
       9437  79C 005874D0 ??_FPOPODecKeyChallContent@JONAH@@QAEXXZ
       9438  79D 005876A0 ??_FPOPODecKeyRespContent@JONAH@@QAEXXZ
       9439  79E 00591790 ??_FPOPOPrivKey@JONAH@@QAEXXZ
       9440  79F 005A0CD0 ??_FPOPOSigningKey@JONAH@@QAEXXZ
       9441  7A0 0059ED00 ??_FPOPOSigningKeyInput@JONAH@@QAEXXZ
       9442  7A1 0049A9C0 ??_FPolicyInformation@JONAH@@QAEXXZ
       9443  7A2 00490060 ??_FPolicyMapping@JONAH@@QAEXXZ
       9444  7A3 0049A3D0 ??_FPolicyQualifier@JONAH@@QAEXXZ
       9445  7A4 0049A5C0 ??_FPolicyQualifierInfo@JONAH@@QAEXXZ
       9446  7A5 004A59B0 ??_FPrivateKeyInfo@JONAH@@QAEXXZ
       9447  7A6 0049C1F0 ??_FPrivateValues@JONAH@@QAEXXZ
       9448  7A7 005A5E10 ??_FProofOfPossesion@JONAH@@QAEXXZ
       9449  7A8 004907F0 ??_FProofofIdPossession@JONAH@@QAEXXZ
       9450  7A9 0059FFE0 ??_FProtectedPart@JONAH@@QAEXXZ
       9451  7AA 005869C0 ??_FPubInfos@JONAH@@QAEXXZ
       9452  7AB 005804F0 ??_FPubMethod@JONAH@@QAEXXZ
       9453  7AC 00597180 ??_FRACCertPkiConfirmWarp@JONAH@@QAEXXZ
       9454  7AD 00597010 ??_FRACCertWarp@JONAH@@QAEXXZ
       9455  7AE 004905F0 ??_FReasonFlags@JONAH@@QAEXXZ
       9456  7AF 00491210 ??_FRecipientInfo@JONAH@@QAEXXZ
       9457  7B0 0049CAD0 ??_FRecipientInfos@JONAH@@QAEXXZ
       9458  7B1 005965D0 ??_FRevAnnContent@JONAH@@QAEXXZ
       9459  7B2 00596490 ??_FRevDetails@JONAH@@QAEXXZ
       9460  7B3 005910E0 ??_FRevRepContent@JONAH@@QAEXXZ
       9461  7B4 00588050 ??_FRevReqContent@JONAH@@QAEXXZ
       9462  7B5 00597E00 ??_FRevocationRequest@JONAH@@QAEXXZ
       9463  7B6 0049B700 ??_FRevokedCertificate@JONAH@@QAEXXZ
       9464  7B7 0049B9B0 ??_FRevokedCertificates@JONAH@@QAEXXZ
       9465  7B8 004A5BA0 ??_FSafeBag@JONAH@@QAEXXZ
       9466  7B9 0049E200 ??_FSafeContents@JONAH@@QAEXXZ
       9467  7BA 004A5F00 ??_FSecretBag@JONAH@@QAEXXZ
       9468  7BB 004A5010 ??_FSignedContent@JONAH@@QAEXXZ
       9469  7BC 004A85A0 ??_FSignedContentInfo@JONAH@@QAEXXZ
       9470  7BD 004A87D0 ??_FSignedData@JONAH@@QAEXXZ
       9471  7BE 004A4E50 ??_FSignerInfo@JONAH@@QAEXXZ
       9472  7BF 0049D010 ??_FSignerInfos@JONAH@@QAEXXZ
       9473  7C0 00595260 ??_FSinglePubInfo@JONAH@@QAEXXZ
       9474  7C1 0048F520 ??_FSubjectPublicKeyInfo@JONAH@@QAEXXZ
       9475  7C2 00580180 ??_FSubsequentMessage@JONAH@@QAEXXZ
       9476  7C3 004A3C00 ??_FTBSCertList@JONAH@@QAEXXZ
       9477  7C4 004A2640 ??_FTBSCertificate@JONAH@@QAEXXZ
       9478  7C5 0048ED60 ??_FTime@JONAH@@QAEXXZ
       9479  7C6 0049A180 ??_FUserNotice@JONAH@@QAEXXZ
       9480  7C7 0048F270 ??_FValidity@JONAH@@QAEXXZ
       9481  7C8 004A20D0 ??_FVersion@JONAH@@QAEXXZ
       9482  7C9 004A2EE0 ??_FXAuthorityKeyIdentifier@JONAH@@QAEXXZ
       9483  7CA 00490340 ??_FXBasicConstraints@JONAH@@QAEXXZ
       9484  7CB 004A83D0 ??_FXIssuingDistributionPoint@JONAH@@QAEXXZ
       9485  7CC 0048FB20 ??_FXKeyUsage@JONAH@@QAEXXZ
       9486  7CD 004A3270 ??_FXNameConstraints@JONAH@@QAEXXZ
       9487  7CE 005929C0 ??_FXNotesAliasNames@JONAH@@QAEXXZ
       9488  7CF 00592AA0 ??_FXNotesLicenseID@JONAH@@QAEXXZ
       9489  7D0 00581790 ??_FXNotesPrivateKeyCreationTime@JONAH@@QAEXXZ
       9490  7D1 004A3360 ??_FXPolicyConstraints@JONAH@@QAEXXZ
       9491  7D2 004A2FF0 ??_FXPrivateKeyUsagePeriod@JONAH@@QAEXXZ
       9492  7D3 0048EA90 ??_Fasn_AVA@JONAH@@QAEXXZ
       9493  7D4 00498BB0 ??_Fasn_RDN@JONAH@@QAEXXZ
       9494  7D5 0048DCB0 ??_Fasn_UTCtime@JONAH@@QAEXXZ
       9495  7D6 0048E9C0 ??_Fasn_UTF8String@JONAH@@QAEXXZ
       9496  7D7 0048E050 ??_Fasn_any@JONAH@@QAEXXZ
       9497  7D8 0048CEF0 ??_Fasn_bitstring@JONAH@@QAEXXZ
       9498  7D9 0048E800 ??_Fasn_bmpString@JONAH@@QAEXXZ
       9499  7DA 0048D160 ??_Fasn_boolean@JONAH@@QAEXXZ
       9502  7DB 0048E120 ??_Fasn_charstring@JONAH@@QAEXXZ
       9503  7DC 0048DF80 ??_Fasn_choice@JONAH@@QAEXXZ
       9504  7DD 0048CBE0 ??_Fasn_composite@JONAH@@QAEXXZ
       9505  7DE 0048E280 ??_Fasn_directoryString@JONAH@@QAEXXZ
       9506  7DF 0048CDE0 ??_Fasn_enumerated@JONAH@@QAEXXZ
       9512  7E0 0048DD80 ??_Fasn_generalizedtime@JONAH@@QAEXXZ
       9513  7E1 0048E420 ??_Fasn_ia5String@JONAH@@QAEXXZ
       9514  7E2 0048CC90 ??_Fasn_integer@JONAH@@QAEXXZ
       9515  7E3 0048D040 ??_Fasn_namedbits@JONAH@@QAEXXZ
       9516  7E4 0048D4F0 ??_Fasn_nothing@JONAH@@QAEXXZ
       9517  7E5 0048D400 ??_Fasn_null@JONAH@@QAEXXZ
       9518  7E6 0048CAE0 ??_Fasn_object@JONAH@@QAEXXZ
       9529  7E7 0048D2F0 ??_Fasn_octetstring@JONAH@@QAEXXZ
       9530  7E8 0048D5F0 ??_Fasn_oid@JONAH@@QAEXXZ
       9531  7E9 0048CB30 ??_Fasn_primitive@JONAH@@QAEXXZ
       9532  7EA 0048E4A0 ??_Fasn_printableString@JONAH@@QAEXXZ
       9533  7EB 0048D7C0 ??_Fasn_sequence@JONAH@@QAEXXZ
       9534  7EC 0048DB70 ??_Fasn_set@JONAH@@QAEXXZ
       9535  7ED 0048D970 ??_Fasn_sorted@JONAH@@QAEXXZ
       9536  7EE 0048E720 ??_Fasn_teletexString@JONAH@@QAEXXZ
       9537  7EF 0048E8E0 ??_Fasn_universalString@JONAH@@QAEXXZ
       9538  7F0 0048E5E0 ??_Fasn_visibleString@JONAH@@QAEXXZ
       9539  7F1 0048EBE0 ??_Fasn_x500name@JONAH@@QAEXXZ
       9540  7F2 0048C9F0 ??_Fbuffer_t@JONAH@@QAEXXZ
       9541  7F3 00597F20 ??_Flsasn1@JONAH@@QAEXXZ
       9542  7F4 00491830 ??_Fpkcs_12PbeParams@JONAH@@QAEXXZ
       9543  7F5 0048F800 ??_Fx509_Extension@JONAH@@QAEXXZ
       9544  7F6 004990D0 ??_Fx509_Extensions@JONAH@@QAEXXZ
       9545  7F7 004A28C0 ??_Fx509_certificate@JONAH@@QAEXXZ
       9546  7F8 0096F360 ?AbortCheck@CNetSession@@QAGGXZ
       9547  7F9 01177550 ?AbortCommands@CDefActionCtx@@UAGXXZ
       9548  7FA 00683AF0 ?AbortSearch@CLdapClient@@QAEGXZ
       9549  7FB 00972C40 ?AcceptNewSession@CServerSession@@QAGGPAUSESSIONID@@@Z
       9550  7FC 004B03E0 ?AcceptToken@CSecSecurityProvider@@QAEGKPBEPAH1GGK@Z
       9551  7FD 0021B750 ?AccessColumn@CViewFormat@@QAGPAVCColumnFormat@@GH@Z
       9552  7FE 00471680 ?AccessFirstSortedColumn@CViewFormat@@QAGPAVCColumnFormat@@XZ
       9553  7FF 00471720 ?AccessFirstVisibleSortedColumn@CViewFormat@@QAGPAVCColumnFormat@@XZ
       9554  800 0021B690 ?AccessLastVisibleColumn@CViewFormat@@QAGPAVCColumnFormat@@H@Z
       9555  801 008D50C0 ?Add@CBTree@@QAEGPAXGG@Z
       9556  802 008D68F0 ?Add@CBookMarkDb@@QAGGPAUtagRESOURCELINK@@0PADG1GKKPAKPAUUNIVERSALNOTEID_tag@@PAG@Z
       9557  803 008D73B0 ?Add@CBookMarkDb@@QAGGPAVCSiteMapEntry@@PADKKPAK@Z
       9558  804 0031FF50 ?Add@CCSValueArray@@QAEGABV1@K@Z
       9559  805 0031FDF0 ?Add@CCSValueArray@@QAEGABVCCSValue@@K@Z
       9560  806 00088430 ?Add@CCache@@UAGGPAXPBDKPAPAVCCacheEntry@@@Z
       9561  807 007E1F70 ?Add@CHashTable@@QAGGPBDPAX@Z
       9562  808 007CEE80 ?Add@CMemStrList@@UAEGABVCMemStr@@@Z
       9563  809 00173480 ?Add@CObjectArray@@QAGGPAVCNotesBaseClass@@@Z
       9564  80A 007D0230 ?Add@CSortedMemStrList@@UAEGABVCMemStr@@@Z
       9565  80B 008F6150 ?AddAccountParams@Config@@QAGGPBUtagAccountParam@@GW4UpdateOnAdd@@P6GXGW4ActionType@@W4ParamDoc@@PAD@Z@Z
       9566  80C 010F3200 ?AddAutoArrayedProperty@CJSBaseObjectClass@@QAEGPAVJSNotesPropName@@PAVCJSNotesValue@@@Z
       9567  80D 008D7A30 ?AddByMultNoteID@CBookMarkDb@@QAGGPAX0PADK1K@Z
       9568  80E 008D78E0 ?AddByNoteID@CBookMarkDb@@QAGGPAXKPADK1KPAK@Z
       9569  80F 01177550 ?AddChildNotify@CJSBaseObjectClass@@MAEXPAV1@@Z
       9570  810 00475100 ?AddColumn@CViewFormat@@QAGGPAVCColumnFormat@@G@Z
       9571  811 008F6660 ?AddConfigurationParam@Config@@QAGGPBDG0W4UpdateOnAdd@@@Z
       9572  812 008F6610 ?AddConfigurationParam@Config@@QAGGPBDGKW4UpdateOnAdd@@@Z
       9573  813 008F6660 ?AddConfigurationParam@Config@@QAGGPBDGPAUCONFIG_COMPOSITE_DT@@W4UpdateOnAdd@@@Z
       9574  814 008F66B0 ?AddConfigurationParam@Config@@QAGGPBDGPAXGW4UpdateOnAdd@@@Z
       9575  815 008F5FB0 ?AddConfigurationParams@Config@@QAGGPBUtagConfigurationParam@@GW4UpdateOnAdd@@P6GXGW4ActionType@@W4ParamDoc@@PAD@Z@Z
       9576  816 008F6070 ?AddConnectionParams@Config@@QAGGPBUtagConnectionParam@@GW4UpdateOnAdd@@P6GXGW4ActionType@@W4ParamDoc@@PAD@Z@Z
       9577  817 008F6840 ?AddDatabaseParam@Config@@QAGGPBDG0W4UpdateOnAdd@@PAD22@Z
       9578  818 0074F550 ?AddDefaultAnonymousXACL@CLDAPDomainConfig@@SGGPAUNSFXACL_HEADER@@PBD@Z
       9579  819 00193BD0 ?AddDefaultMod@LSsInstance@@QAGPAULSsModule@@XZ
       9580  81A 008DAB60 ?AddDesignExtFlag@CDesignNote@@QAGXD@Z
       9581  81B 008DAB20 ?AddDesignFlag@CDesignNote@@QAGXD@Z
       9582  81C 007E1CB0 ?AddElement@CHashTable@@QAGGPAVCHashElement@@@Z
       9583  81D 0074E680 ?AddElement@CTblBuffer@@QAGXPBDK@Z
       9584  81E 0074E200 ?AddElement@CTblBuffer@@QAGXPBUTBLBUFFER_DESC@@KKK@Z
       9585  81F 0007A600 ?AddEntry@CSiteMapStore@@UAGGPAVCSiteMapEntry@@0K@Z
       9586  820 00476F80 ?AddEntry@CViewFontTable@@IAGGEEUGUIFONTFACEID@@PAD@Z
       9587  821 008EBCA0 ?AddEntrySorted@CReplicaList@@QAGGPBDPBUtagTIMEDATE@@0H@Z
       9588  822 00234910 ?AddEntrySorted@CSiteMapStore@@QAGGPAVCSiteMapEntry@@0K@Z
       9589  823 007B9FF0 ?AddFormulaTerm@CRawQuery@@QAGGPAX@Z
       9590  824 007CF890 ?AddHead@CPointerList@@QAEPAU__PTR_LIST_POS@@PAX@Z
       9591  825 008F6750 ?AddIniParam@Config@@QAGGPBDG0W4UpdateOnAdd@@@Z
       9592  826 008F6700 ?AddIniParam@Config@@QAGGPBDGKW4UpdateOnAdd@@@Z
       9593  827 008F6230 ?AddIniParams@Config@@QAGGPBUtagIniParam@@GW4UpdateOnAdd@@P6GXGW4ActionType@@W4ParamDoc@@PAD@Z@Z
       9594  828 009BA570 ?AddItem@CAssociatedItems@@QAGGPAD0GPAK@Z
       9595  829 0007FF50 ?AddKey@CCache@@UAGGPBDPAVCCacheEntry@@K@Z
       9600  82A 000885B0 ?AddMultiKey@CCache@@UAGGPAXPAULIST@@KPAPAVCCacheEntry@@@Z
       9601  82B 007D8490 ?AddNewTaskStat@CTaskStatDictionary@@QAGGPADW4TaskOrStat@@K@Z
       9602  82C 007D90B0 ?AddNewTaskStat@CTaskStatDictionary@@QAGGPADW4TaskOrStat@@PAK@Z
       9603  82D 008D6C80 ?AddNoteToFolder@CBookMarkDb@@QAGGPADKKPAK@Z
       9604  82E 010F40E0 ?AddRef@CJSSession@@QAEKXZ
       9605  82F 00065E30 ?AddRef@CRefCntBaseClass@@QAEXXZ
       9606  830 010FFE30 ?AddRef@LSIModule@@QAGGXZ
       9607  831 01177550 ?AddReferencer@CCacheEntry@@UAGXXZ
       9608  832 001253D0 ?AddReferencer@CSiteMapStore@@QAGXXZ
       9609  833 007BA100 ?AddSQLQueryTerm@CRawQuery@@QAGGPAD@Z
       9610  834 008F65C0 ?AddServerParam@Config@@QAGGPBDG0W4UpdateOnAdd@@@Z
       9611  835 008F6570 ?AddServerParam@Config@@QAGGPBDGKW4UpdateOnAdd@@@Z
       9612  836 008F5EF0 ?AddServerParams@Config@@QAGGPBUtagServerParam@@GW4UpdateOnAdd@@P6GXGW4ActionType@@W4ParamDoc@@PAD@Z@Z
       9613  837 008F67F0 ?AddSiteParam@Config@@QAGGPBDG0W4UpdateOnAdd@@@Z
       9614  838 008F67A0 ?AddSiteParam@Config@@QAGGPBDGKW4UpdateOnAdd@@@Z
       9615  839 008F62F0 ?AddSiteParams@Config@@QAGGPBUtagSiteParam@@GW4UpdateOnAdd@@P6GXGW4ActionType@@W4ParamDoc@@PAD@Z@Z
       9616  83A 007CF8D0 ?AddTail@CPointerList@@QAEPAU__PTR_LIST_POS@@PAX@Z
       9617  83B 007D8CC0 ?AddTaskStat@CTaskStatList@@QAGGKH@Z
       9618  83C 0109DFC0 ?AddTempHistoryEntry@CSiteMapStore@@QAGXKPBD@Z
       9619  83D 007BF9A0 ?AddTerm@CTermList@@QAGGPAVCTermElement@@@Z
       9620  83E 007AEC20 ?AddTextTerm@CRawAction@@UAGGPAD@Z
       9621  83F 007AEC20 ?AddTextTerm@CRawJavaScript@@UAGGPAD@Z
       9622  840 007BA220 ?AddTextTerm@CRawQuery@@UAGGPAD@Z
       9623  841 007AEC20 ?AddTextTerm@CRawStyleSheet@@UAGGPAD@Z
       9624  842 008D5F70 ?AddToFolder@CBookMarkDb@@QAGGPADKPAXPAK@Z
       9625  843 008E9EF0 ?AddToHistory@CReplica@@QAGGPAD@Z
       9626  844 0074FAC0 ?AddToLDAPQueryResultsCache@@YGGPAUldap_process@@AAVCMemStr@@1AAVCTblBuffer@@@Z
       9627  845 006851D0 ?AddToLdapSearchFilter@CSearchCondition@@QAE?AVCMemStr@@PBD@Z
       9628  846 006822A0 ?AddToObsoleteList@CIMailResync@@QAEGKKJ@Z
       9629  847 007B1CC0 ?AddToReplyList@CRawActionReply@@IAGGPADH@Z
       9630  848 007D9F50 ?Adjust@CTimeDate@@QAEHHHHHHH@Z
       9631  849 007D33F0 ?AdjustCache@CStream@@QAGGKKAAK@Z
       9632  84A 007AE240 ?AgentDelete@CAssistant@@QAGGXZ
       9633  84B 007A8A40 ?AgentIsEnabled@CAssistant@@QAGGPAH@Z
       9634  84C 007AE380 ?AgentLoad@CDefActionCtx@@UAGGKPAPAVCAssistant@@@Z
       9635  84D 010F33B0 ?AliasProperty@CJSBaseObjectClass@@QAEGPAVJSNotesPropName@@0@Z
       9636  84E 003C7330 ?AllEntriesReferenced@MIMEWalkEntry@@QAEHH@Z
       9637  84F 008D52C0 ?Alloc@CBTree@@MAEGXZ
       9638  850 007CB0C0 ?Alloc@CHandlePool@@QAEGXZ
       9639  851 007E0A20 ?AllocBuffer@SmartMemoryObjectBuffer@@QAGGKW4SmartMemoryObjectBufferType@@PAXG@Z
       9640  852 008DBC00 ?Allocate@CHandleBuffer@@QAGGABHAAK@Z
       9641  853 005BCDE0 ?Allocate@jonah_base_class@JONAH@@QBEPAXI@Z
       9642  854 004719E0 ?AlterColumnWidth@CViewFormat@@QAGXGG@Z
       9643  855 008F6A80 ?Append@CEZFontTable@@QAGGEPADPAE@Z
       9644  856 006800D0 ?Append@CIMAP4Client@@QAGGPAUASYNC_CONTEXT@@GPADPAVCStream@@KPAVCStr@@@Z
       9645  857 007CC300 ?Append@CListBase@@QAGGPBX@Z
       9646  858 007CCF30 ?Append@CMemStr@@QAEGABV1@@Z
       9647  859 007CCE90 ?Append@CMemStr@@QAEGPBDG@Z
       9648  85A 007CEFE0 ?Append@CNumberList@@QAGGAAV1@@Z
       9649  85B 007D2E60 ?Append@CStrList@@QAGGAAVCStr@@H@Z
       9650  85C 007D5350 ?Append@CStream@@UAGGABV1@KK@Z
       9651  85D 000673D0 ?Append@CStream@@UAGGPBD@Z
       9652  85E 00067400 ?Append@CStream@@UAGGPBDK@Z
       9653  85F 007D9C60 ?Append@CTextList@@QAGGAAV1@@Z
       9654  860 007D95F0 ?Append@CTextList@@QAGGPBDK@Z
       9655  861 00049120 ?Append@CVector@@UAEGPBX@Z
       9656  862 0004D550 ?Append@ListMgr@@QAEXPAVLinkedElement@@@Z
       9657  863 007465C0 ?AppendAdd@CLDAPModList@@QAEGPBDGPBXK@Z
       9658  864 00746920 ?AppendDelete@CLDAPModList@@QAEGPBD@Z
       9659  865 007D7C20 ?AppendKnownLen@CStream@@QAGGABV1@KK@Z
       9660  866 007D5700 ?AppendKnownLen@CStream@@QAGGPBDK@Z
       9661  867 00681470 ?AppendParam@CIMailConfig@@QAGGW4tageCONFIG@@PAD@Z
       9662  868 007467E0 ?AppendReplace@CLDAPModList@@QAEGPBDGPBXK@Z
       9663  869 007DAAB0 ?AppendReserve@CVector@@UAEGK@Z
       9664  86A 004AAD00 ?AppendToBuffer@CSecWasSSOToken@@QAGGPADKPAK@Z
       9665  86B 007D43E0 ?AppendToNoteAsObject@CStream@@QAGGPAXPAD0GG0@Z
       9666  86C 007D4540 ?AppendToNoteAsText@CStream@@QAGGPAXGPAD@Z
       9667  86D 007D2F70 ?AppendToNoteAsTextList@CStrList@@QAGGPAXGPAD@Z
       9668  86E 007D5480 ?AppendUpdateStore@CStream@@QAGGK@Z
       9669  86F 004ABFA0 ?ApplyLTPA2Crypto@CSecLtpaToken2@@QAGGGPAEGG0KKPAK@Z
       9670  870 00F21CC0 ?AquireThread@CLDAPThread@@QAEGXZ
       9671  871 005CBC30 ?Array2BMP@JONAH@@YAHQAGAAVbuffer_t@1@@Z
       9672  872 005CBC80 ?Array2Univ@JONAH@@YAHQAIAAVbuffer_t@1@@Z
       9673  873 010F3C10 ?AsValueBool@CJSNotesValue@@QAEGPAH@Z
       9674  874 010F3BC0 ?AsValueNumber@CJSNotesValue@@QAEGPAJ@Z
       9675  875 010F3DC0 ?AsValueObject@CJSNotesValue@@QAEGPAPAVCJSBaseObjectClass@@@Z
       9676  876 010F3C60 ?AsValueStringBytes@CJSNotesValue@@QAEGPADGPAG@Z
       9677  877 010F3D30 ?AsValueStringBytes@CJSNotesValue@@QAEGPAVCStream@@@Z
       9678  878 005CDB10 ?AsnGetIntegerValue@@YAHPAPAEPAII01H@Z
       9679  879 00962F80 ?AssociateSession@CNetIOCP@@QAGGAAUSESSIONID@@AAUINETTASKID@@@Z
       9680  87A 00971F50 ?AsyncReceiveDataQ@CNetSession@@QAGGPAXKKAAKADH1@Z
       9681  87B 00971AF0 ?AsyncReceiveLineQ@CNetSession@@QAGGAAVCStr@@KADHAAK@Z
       9682  87C 00971D90 ?AsyncReceiveNDataQ@CNetSession@@QAGGAAVCStr@@KKADHAAK@Z
       9683  87D 00971620 ?AsyncSendQ@CNetSession@@QAGGAAVCStr@@ADHKAAK@Z
       9684  87E 00971880 ?AsyncSendQ@CNetSession@@QAGGPAXKADHKAAK@Z
       9685  87F 0011DC30 ?Attach@CNote@@QAGGPAX@Z
       9686  880 005CBAF0 ?BMP2Array@JONAH@@YAHAAVr_buffer_t@1@PAG@Z
       9687  881 004AB1D0 ?Base64EncodeTokenBuffer@CSecWasSSOToken@@QAGGPAK@Z
       9688  882 007D0C40 ?BeginsMethod@CStr@@QAGHAAV1@H@Z
       9689  883 007D0D10 ?BeginsMethod@CStr@@QAGHPADKH@Z
       9690  884 007D0D10 ?BeginsMethod@CStr@@QAGHPBDKH@Z
       9691  885 00EAA5F0 ?BindColumn@NIFSQL@@QAEGHHPAXHPAH@Z
       9692  886 00EAA8E0 ?BindColumn@NIFSQL@@QAEGHPADHPAH@Z
       9693  887 00EAA860 ?BindColumn@NIFSQL@@QAEGHPAH0@Z
       9694  888 00EAA860 ?BindColumn@NIFSQL@@QAEGHPAJPAH@Z
       9695  889 00EAA8A0 ?BindColumn@NIFSQL@@QAEGHPANPAH@Z
       9696  88A 00EA8320 ?BindParameter@NIFSQL@@QAEGHH@Z
       9697  88B 00EA7C10 ?BindParameter@NIFSQL@@QAEGHHPAXHH@Z
       9698  88C 00EA8320 ?BindParameter@NIFSQL@@QAEGHJ@Z
       9699  88D 00EA8360 ?BindParameter@NIFSQL@@QAEGHPAD@Z
       9716  88E 002313D0 ?BlobLoad@CCDBlobLoad@@QAGGPAPAX@Z
       9729  88F 00231370 ?BlobLoadBegin@CCDBlobLoad@@QAGGGK@Z
       9730  890 002314E0 ?BlobLoadTerm@CCDBlobLoad@@QAGXXZ
       9731  891 002312C0 ?BlobPartLoad@CCDBlobLoad@@QAGGGPADKPAG@Z
       9732  892 008D7B30 ?BlobPartSave@CCDBlobSave@@IAGGGPADG@Z
       9734  893 008D7BB0 ?BlobSave@CCDBlobSave@@QAGGGPAXK@Z
       9735  894 00757B10 ?Build@ATTree@@QAEXPBD@Z
       9736  895 0075A700 ?Build@DCRTree@@QAEXPAVOCTree@@PADPBD@Z
       9737  896 0075A160 ?Build@OCTree@@QAEXPAVATTree@@PADPBDG@Z
       9738  897 00759F10 ?Build@SyntaxTree@@QAEXXZ
       9739  898 008DC200 ?BuildKey@CNIFCollection@@QAAGAAVCHandleBuffer@@GZZ
       9740  899 00471090 ?BuildTitle@@YGGPADG0G0G@Z
       9741  89A 005CFBD0 ?CR_HMACWithSHA1@JONAH@@YAIABVr_buffer_t@1@0AAVbuffer_t@1@@Z
       9742  89B 005CED20 ?CR_PKCS12_DecryptContent@JONAH@@YAIABVr_buffer_t@1@0JPAEV21@AAVbuffer_t@1@@Z
       9743  89C 005CF3D0 ?CR_PKCS12_DecryptContentNoPasswordLegacy@JONAH@@YAIABVr_buffer_t@1@0JPAEV21@AAVbuffer_t@1@@Z
       9744  89D 005CFFB0 ?CR_PKCS12_EncryptContent@JONAH@@YAIABVr_buffer_t@1@0JPAEV21@AAVbuffer_t@1@@Z
       9745  89E 005CFA90 ?CR_PKCS12_generate_salt@JONAH@@YAIAAVbuffer_t@1@@Z
       9746  89F 005CFB30 ?CR_PKCS12_generate_salt_8@JONAH@@YAIAAVbuffer_t@1@@Z
       9747  8A0 005CDFE0 ?CR_PKCS12_makekey@JONAH@@YAIPAEABVr_buffer_t@1@W4p12keytype_t@1@JIAAVbuffer_t@1@@Z
       9748  8A1 005CE690 ?CR_PKCS12_makekey_NoPasswordLegacy@JONAH@@YAIPAEABVr_buffer_t@1@W4p12keytype_t@1@JIAAVbuffer_t@1@@Z
       9749  8A2 0021BB80 ?CVF_ClearCustomizations@CViewFormat@@QAGXXZ
       9750  8A3 004760B0 ?CVF_CreateCustomOrderMap@CViewFormat@@QAGXXZ
       9751  8A4 00474BD0 ?CVF_IntializeOriginalColumnOrder@CViewFormat@@QAGXXZ
       9752  8A5 00473730 ?CVF_MakeCustomViewType@CViewFormat@@QAGXG@Z
       9753  8A6 004AABF0 ?CalcEncodeBufferSize@CSecWasSSOToken@@QAGKXZ
       9754  8A7 0031E090 ?CancelMeeting@CCSMeeting@@QAGHPAXPAUUNIVERSALNOTEID_tag@@HHH@Z
       9755  8A8 00477050 ?Canonicalize@CViewFontTableBE@@UAGXUGUIFONT@@KPAK@Z
       9756  8A9 010F2AA0 ?CastToClassThunk@CJSArrayHelperClass@@UAEPAXPAG@Z
       9757  8AA 010F2C30 ?CastToClassThunk@CJSBaseObjectClass@@UAEPAXPAG@Z
       9758  8AB 001B2590 ?ChangeHandle@CRefCntHandleClass@@QAEGPAXK@Z
       9759  8AC 001B27B0 ?ChangeHandle@CRefCntHandleReference@@QAEGPAXK@Z
       9760  8AD 0109E4F0 ?ChangeView@CSiteMapStore@@QAGPAV1@W4eSiteMapViewType@@PAVCBookMarkDb@@PAX@Z
       9761  8AE 0067FDA0 ?Check@CIMAP4Client@@QAGGPAUASYNC_CONTEXT@@@Z
       9762  8AF 007A8520 ?CheckAgentSigniture@CAssistant@@QAGGPAXPAD@Z
       9763  8B0 00473AF0 ?CheckConstantValues@CViewFormat@@QAGGXZ
       9764  8B1 004AB640 ?CheckExpiration@CSecWasSSOToken@@QAGGPAUtagTIMEDATE@@@Z
       9765  8B2 0096BD20 ?CheckForOutstandingReceives@CNetSession@@QAGHXZ
       9766  8B3 0096BBB0 ?CheckForOutstandingSends@CNetSession@@QAGHXZ
       9767  8B4 0096BC60 ?CheckForQueuedReceives@CNetSession@@QAGHXZ
       9768  8B5 0096BB00 ?CheckForQueuedSends@CNetSession@@QAGHXZ
       9769  8B6 0109F680 ?CheckHomeMailServer@CSiteMapReplStore@@QAGHPAVCSiteMapReplEntry@@H@Z
       9770  8B7 004ACF60 ?CheckRealmAndExtractUsername@CSecWasSSOToken@@QAGGPAKPAPAD0@Z
       9771  8B8 010F35C0 ?CheckSecurity@CJSBaseObjectClass@@QAEGPAVNJSContext@@GGPBDG@Z
       9772  8B9 00683960 ?CheckSendingMail@CLdapClient@@QAEHG@Z
       9773  8BA 004AC350 ?CheckTheSignature@CSecLtpaToken2@@QAGGXZ
       9774  8BB 004AD6A0 ?CheckTheSignature@CSecLtpaToken@@QAGGXZ
       9775  8BC 000886E0 ?CheckThresholds@CCache@@UAGGK@Z
       9776  8BD 006C6370 ?CheckValidObject@CMimeEntity@@QAEHXZ
       9777  8BE 00320A50 ?ClassifyMessage@CGURUInternetClient@@QAGGPAVCStream@@PAGPAUGURUCContext@@@Z
       9778  8BF 008DE5A0 ?CleanUp@CManageDIP@@SGXXZ
       9779  8C0 008E5060 ?CleanUp@CManageDPAB@@QAGXH@Z
       9780  8C1 007A66B0 ?CleanUpRunData@CAssistant@@IAGXXZ
       9781  8C2 009BB1A0 ?Clear@CAssociatedItems@@QAGGXZ
       9782  8C3 008D5330 ?Clear@CBTree@@UAEXXZ
       9783  8C4 0031E4B0 ?Clear@CCSValue@@QAEXXZ
       9784  8C5 0031FDB0 ?Clear@CCSValueArray@@UAEXXZ
       9785  8C6 01098F70 ?Clear@CDAVNoteStore@@QAGXXZ
       9786  8C7 00150BB0 ?Clear@CEventLanguageTable@@QAGXXZ
       9787  8C8 008DAF70 ?Clear@CFolderInfo@@QAGXXZ
       9789  8C9 008DB2E0 ?Clear@CFolderRefInfo@@QAGXXZ
       9790  8CA 008DC1C0 ?Clear@CHandleBuffer@@QAGXXZ
       9791  8CB 00746360 ?Clear@CLDAPModList@@QAEXXZ
       9792  8CC 007CBB30 ?Clear@CLMBCSToMimeText@@QAEGXZ
       9808  8CD 007CC3E0 ?Clear@CListBase@@QAGXXZ
       9809  8CE 00033FB0 ?Clear@CMemStr@@QAEXXZ
       9810  8CF 008DC360 ?Clear@CNIFEntryData@@QAGXXZ
       9811  8D0 007CF0A0 ?Clear@CNumberList@@QAGXXZ
       9812  8D1 00118430 ?Clear@CSiteMapStore@@QAGXXZ
       9813  8D2 007D3140 ?Clear@CStrList@@QAGXXZ
       9814  8D3 00067190 ?Clear@CStream@@QAGXXZ
       9815  8D4 001B2190 ?Clear@CTermList@@QAGGXZ
       9816  8D5 007D99A0 ?Clear@CTextList@@QAGXXZ
       9817  8D6 00107C90 ?Clear@CVector@@UAEGXZ
       9818  8D7 0021B250 ?Clear@CViewFormat@@QAGXXZ
       9819  8D8 00112CE0 ?Clear@ListMgr@@QAGXXZ
       9820  8D9 007E0D60 ?Clear@SmartMemoryObject@@QAEXXZ
       9821  8DA 007CF5A0 ?ClearAt@CObjectArray@@QAGPAVCNotesBaseClass@@G@Z
       9822  8DB 008CF430 ?ClearCache@CAcctMgmt@@QAEXXZ
       9823  8DC 008F2090 ?ClearCache@CTrustMgmt@@QAEXXZ
       9824  8DD 01098AC0 ?ClearChanged@CDAVNoteStore@@QAGXXZ
       9825  8DE 007D39B0 ?ClearFileStore@CStream@@QAGXXZ
       9826  8DF 010CD4E0 ?ClearInfoBlkFlag@CPROGDocument@@QAGXK@Z
       9827  8E0 007DC170 ?ClearLookup@NABLookup@@QAEXXZ
       9828  8E1 008E1BB0 ?ClearLookupCache@CManageDPAB@@QAEGPAX@Z
       9829  8E2 00471920 ?ClearModified@CViewFormat@@QAGXXZ
       9830  8E3 008EC620 ?ClearNew@CReplicaSelectionNote@@QAGGG@Z
       9831  8E4 008EC5F0 ?ClearNewAll@CReplicaSelectionNote@@QAGGXZ
       9832  8E5 0012CE90 ?Clone@CEventLanguageTable@@QAGGAAV1@@Z
       9833  8E6 007E2240 ?Clone@CHashTable@@QAGXAAV1@@Z
       9834  8E7 007B77F0 ?Clone@CRawActionByForm@@UAGGPAPAVCTermElement@@@Z
       9835  8E8 007B7610 ?Clone@CRawActionDBCopy@@UAGGPAPAVCTermElement@@@Z
       9836  8E9 007B7720 ?Clone@CRawActionDelete@@UAGGPAPAVCTermElement@@@Z
       9837  8EA 007B79B0 ?Clone@CRawActionFolder@@UAGGPAPAVCTermElement@@@Z
       9838  8EB 007B6D40 ?Clone@CRawActionFormula@@UAGGPAPAVCTermElement@@@Z
       9839  8EC 007B6E80 ?Clone@CRawActionLotusScript@@UAGGPAPAVCTermElement@@@Z
       9840  8ED 007B6A40 ?Clone@CRawActionModifyField@@UAGGPAPAVCTermElement@@@Z
       9841  8EE 007B9090 ?Clone@CRawActionNewsletter@@UAGGPAPAVCTermElement@@@Z
       9842  8EF 007B7920 ?Clone@CRawActionReadMarks@@UAGGPAPAVCTermElement@@@Z
       9843  8F0 007B6B80 ?Clone@CRawActionReply@@UAGGPAPAVCTermElement@@@Z
       9844  8F1 007B7A90 ?Clone@CRawActionRunAgent@@UAGGPAPAVCTermElement@@@Z
       9845  8F2 007B7B60 ?Clone@CRawActionSendDocument@@UAGGPAPAVCTermElement@@@Z
       9846  8F3 007B6FC0 ?Clone@CRawActionSendMail@@UAGGPAPAVCTermElement@@@Z
       9847  8F4 007B9C00 ?Clone@CRawJavaScriptTerm@@UAGGPAPAVCTermElement@@@Z
       9848  8F5 007BDFD0 ?Clone@CRawQueryByField@@UAGGPAPAVCTermElement@@@Z
       9849  8F6 007BED60 ?Clone@CRawQueryByForm@@UAGGPAPAVCTermElement@@@Z
       9850  8F7 007BDD90 ?Clone@CRawQueryFormula@@UAGGPAPAVCTermElement@@@Z
       9851  8F8 007BD820 ?Clone@CRawQueryTextTerm@@UAGGPAPAVCTermElement@@@Z
       9852  8F9 007BEFC0 ?Clone@CRawQueryTopicTerm@@UAGGPAPAVCTermElement@@@Z
       9853  8FA 007BEC20 ?Clone@CRawQueryUsesForm@@UAGGPAPAVCTermElement@@@Z
       9854  8FB 007BF610 ?Clone@CRawStyleSheetTerm@@UAGGPAPAVCTermElement@@@Z
       9855  8FC 0109BB00 ?Clone@CSiteMapStore@@QAGGPAPAV1@@Z
       9856  8FD 007BFA00 ?Clone@CTermList@@QAGGPAPAV1@@Z
       9857  8FE 007DA860 ?Clone@CVector@@UAEGABV1@@Z
       9858  8FF 010988B0 ?CloneEntry@CDAVNoteStore@@QAGGPAVCDAVNoteEntry@@PAPAV2@@Z
       9859  900 0109B860 ?CloneEntry@CSiteMapStore@@QAGGPAVCSiteMapEntry@@PAPAV2@@Z
       9860  901 004731A0 ?CloneSQLSelectionQuery@CViewFormat@@QAGGPAPAVCRawQuery@@@Z
       9861  902 00473160 ?CloneSelectionQuery@CViewFormat@@QAGGPAPAVCRawQuery@@@Z
       9862  903 007BFA90 ?CloneTerm@CTermList@@QAGGHPAPAVCTermElement@@@Z
       9863  904 00960640 ?Close@CClientSession@@QAGGXZ
       9864  905 0012CF20 ?Close@CDatabase@@UAGGXZ
       9865  906 003CF900 ?Close@CMimeDirectory@@QAEGXZ
       9866  907 008DBCD0 ?Close@CNIFCollection@@QAGGXZ
       9867  908 0028F0A0 ?Close@CNNTPDatabase@@UAGGXZ
       9868  909 009BE140 ?Close@CNSFNoteExtendableFileObj@@QAGGH@Z
       9869  90A 001B6DC0 ?Close@CNote@@QAGGXZ
       9870  90B 003CB0F0 ?CloseBodyFileStores@CMimeEntity@@QAEGXZ
       9871  90C 007D3A60 ?CloseFileStore@CStream@@QAGXXZ
       9872  90D 010FEFB0 ?CloseJavaConnection@LSISession@@QAGGXZ
       9873  90E 0067FE20 ?CloseMailbox@CIMAP4Client@@QAGGPAUASYNC_CONTEXT@@G@Z
       9874  90F 003D6CA0 ?CollectPartsToDisclaim@CMimeDirectory@@QAEGXZ
       9875  910 004717D0 ?ColumnModified@CViewFormat@@QAGHXZ
       9876  911 009BDC30 ?Commit@CNSFNoteExtendableFileObj@@QAGGXZ
       9877  912 00EA8400 ?Commit@NIFSQL@@QAEGXZ
       9878  913 007E1480 ?Compare@CHashElement@@QAGHVCMemStr@@K@Z
       9879  914 007E1440 ?Compare@CHashElement@@UAGHPAV1@K@Z
       9880  915 007CCAA0 ?Compare@CMemStr@@QBEHPBD@Z
       9881  916 007CF100 ?Compare@CNumberList@@UAGHPBX0@Z
       9882  917 007D9A20 ?Compare@CTextList@@UAGHPBX0@Z
       9883  918 007CCAD0 ?CompareN@CMemStr@@QBEHPBDK@Z
       9884  919 00112CB0 ?CompareNoCase@CMemStr@@QBEHPBD@Z
       9885  91A 007CCB00 ?CompareNoCaseN@CMemStr@@QBEHPBDK@Z
       9886  91B 010FFB70 ?CompileScript@LSIModule@@QAGGPADKF@Z
       9887  91C 010FCA00 ?CompileTheNote@CLSIDocument@@QAGGPAX0K@Z
       9888  91D 010F2B40 ?ComputeArrayLength@CJSArrayHelperClass@@UAEGPAG@Z
       9889  91E 00477060 ?ComputeGUIFace@CViewFontTableBE@@UAGXPBDEPAUGUIFONTFACEID@@@Z
       9890  91F 00F95E70 ?ComputeScriptEntity@HTMLEmitter@@UAEGPBDPAPAD0KH@Z
       9891  920 00471870 ?ConflictResponseColumn@CViewFormat@@QAGHXZ
       9892  921 00960140 ?Connect@CClientSession@@UAGGPADG@Z
       9893  922 0032D460 ?Connect@CInternetClient@@UAGGPADG@Z
       9894  923 00EA7860 ?Connect@NIFSQL@@QAEGPAXPAD11H@Z
       9895  924 00320740 ?ConnectToLearningServer@CGURUInternetClient@@QAGGPADG0@Z
       9896  925 00320510 ?ConnectToServer@CGURUInternetClient@@QAGGPADG0@Z
       9897  926 00333930 ?ConnectToServer@CSMTPInternetClient@@QAGGPADG0GKPAUSSLINFO@@00@Z
       9898  927 0074F820 ?ConstructLDAPQueryResultsCache@@YGGPAUldap_process@@@Z
       9899  928 007CE430 ?Contract@CMemStr@@QAEHPBD@Z
       9908  929 004AADF0 ?ConvertBufferToUTF8@CSecWasSSOToken@@QAGGXZ
       9909  92A 00321460 ?ConvertDigest2Octet@CIMAIL_Authentication@@QAGGPADGAAVCStr@@@Z
       9910  92B 008F6F60 ?ConvertLSIDate@LsConv@@SGGPAULSsApiInstance@@PANPAUtagTIMEDATE@@@Z
       9911  92C 008F6DB0 ?ConvertNotesDate@LsConv@@SGGPAULSsApiInstance@@PAUtagTIMEDATE@@FPAN@Z
       9912  92D 008F77F0 ?ConvertNotesStrToLSStr@LsConv@@SGGPAULSsApiInstance@@PADGPAPAGG@Z
       9913  92E 008F7330 ?ConvertNullsToEOL@LsConv@@SGGPADGPAPAD@Z
       9914  92F 0046EBF0 ?ConvertToNewStyle@CColumnFormat@@QAGXPAUDTFMT@@PAUTFMT@@@Z
       9915  930 0046ED10 ?ConvertToOldStyle@CColumnFormat@@QAG?AUTFMT@@UDTFMT@@@Z
       9916  931 009BB240 ?Copy@CAssociatedItems@@QAGGPAXPAD0HPAPAV1@@Z
       9917  932 008D9450 ?Copy@CDatabase@@QAGGPAXUtagTIMEDATE@@G@Z
       9918  933 007CC460 ?Copy@CListBase@@QAGXABV1@@Z
       9919  934 009BE2F0 ?Copy@CNSFNoteExtendableFileObj@@QAGGPAXPAD@Z
       9920  935 0068B5F0 ?Copy@CNewsServer@@QAEGPAX0PBD@Z
       9921  936 008E7DC0 ?Copy@CNote@@QAGGPAX@Z
       9922  937 007CFF60 ?Copy@CSet@@QAGGAAV1@@Z
       9923  938 007D98D0 ?Copy@CTextList@@QAGXABV1@@Z
       9924  939 00763BD0 ?Copy@PYLTree@@QAEXPAVPYLNode@@PAV1@@Z
       9925  93A 008D9430 ?CopyACL@CDatabase@@QAGGPAX@Z
       9926  93B 008D4EB0 ?CopyAcctsFromMediaKit@CAcctMgmt@@QAEGXZ
       9927  93C 008D4E90 ?CopyAcctsFromPolicy@CAcctMgmt@@QAEGQAX@Z
       9928  93D 008F4A30 ?CopyCertsFromMediaKit@CTrustMgmt@@QAEGXZ
       9929  93E 008F4A10 ?CopyCertsFromPolicy@CTrustMgmt@@QAEGQAX@Z
       9930  93F 00473EF0 ?CopyColumnAttrib@CViewFormat@@QAGGGPADGPAGPAH220GPAPAX1@Z
       9931  940 0046F580 ?CopyColumnClipInfo@CColumnFormat@@QAGGPAUtagCOLUMNCLIPINFO@@@Z
       9932  941 0109D4E0 ?CopyEntries@CSiteMapStore@@QAGGPAVCSiteMapEntry@@00KPAV1@@Z
       9933  942 0029AD80 ?CopyMark@SgmlInputStream@@UAEGPAUSgmlInputStreamBasicMark@@0@Z
       9934  943 0067FF20 ?CopyMessages@CIMAP4Client@@QAGGPAUASYNC_CONTEXT@@GPAU_MSGSET@@PADH@Z
       9935  944 002FED50 ?CopyPUID@CLogEvent@@QAEXPBUEVENT_CTX@@@Z
       9936  945 006888D0 ?CopyToLocalAddressBook@CLdapClient@@QAEGH@Z
       9937  946 007A9A10 ?Create@CAssistant@@QAGGPAXH@Z
       9938  947 008D99E0 ?Create@CDatabase@@QAGGGHH@Z
       9939  948 008DABA0 ?Create@CDesignNote@@QAGGPAXGD@Z
       9940  949 010F37A0 ?Create@CJSNotesValue@@SGGPAPAV1@@Z
       9941  94A 003D6E40 ?Create@CMimeDirectory@@SGGPAKGW4tagMimeEnvelopeType@@@Z
       9942  94B 003D6EA0 ?Create@CMimeDirectory@@SGGPAKW4tagMimeEnvelopeType@@@Z
       9943  94C 003D55C0 ?Create@CMimeDirectory@@SGGPAKW4tagMimeEnvelopeType@@PAUCONVERSION_CONTROLS@@@Z
       9944  94D 009BB500 ?Create@CNSFNoteExtendableFileObj@@QAGGPAXPAD@Z
       9945  94E 008E8B70 ?Create@CNote@@UAGGPAXG@Z
       9946  94F 003C6C50 ?CreateBodyFile@MIMEWalkEntry@@QAEGXZ
       9947  950 008E6E20 ?CreateData@CManageDIP@@QAEGXZ
       9948  951 007CAEB0 ?CreateEntry@CCache@@UAGPAVCCacheEntry@@PAX@Z
       9949  952 007A86E0 ?CreateEx@CAssistant@@QAGGPAXHPAD@Z
       9950  953 004AD3A0 ?CreateExpirationAttr@CSecLtpaToken2@@QAGGUtagTIMEDATE@@@Z
       9951  954 0109EF60 ?CreateFromDesignList@CSiteMapStore@@QAGGPAXK@Z
       9952  955 003DB750 ?CreateFromODS@CMimeDirectory@@SGGPAPAXPAK@Z
       9953  956 008D9C90 ?CreateFromTemplate@CDatabase@@QAGGPBD0PAXK@Z
       9954  957 008DA650 ?CreateFromTemplate@CDatabase@@QAGGPBDK@Z
       9955  958 00290000 ?CreateFromTemplate@CNNTPViewNote@@UAGGPAXPADK@Z
       9956  959 008F4D00 ?CreateFromTemplate@CViewNote@@UAGGPAXPADK@Z
       9957  95A 00960AC0 ?CreateIOCPCtrlSession@CNetIOCP@@QAGGGAAUSESSIONID@@@Z
       9958  95B 010CD2D0 ?CreateInfoBlk@CPROGDocument@@QAGGKKKPAD0HUtagTIMEDATE@@@Z
       9959  95C 0033B5F0 ?CreateInterface@CCSInterface@@SGGPAPAV1@QBV1@@Z
       9960  95D 010F2EC0 ?CreateJSObjectInternal@CJSBaseObjectClass@@MAEGPAPAUNJSObject@@@Z
       9961  95E 010F4F90 ?CreateJavaObject@CJSSession@@QAEGPAXPAVCJSBaseObjectClass@@PAPAX@Z
       9962  95F 010E2D30 ?CreateJavaThread@CJavaDocument@@UAGGPAPAVJavaThread@@@Z
       9963  960 00972B30 ?CreateListenerSession@CServerSession@@QAGGXZ
       9964  961 0067FE80 ?CreateMailbox@CIMAP4Client@@QAGGPAUASYNC_CONTEXT@@GPAD@Z
       9965  962 0029ACF0 ?CreateMark@SgmlInputStream@@UAEGPAPAUSgmlInputStreamBasicMark@@@Z
       9966  963 008E7C00 ?CreateMessageID@CNote@@QAGGPADPAPAD@Z
       9967  964 010E4EA0 ?CreateModule@JavaSession@@QAGGPAPAVJavaModule@@PAD@Z
       9968  965 010FD270 ?CreateModule@LSISession@@QAGGPAPAVLSIModule@@PAE@Z
       9969  966 00686DD0 ?CreateNabNote@CLdapClient@@QAEGPAXHPAPAX@Z
       9970  967 0028FC60 ?CreateNewsgroup@CNNTPDatabase@@QAGGPBD@Z
       9971  968 00234720 ?CreateNodeEntry@CSiteMapStore@@QAGPAVCSiteMapEntry@@PADHPAV2@G@Z
       9972  969 008F7430 ?CreateNumberRange@LsConv@@SGGPAULSsApiInstance@@HPAEFPAULSsValue@@PAPAXPAPAEPAK@Z
       9974  96A 001F7A70 ?CreateObjNat@LSsObjMgr@@QAGPAVLScObjNat@@PAULSsModule@@G@Z
       9975  96B 010F3670 ?CreateObject@CJSClassFactoryClass@@UAEGGPAPAVCJSBaseObjectClass@@@Z
       9976  96C 010F4200 ?CreateObject@CJSSession@@QAEGHPAVCJSBaseObjectClass@@PAPAV2@@Z
       9977  96D 00681F00 ?CreateProgressBar@CProgressInfo@@QAEXXZ
       9978  96E 008D8BE0 ?CreateReplica@CCacheDb@@UAGGK@Z
       9979  96F 008EABC0 ?CreateReplica@CReplica@@UAGGK@Z
       9980  970 010E23F0 ?CreateRequest@CDaemonManager@@QAEGGP6GXPAX0@Z0PAK@Z
       9984  971 007ABB50 ?CreateRunData@CAssistant@@IAGGXZ
       9985  972 009653C0 ?CreateTask@CINetTask@@QAGGAAUSESSIONID@@AAUINETTASKID@@@Z
       9986  973 007BF9E0 ?CreateTerm@CTermList@@QAGGHPAPAVCTermElement@@@Z
       9987  974 010F98D0 ?CreateThread@CLSIDocument@@UAGGPAPAVLSIThread@@@Z
       9988  975 008F7680 ?CreateTimeList@LsConv@@SGGPAULSsApiInstance@@GPAEFPAULSsValue@@PAPAXPAPAEPAK@Z
       9989  976 00471F90 ?CreateUniqueItemName@CViewFormat@@QAGXGPAD@Z
       9990  977 004AD790 ?CreateUsernameAttr@CSecWasSSOToken@@QAGGPADK@Z
       9991  978 010E1F30 ?CreateWorker@CDaemon@@QAEGXZ
       9992  979 007AE470 ?DBOpen@CDefActionCtx@@UAGGPADPAPAX@Z
       9993  97A 007A9A30 ?DbOpenWithAccessControl@CAssistant@@QAGGPADPAPAXK@Z
       9994  97B 00F21810 ?Debug@CLDAPThread@@QAEXW4LDAP_THREAD_POOL_DEBUG_LEVEL@@@Z
       9995  97C 0073BDF0 ?DebugLogEntry@CLDAPEntry@@QAGGG@Z
       9996  97D 010E2880 ?DebugLogMessage@CDaemonTask@@QAAGPBDZZ
       9997  97E 010FFE50 ?DecRef@LSIModule@@QAGGH@Z
       9998  97F 00477030 ?Decanonicalize@CViewFontTableBE@@UAGXKPAUGUIFONT@@@Z
       9999  980 004AB2F0 ?DecodeB64Token@CSecWasSSOToken@@QAGGXZ
      10034  981 007D1560 ?DecodeEncodedData@CStr@@QAGGPAUtagCharSetInfo@@AAV1@KK@Z
      10035  982 007CDA90 ?DecodeRFC2047@CMemStr@@QBEGAAV1@@Z
      10036  983 008E7F40 ?Decrypt@CNote@@QAGGGPAK@Z
      10037  984 004AC5E0 ?DecryptToken@CSecLtpaToken2@@QAGGXZ
      10038  985 004AD600 ?DecryptToken@CSecLtpaToken@@QAGGXZ
      10039  986 0046F200 ?Default@CColumnFormat@@QAGGAAVCViewFontTable@@@Z
      10040  987 00474E70 ?Default@CViewFormat@@QAGGXZ
      10041  988 00473A90 ?DefaultAttributes@CViewFormat@@QAGXXZ
      10042  989 008D98F0 ?Delete@CDatabase@@QAGGXZ
      10043  98A 004B0170 ?Delete@CSecSecurityProvider@@SAXPAV1@@Z
      10044  98B 0067B430 ?DeleteACL@CIMAP4Client@@QAGGPAUASYNC_CONTEXT@@GPAD1@Z
      10045  98C 008DD810 ?DeleteAllRecentContacts@CManageDIP@@QAEGXZ
      10046  98D 007D8AE0 ?DeleteAllTaskStats@CTaskStatList@@QAGXXZ
      10047  98E 007ABDC0 ?DeleteDataNote@CAssistant@@QAGGXZ
      10048  98F 008D5250 ?DeleteEntry@CBTree@@QAEGPAX@Z
      10049  990 006C5370 ?DeleteHNote@CDefActionCtx@@UAGGPAX@Z
      10050  991 00960E70 ?DeleteIOCPCtrlSession@CNetIOCP@@QAGGAAUSESSIONID@@@Z
      10051  992 009BA9C0 ?DeleteItem@CAssociatedItems@@QAGGK@Z
      10052  993 009BB390 ?DeleteItem@CAssociatedItems@@QAGGPAD@Z
      10053  994 00680D20 ?DeleteMailbox@CIMAP4Client@@QAGGPAUASYNC_CONTEXT@@GPAD@Z
      10054  995 0067FF80 ?DeleteMessages@CIMAP4Client@@QAGGPAUASYNC_CONTEXT@@GPAU_MSGSET@@HK@Z
      10055  996 0111F670 ?DeleteModuleData@LSsInstance@@QAGXPAULSsModule@@@Z
      10056  997 0028F630 ?DeleteNewsgroup@CNNTPDatabase@@QAGGPBD@Z
      10057  998 011216F0 ?DeleteObject2@LSsThread@@QAGFPAVLScObject@@@Z
      10058  999 000E19A0 ?DeleteObject@LSsObjMgr@@QAGXPAVLScObject@@@Z
      10059  99A 00681F30 ?DeleteProgressBar@CProgressInfo@@QAEXXZ
      10060  99B 00964660 ?DeleteTask@CINetTask@@QAGGAAUINETTASKID@@@Z
      10061  99C 007D9210 ?DeleteTaskStat@CTaskStatDictionary@@QAGGPADPAK@Z
      10062  99D 007D8DE0 ?DeleteTaskStat@CTaskStatList@@QAGGKPAK@Z
      10063  99E 0074EB80 ?Dequeue@encQueue@@QAGGAAPAX@Z
      10064  99F 008EE730 ?DeregisterAll@CSubscriptionStore@@QAGXXZ
      10065  9A0 00473DA0 ?DeselectAll@CViewFormat@@QAGXXZ
      10066  9A1 008D6660 ?DesignReplaceFromDefaultTemplate@CBookMarkDb@@QAGHXZ
      10067  9A2 010F3FE0 ?Destroy@CJSNotesValue@@QAEXXZ
      10068  9A3 003CF6C0 ?Destroy@CMimeDirectory@@SGGK@Z
      10069  9A4 002C4F90 ?Destroy@FTFDGroupMgr@@QAEXXZ
      10070  9A5 002C5990 ?Destroy@FTUBMGroupMgr@@QAEXXZ
      10071  9A6 0012C510 ?DestroyData@SmartMemoryObject@@EAEXPAXK@Z
      10072  9A7 0074F980 ?DestroyLDAPQueryResultsCache@@YGGPAUldap_process@@@Z
      10073  9A8 008E7420 ?Detach@CNote@@QAGGXZ
      10074  9A9 002FE8B0 ?DetailsAddText@CLogEventHelper@@QAEXPADG0@Z
      10075  9AA 002FE920 ?DetailsClose@CLogEventHelper@@QAEXXZ
      10076  9AB 002FE7F0 ?DetailsOpen@CLogEventHelper@@QAEGXZ
      10077  9AC 00763FB0 ?Detect@CLDAPChange@@QAGHPBDPAULDAPCHANGEINFO@@PAHPAVCMemStr@@@Z
      10078  9AD 00322110 ?DigestString@CIMAIL_Authentication@@QAGGKPAEG0GPAD@Z
      10079  9AE 007CFBA0 ?Disassociate@CRefCntHandleClass@@QAEGPAPAV1@@Z
      10080  9AF 001B2730 ?Disassociate@CRefCntHandleReference@@QAEGXZ
      10081  9B0 00963030 ?DisassociateSession@CNetIOCP@@QAGGAAUSESSIONID@@@Z
      10082  9B1 003DA2A0 ?DisclaimParts@CMimeDirectory@@QAEGXZ
      10083  9B2 00320860 ?Disconnect@CGURUInternetClient@@QAGGXZ
      10084  9B3 00333890 ?Disconnect@CSMTPInternetClient@@QAGGXZ
      10085  9B4 00763DF0 ?Discover@CLDAPChange@@QAGHPAULDAPCHANGEINFO@@@Z
      10086  9B5 0031F780 ?Display@CCSValue@@QBEXXZ
      10087  9B6 00686910 ?DoSimpleSearch@CLdapClient@@QAEHG@Z
      10088  9B7 008EA180 ?DoesClientHandleReplicating@CReplica@@QAGHXZ
      10089  9B8 008DE4C0 ?Done@CManageDIP@@QAEXXZ
      10090  9B9 008DF480 ?Done@CManageDPAB@@QAEXXZ
      10091  9BA 001B8450 ?DoneReadingHeadline@CSubscriptionStore@@QAGXPAVCSubscriptionEntry@@@Z
      10092  9BB 008DE980 ?DpabListRemove@CManageDPAB@@QAEXPAD@Z
      10093  9BC 008F5390 ?DropHandleRef@Config@@SGGPAX@Z
      10094  9BD 00964480 ?DropIOCPSession@CNetIOCP@@QAGGJ@Z
      10095  9BE 00964350 ?DropIOCPTasks@CNetIOCP@@QAGGXZ
      10096  9BF 010F40F0 ?DropRef@CJSSession@@QAEKXZ
      10097  9C0 00065E70 ?DropRef@CRefCntBaseClass@@UAEXXZ
      10098  9C1 008D81E0 ?Dump@CEventLanguageTable@@QAGXXZ
      10099  9C2 008F83A0 ?DumpConfig@Config@@QAGGXZ
      10100  9C3 0012C510 ?DumpDetails@CCacheEntry@@UAGXK@Z
      10101  9C4 003CEDD0 ?DumpDirectory@CMimeDirectory@@QAEGXZ
      10102  9C5 003CB740 ?DumpEntity@CMimeEntity@@QAEGXZ
      10103  9C6 010A0960 ?DumpEntry@CSiteMapStore@@QAGXPAVCSiteMapEntry@@PADP6GXPAUSMapDumpCallbackData@@@Z2@Z
      10104  9C7 003DC2C0 ?DumpHeader@CMimeHeader@@QAEGPAD@Z
      10105  9C8 009650F0 ?DumpIOCP@CNetIOCP@@QAGGH@Z
      10106  9C9 007CBD00 ?DumpList@CLinkList@@QAGXXZ
      10107  9CA 010A1160 ?DumpList@CSiteMapStore@@QAGXPADP6GXPAUSMapDumpCallbackData@@@Z1@Z
      10108  9CB 007CBC90 ?DumpListEntry@CLinkList@@QAGXPAU_LIST_ENTRY_@@@Z
      10109  9CC 007CAC50 ?DumpStats@CCache@@QAGXK@Z
      10110  9CD 00962CA0 ?DumpTaskEntry@CINetTask@@QAGGPAUINETTASK_ENTRY@@PADH@Z
      10111  9CE 007D9550 ?Duplicate@CTaskStatList@@QAGXAAV1@@Z
      10112  9CF 0117C1B0 ?EmitSyntaxElement@HTMLEmitter@@UAEGW4HtmlSyntaxType@@PBDGH11@Z
      10113  9D0 003C2E90 ?EmitSyntaxElementW@MIMEActiveContentEmitter@@QAEGW4HtmlSyntaxType@@PBDKH11@Z
      10114  9D1 001B2380 ?Empty@CMemStrList@@UAEXXZ
      10115  9D2 007D0350 ?Empty@CSortedMemStrList@@UAEXXZ
      10116  9D3 00EA83B0 ?EnableCLILoad@NIFSQL@@QAEGH@Z
      10117  9D4 007CDC70 ?EncodeRFC2047@CMemStr@@QBEGAAV1@KW4cctSTRCharSettag@@W4CharEncodingMethod@@@Z
      10118  9D5 004AE3F0 ?EncodeToken@CSecLtpaToken2@@QAGGPADKUtagTIMEDATE@@PAXPAK@Z
      10119  9D6 004AE5F0 ?EncodeToken@CSecLtpaToken@@QAGGPADKUtagTIMEDATE@@PAK@Z
      10120  9D7 007A25A0 ?EndLogging@XmlLog@@UAEGXZ
      10121  9D8 010E2CB0 ?EndRunContext@CJavaDocument@@QAGGXZ
      10122  9D9 010F9410 ?EndRunContext@CLSIDocument@@QAGGPAX@Z
      10123  9DA 00EA84D0 ?EndTransaction@NIFSQL@@QAEGPAUNSF_TRAN_INFO@@GH@Z
      10124  9DB 0074EB10 ?Enqueue@encQueue@@QAGGPBX@Z
      10125  9DC 010F4820 ?EnsureClassRegistered@CJSSession@@QAEGG@Z
      10126  9DD 010F4940 ?EnsureJSContext@CJSSession@@QAEGXZ
      10127  9DE 0068B6C0 ?EnumAllGroups@CNewsServer@@UAEGP6AGAAVCBaseNewsGroup@@@Z0@Z
      10128  9DF 0068AF30 ?EnumDiscSubscribedGroups@CNewsServer@@QAEGP6AGAAVCBaseNewsGroup@@@ZAAVCNewsGroup@@@Z
      10129  9E0 0068AFE0 ?EnumDiscUnsubscribedGroups@CNewsServer@@QAEGP6AGAAVCBaseNewsGroup@@@ZAAVCNewsGroup@@@Z
      10130  9E1 0068ADD0 ?EnumSubscribedGroups@CNewsServer@@QAEGP6AGAAVCBaseNewsGroup@@@ZAAVCNewsGroup@@@Z
      10131  9E2 0068AE80 ?EnumUnsubscribedGroups@CNewsServer@@QAEGP6AGAAVCBaseNewsGroup@@@ZAAVCNewsGroup@@@Z
      10132  9E3 007D0AC0 ?EqualMethod@CStr@@QAGHAAV1@H@Z
      10133  9E4 007D0BA0 ?EqualMethod@CStr@@QAGHPADKH@Z
      10134  9E5 007D0BA0 ?EqualMethod@CStr@@QAGHPBDKH@Z
      10135  9E6 001F3C00 ?EvaluateHideWhen@CSiteMapEntry@@QAGXXZ
      10136  9E7 0031E330 ?EventAction@CCSMeeting@@QAGGPAXKKPBD0KAAPAX@Z
      10137  9E8 010F49D0 ?Execute@CJSSession@@QAEGPAVCJSExecuteParam@@PAVCJSNotesValue@@@Z
      10138  9E9 007AFB10 ?Execute@CRawAction@@QAGGPAVCDefActionCtx@@@Z
      10139  9EA 00EA85E0 ?Execute@NIFSQL@@QAEGPADH@Z
      10140  9EB 00EA8630 ?Execute@NIFSQL@@QAEGPADHPAH@Z
      10141  9EC 006C5370 ?ExecuteCommands@CDefActionCtx@@UAGGPAX@Z
      10142  9ED 00EA9AA0 ?ExecuteQuery@NIFSQL@@QAEGPADH@Z
      10143  9EE 010E1A00 ?Exit@CDaemon@@UAEXXZ
      10144  9EF 010E2110 ?Exit@CDaemonManager@@UAEXXZ
      10145  9F0 010E25B0 ?Exit@CDaemonWorker@@UAEXXZ
      10146  9F1 0109B790 ?ExpandAll@CSiteMapStore@@QAGXK@Z
      10147  9F2 0109D9E0 ?ExpandArchivePlaceholder@CSiteMapStore@@QAGXPAVCSiteMapEntry@@@Z
      10148  9F3 001254C0 ?ExpandEntry@CSiteMapStore@@QAGXPAVCSiteMapEntry@@K@Z
      10149  9F4 0109E6C0 ?ExpandEntryEx@CSiteMapStore@@QAGXPAVCSiteMapEntry@@KG@Z
      10150  9F5 00337490 ?Export@CIMsgExport@@QAGGPAXAAVCStream@@GPAUCONVERSION_CONTROLS@@H@Z
      10151  9F6 00337270 ?Export@CIMsgExport@@QAGGPAXPAKGPAUCONVERSION_CONTROLS@@H@Z
      10152  9F7 00335AA0 ?ExportCDDirectory@CIMsgExport@@QAGGPAXPAKPAPAVCMimeDirectory@@G@Z
      10153  9F8 00335900 ?ExportCDStream@CIMsgExport@@QAGGPAXPAKGPAUCONVERSION_CONTROLS@@@Z
      10154  9F9 00337850 ?ExportConvertHeaders@CIMsgExport@@UAGGPAXPAUCONVERSION_CONTROLS@@H@Z
      10155  9FA 009BADC0 ?ExportItem@CAssociatedItems@@QAGGKPADH@Z
      10156  9FB 009BAE90 ?ExportItem@CAssociatedItems@@QAGGPAD0H@Z
      10157  9FC 008F68D0 ?ExportTable@CEZFontTable@@QAGGPAPAXPAK@Z
      10158  9FD 0074E3D0 ?ExtractElements@CTblBuffer@@QAGKPADKHH@Z
      10159  9FE 008E7F80 ?ExtractFile@CNote@@QAGGUBLOCKID@@PBDKG@Z
      10160  9FF 008E7FD0 ?ExtractOLE2Object@CNote@@QAGGPAD0KHK@Z
      10161  A00 007CD980 ?ExtractSeparated@CMemStr@@QAEHAAV1@D@Z
      10162  A01 00F250E0 ?Factory@CDirSummary@@AAEPAVCDirSummaryBuffer@@K@Z
      10163  A02 00EAA930 ?Fetch@NIFSQL@@QAEGXZ
      10164  A03 00EAAAC0 ?FetchScroll@NIFSQL@@QAEGH@Z
      10165  A04 010F2D30 ?Fill@CJSBaseObjectClass@@QAEGPAH@Z
      10166  A05 003C67D0 ?Filter@MIMEActiveContentHTMLFStr@@UAEGPADH@Z
      10167  A06 007BADE0 ?FilterSearch@CRawQueryTerm@@UAGGPAX0PAPAX@Z
      10168  A07 007E23F0 ?Find@CBaseMemStrList@@UAEPAVCMemStr@@PBDH@Z
      10169  A08 008F6AB0 ?Find@CEZFontTable@@QAGEPADPAE@Z
      10170  A09 007CCBB0 ?Find@CMemStr@@QBEHD@Z
      10171  A0A 007CCBF0 ?Find@CMemStr@@QBEHPBD@Z
      10172  A0B 007CF7C0 ?Find@CPointerList@@QBEPAU__PTR_LIST_POS@@PAXPAU2@@Z
      10173  A0C 00763C10 ?Find@PYLTree@@QBEPBVCNotesBaseClass@@PAVPYLNode@@PBD@Z
      10174  A0D 010F3630 ?FindAncestorHelper@CJSBaseObjectClass@@SGPAXPAV1@PAG@Z
      10175  A0E 00050D30 ?FindByKey@CCache@@UAGGPBDPAVCCacheKey@@KKPAPAXPAPAVCCacheEntry@@PAPAV2@@Z
      10176  A0F 008DBD40 ?FindByKey@CNIFCollection@@QAGGGPAK@Z
      10177  A10 008DBDC0 ?FindByKey@CNIFCollection@@QAGGPAK@Z
      10178  A11 008EBA30 ?FindByName@CReplicaList@@QAGPAVCRepListInfo@@PBDPAG@Z
      10179  A12 008EAF40 ?FindDefault@CReplicaList@@QAGPAVCRepListInfo@@PAG@Z
      10180  A13 008D51B0 ?FindEntry@CBTree@@QAEGPAX0GPAG@Z
      10181  A14 002352D0 ?FindEntry@CSiteMapStore@@QAGPAVCSiteMapEntry@@PAD0PAHPAGPAV2@1@Z
      10182  A15 001F3DE0 ?FindEntry@CSiteMapStore@@QAGPAVCSiteMapEntry@@PADHK@Z
      10183  A16 010A1490 ?FindEntry@CSiteMapStore@@QAGPAVCSiteMapEntry@@PAUUNIVERSALNOTEID_tag@@K@Z
      10184  A17 010A1270 ?FindEntryByRL@CSiteMapStore@@QAGPAVCSiteMapEntry@@PAUtagRESOURCELINK@@GPAV2@H@Z
      10185  A18 000D9B10 ?FindEntryExt@CSiteMapStore@@QAGPAVCSiteMapEntry@@PAUtagTIMEDATE@@PAUUNIVERSALNOTEID_tag@@KGGPAXGGPAV2@G@Z
      10186  A19 001486D0 ?FindEntryWithText@CSiteMapStore@@QAGPAVCSiteMapEntry@@PADPAV2@1GKKPAK@Z
      10187  A1A 008DB130 ?FindFolder@CFolderRefInfo@@QAGGABVCFolderInfo@@AAVCFolderRefCollection@@AAH@Z
      10188  A1B 010A12F0 ?FindHistoryEntryByRL@CSiteMapStore@@QAGPAVCSiteMapEntry@@PAUtagRESOURCELINK@@GPAV2@@Z
      10189  A1C 007CF7F0 ?FindIndex@CPointerList@@QBEPAU__PTR_LIST_POS@@H@Z
      10190  A1D 007CBC20 ?FindListEntryByKey@CLinkList@@QAGPAU_LIST_ENTRY_@@PAD@Z
      10191  A1E 0003C490 ?FindName@LScNameMgr@@QAGGPAGG@Z
      10192  A1F 007CCC30 ?FindNoCase@CMemStr@@QBEHPBD@Z
      10193  A20 001F7BA0 ?FindSymbol@LSsSymTable@@QAGPAULSsSymbol@@PAULSsModule@@GG@Z
      10194  A21 001F3EF0 ?FindVisibleEntry@CSiteMapStore@@QAGPAVCSiteMapEntry@@PADHKH@Z
      10195  A22 007CEE00 ?First@CMemStrList@@UAEPAVCMemStr@@XZ
      10196  A23 007D00A0 ?First@CSortedMemStrList@@UAEPAVCMemStr@@XZ
      10197  A24 007D3090 ?First@CStrList@@QAGHPAPAVCStr@@@Z
      10198  A25 008D8AA0 ?FixToolbars@CBookMarkDb@@QAGGXZ
      10199  A26 007D3380 ?FlushCache@CStream@@QAGGXZ
      10200  A27 008E4DF0 ?FlushEntries@CManageDPAB@@QAGGH@Z
      10201  A28 003DCD80 ?FoldLine@CMimeHeader@@SGGAAVCMemStr@@0PADG@Z
      10202  A29 003DD090 ?FoldLineRFC2822@CMimeHeader@@SGGAAVCMemStr@@0@Z
      10203  A2A 007E2840 ?Format@CIMAPSet@@QAGGAAVCStr@@@Z
      10204  A2B 008F80C0 ?FormatFromVariant@LsConv@@SGGPAULSsApiInstance@@PAULSsValue@@PAPAXPAGPAK@Z
      10205  A2C 008F7CB0 ?FormatFromVariantArray@LsConv@@SGGPAULSsApiInstance@@PAULSsValue@@PAPAXPAGPAK@Z
      10206  A2D 00471120 ?FormatIndexOptions@CViewFormat@@QAGXPADG@Z
      10207  A2E 004730D0 ?FormatTitle@CViewFormat@@QAGGPADG@Z
      10208  A2F 007DA140 ?FormatToRFC2060@CTimeDate@@QBEGPADH@Z
      10209  A30 007DA100 ?FormatToRFC822@CTimeDate@@QBEGPADH@Z
      10210  A31 007DA120 ?FormatToRFC850@CTimeDate@@QBEGPADH@Z
      10211  A32 008F68A0 ?Free@CEZFontTable@@QAGXXZ
      10212  A33 00150B80 ?Free@CEventLanguageTable@@QAGXXZ
      10213  A34 007CB1F0 ?Free@CHandlePool@@QAEXG@Z
      10214  A35 007CBDF0 ?Free@CListBase@@UAGXXZ
      10215  A36 007CF0D0 ?Free@CNumberList@@UAGXXZ
      10216  A37 007D9A00 ?Free@CTextList@@UAGXXZ
      10217  A38 0021BE70 ?Free@CViewFontTable@@QAGXXZ
      10218  A39 005BCE30 ?Free@jonah_base_class@JONAH@@QBEXPAX@Z
      10219  A3A 01177550 ?FreeIfVirtual@CCacheEntry@@UAGXXZ
      10220  A3B 01177550 ?FreeIfVirtual@CCacheKey@@UAGXXZ
      10221  A3C 0029AD60 ?FreeMark@SgmlInputStream@@UAEGPAUSgmlInputStreamBasicMark@@@Z
      10222  A3D 0096E5D0 ?FreeQueueIOCtx@CNetSession@@QAGGAAK@Z
      10223  A3E 00EA9F20 ?FreeResults@NIFSQL@@QAEGXZ
      10224  A3F 004AACB0 ?FreeTokenBuffer@CSecWasSSOToken@@QAGXXZ
      10225  A40 007D60E0 ?FromBase64@CStream@@QAGGAAV1@KK@Z
      10226  A41 007D6650 ?FromBinHex@CStream@@QAGGAAV1@AAKAAH@Z
      10227  A42 007D6C40 ?FromLMBCS@CStream@@QAGGPAUtagCharSetInfo@@AAV1@KKKH@Z
      10228  A43 007D62F0 ?FromQuotedPrintable@CStream@@QAGGAAV1@KKK@Z
      10229  A44 010F2CF0 ?GCProtectObject@CJSBaseObjectClass@@QAEXXZ
      10230  A45 008E9F70 ?GenFileName@CReplica@@QAGGPBDG@Z
      10231  A46 008D93C0 ?GenerateOID@CDatabase@@QAGGPAUORIGINATORID_tag@@@Z
      10232  A47 004AC190 ?GenerateSignature@CSecLtpaToken2@@QAGGXZ
      10233  A48 004AD5A0 ?GenerateSignature@CSecLtpaToken@@QAGGXZ
      10234  A49 00080420 ?Get@CCachedRefCntHandleClass@@SGGPAXKHPAPAV1@K@Z
      10235  A4A 001B2700 ?Get@CCachedRefCntHandleClass@@SGGPBDKPAPAV1@K@Z
      10236  A4B 007CB230 ?Get@CHandlePool@@QAEPAXG@Z
      10237  A4C 007E1830 ?Get@CHashTable@@QAGPAXPBD@Z
      10238  A4D 007CBE10 ?Get@CListBase@@QAGPAXK@Z
      10239  A4E 000DB620 ?Get@CVector@@UAEGKPAX@Z
      10240  A4F 007E0920 ?Get@SmartConstTaggedTextlist@@UBEPBXHAAK0@Z
      10241  A50 007E0830 ?Get@SmartConstTextlist@@UBEPBXHAAK@Z
      10242  A51 007E0710 ?Get@SmartMemoryObject@@UBEPBXAAK@Z
      10243  A52 006801C0 ?GetACL@CIMAP4Client@@QAGGPAUASYNC_CONTEXT@@GPAD@Z
      10244  A53 008F9A20 ?GetAccountParam@Config@@QAGGPBDGPAXGPAD22PAG@Z
      10245  A54 008F9350 ?GetAccountParams@Config@@QAGGPBUtagAccountParam@@GP6GXGW4ActionType@@W4ParamDoc@@PAD@Z@Z
      10246  A55 007A66F0 ?GetAction@CAssistant@@QAGGPAPAVCRawAction@@@Z
      10247  A56 000B2EC0 ?GetActionType@CEventLanguageTable@@QAG?AW4ACTION_TYPE@@G@Z
      10248  A57 007A6760 ?GetActivatedFlag@CAssistant@@QAGGPAH@Z
      10249  A58 007A84A0 ?GetAgentRunRestricted@CAssistant@@QAGHXZ
      10250  A59 008DA920 ?GetAlias@CDesignNote@@QAGGPADG@Z
      10251  A5A 0109BE10 ?GetAlias@CSiteMapStore@@QAGGPADG@Z
      10252  A5B 008DB090 ?GetAllFolderInfo@CFolderInfo@@QAGGAAVCFolderCollection@@@Z
      10253  A5C 008DB7F0 ?GetAllFolderRefInfo@CFolderRefInfo@@QAGGABVCFolderInfo@@AAVCFolderRefCollection@@@Z
      10254  A5D 007DC6D0 ?GetAltUserName@NABLookup@@QAEPAEXZ
      10255  A5E 007DC770 ?GetAltUserNameLang@NABLookup@@QAEPAEXZ
      10256  A5F 0116EBC0 ?GetAnchBlk@@YGPAKXZ
      10257  A60 010F2AF0 ?GetArrayLength@CJSArrayHelperClass@@UAEGPAG@Z
      10258  A61 00677870 ?GetArticleRange@CBaseNewsGroup@@QAEGPAK0@Z
      10259  A62 007CCB30 ?GetAt@CMemStr@@QBEDH@Z
      10260  A63 01164DD0 ?GetAt@CPointerList@@QBEPAXPAU__PTR_LIST_POS@@@Z
      10261  A64 006CDAB0 ?GetAttachIconDiskFilePathname@MIMEWalkEntry@@QAEPADXZ
      10262  A65 003C6B80 ?GetAttachOrigName@MIMEWalkEntry@@QAEPADXZ
      10263  A66 00683E20 ?GetAttributeByIndex@CLdapClient@@QAE?AVCMemStr@@HH@Z
      10264  A67 00683DC0 ?GetAttributeCount@CLdapClient@@QAEHH@Z
      10265  A68 006C9370 ?GetAttributeIndex@CSearchCondition@@QAEHXZ
      10266  A69 00687FC0 ?GetAttributeName@CSearchCondition@@SGGHPAVCMemStr@@@Z
      10267  A6A 00684020 ?GetAttributeValuesCount@CLdapClient@@QAEHHPAD@Z
      10268  A6B 00684000 ?GetAttributeValuesCountByIndex@CLdapClient@@QAEHHH@Z
      10269  A6C 00F95E70 ?GetAuthList@CNHTTPRetriever@@UAGGPAPAXPAGPAPADH@Z
      10270  A6D 00972EF0 ?GetAuthList@OpenURL@@UAGGPAPAXPAGPAPADH@Z
      10271  A6E 004AACE0 ?GetAvailableTokenBufLength@CSecWasSSOToken@@QAGKXZ
      10272  A6F 007AEB40 ?GetBEresources@CDefActionCtx@@QAGXPAKPAUNUMBER_tag@@@Z
      10273  A70 007D4000 ?GetBase64Byte@CStream@@QAGGAAKAADAAH@Z
      10274  A71 007D4210 ?GetBase64Quad@CStream@@QAGGAAKAAD111AAH@Z
      10275  A72 010F4740 ?GetBaseObject@CJSSession@@QAEGPAPAVCJSBaseObjectClass@@H@Z
      10276  A73 00686BB0 ?GetBinAttributeValue@CLdapClient@@QAE?AVCLdapBinVal@@HPADH@Z
      10277  A74 00686B40 ?GetBinAttributeValueByIndex@CLdapClient@@QAE?AVCLdapBinVal@@HHH@Z
      10278  A75 003CA5C0 ?GetBody@CMimeEntity@@QAEPAVCStream@@XZ
      10279  A76 006C9370 ?GetBodyFilePathname@MIMEWalkEntry@@QAEPADXZ
      10280  A77 0031E4F0 ?GetBoolean@CCSValue@@QBEGPAH@Z
      10281  A78 003CAF60 ?GetBoundaryEnd@CMimeEntity@@QAEPBDXZ
      10282  A79 003CAC90 ?GetBoundaryStart@CMimeEntity@@QAEPBDXZ
      10283  A7A 007E06C0 ?GetBuffer@SmartMemoryObjectBuffer@@QBGPAXXZ
      10284  A7B 001736A0 ?GetById@ListMgrWithID@@QAGPAVLinkedElementWithID@@K@Z
      10285  A7C 007D3F70 ?GetByte@CStream@@QAGGAAKAAPADAAH@Z
      10286  A7D 008D8D90 ?GetCacheProfileInfo@CCacheDb@@QAGGPBDPAK@Z
      10287  A7E 0067A790 ?GetCapabilities@CIMAP4Client@@QAGGPAUASYNC_CONTEXT@@AAVCStrList@@@Z
      10288  A7F 0032FD10 ?GetChar@CParse@@QAGGAAVCStream@@AAKAAPAD1@Z
      10289  A80 007D3D80 ?GetChar@CStream@@QAGGAAKAAPAD0AAH@Z
      10290  A81 007D3B30 ?GetChar@CStream@@QAGGAAKAAU_multichar@@AAH@Z
      10291  A82 0011DBE0 ?GetClass@CNote@@QAGGXZ
      10292  A83 004B0130 ?GetClientPrincipalName@CSecSecurityProvider@@QAEGPAK@Z
      10293  A84 010F7830 ?GetCode@CLSCodeLibData@@QAGGHAAVCRefCntHandleReference@@@Z
      10294  A85 010F81F0 ?GetCodeListHead@CJavaScriptCodeLibData@@QAGPAULOCAL_queue@@XZ
      10295  A86 00472E20 ?GetColumnAlignment@CViewFormat@@QAGXGPAG@Z
      10296  A87 00471E70 ?GetColumnAttrib@CViewFormat@@QAGXGPAPADPAG1PAH220101@Z
      10297  A88 00471B00 ?GetColumnByName@CViewFormat@@QAGGPADPAG@Z
      10298  A89 00471BC0 ?GetColumnFormat@CViewFormat@@QAGXGPAX0PAG1PAK@Z
      10299  A8A 00473E40 ?GetColumnIndex@CViewFormat@@QAGGPAVCColumnFormat@@@Z
      10300  A8B 00471D20 ?GetColumnSort@CViewFormat@@QAGXGPAH00@Z
      10301  A8C 004721B0 ?GetColumnSubtotalCode@CViewFormat@@QAGXGPAGPAH@Z
      10302  A8D 01098B10 ?GetComment@CDAVNoteStore@@QAGGPADG@Z
      10303  A8E 008DAAA0 ?GetComment@CDesignNote@@QAGGPADG@Z
      10304  A8F 0109BA40 ?GetComment@CSiteMapStore@@QAGGPADG@Z
      10305  A90 00685000 ?GetConditionString@CSearchCondition@@QAE?AVCMemStr@@XZ
      10306  A91 008F9970 ?GetConfigurationParam@Config@@QAGGPBDGPAXGPAG@Z
      10307  A92 008F99C0 ?GetConnectionParam@Config@@QAGGPBDGPAXGPAD22PAG@Z
      10308  A93 008F9210 ?GetConnectionParams@Config@@QAGGPBUtagConnectionParam@@GP6GXGW4ActionType@@W4ParamDoc@@PAD@Z@Z
      10309  A94 008D5290 ?GetCount@CBTree@@QAEKXZ
      10310  A95 003DDEE0 ?GetCount@CMimeListObject@@SGGPAV1@@Z
      10311  A96 00486D90 ?GetCount@CPointerList@@QBEHXZ
      10312  A97 009BB7A0 ?GetCreateTime@CNSFNoteExtendableFileObj@@QAGXPAUtagTIMEDATE@@@Z
      10313  A98 007AE4E0 ?GetCtxInfo@CDefActionCtx@@UAGGPAPAXPAK0@Z
      10314  A99 007E1B00 ?GetCurrent@CHashTable@@QAGPAXXZ
      10315  A9A 007DC710 ?GetCurrentAltUserName@NABLookup@@QAEPAEXZ
      10316  A9B 007DC7B0 ?GetCurrentAltUserNameLang@NABLookup@@QAEPAEXZ
      10317  A9C 007DC6C0 ?GetCurrentInternetAddress@NABLookup@@QAEPAEXZ
      10318  A9D 007E1590 ?GetCurrentKey@CHashTable@@QAGPADXZ
      10319  A9E 007DC760 ?GetCurrentOldWebName@NABLookup@@QAEPAEXZ
      10320  A9F 007DC3D0 ?GetCurrentSSOTokenUserName@NABLookup@@QAEPAEXZ
      10321  AA0 010E4E60 ?GetCurrentThread@JavaSession@@QAGPAVJavaThread@@XZ
      10322  AA1 001185D0 ?GetCurrentThread@LSISession@@QAGPAVLSIThread@@XZ
      10323  AA2 00321450 ?GetCurrentUserName@NABLookup@@QAEPAEXZ
      10324  AA3 01098EA0 ?GetDAVFormNames@CDAVNoteStore@@QAGGPADG@Z
      10325  AA4 01098E00 ?GetDAVForms@CDAVNoteStore@@QAGGPADG@Z
      10326  AA5 010F7D20 ?GetData@CJavaCodeLibData@@QAGGPAUtagACTIONJAVAAGENTSTRUCT@@@Z
      10327  AA6 00118550 ?GetData@CLSCodeLibData@@QAGGAAVCRefCntHandleReference@@0@Z
      10328  AA7 007B46D0 ?GetData@CRawActionByForm@@QAGGPAUtagACTIONBYFORMSTRUCT@@@Z
      10329  AA8 007B3F70 ?GetData@CRawActionDBCopy@@QAGGPAUtagACTIONDBCOPYSTRUCT@@@Z
      10330  AA9 007B4530 ?GetData@CRawActionDelete@@QAGGPAUtagACTIONDELETESTRUCT@@@Z
      10331  AAA 007B4C90 ?GetData@CRawActionFolder@@QAGGPAUtagACTIONFOLDERSTRUCT@@@Z
      10332  AAB 007B24D0 ?GetData@CRawActionFormula@@QAGGPAUtagACTIONFORMULASTRUCT@@@Z
      10333  AAC 007B5EA0 ?GetData@CRawActionJavaAgent@@QAGGPAUtagACTIONJAVAAGENTSTRUCT@@@Z
      10334  AAD 007B2B50 ?GetData@CRawActionLotusScript@@QAGGPAUtagACTIONLOTUSSCRIPTSTRUCT@@@Z
      10335  AAE 007B15A0 ?GetData@CRawActionModifyField@@QAGGPAUtagACTIONMODIFYFIELDSTRUCT@@@Z
      10336  AAF 007B83F0 ?GetData@CRawActionNewsletter@@QAGGPAUtagACTIONNEWSLETTERSTRUCT@@@Z
      10337  AB0 007B4530 ?GetData@CRawActionReadMarks@@QAGGPAUtagACTIONREADMARKSSTRUCT@@@Z
      10338  AB1 007B1E00 ?GetData@CRawActionReply@@QAGGPAUtagACTIONREPLYSTRUCT@@@Z
      10339  AB2 007B5310 ?GetData@CRawActionRunAgent@@QAGGPAUtagACTIONRUNAGENTSTRUCT@@@Z
      10340  AB3 007B4530 ?GetData@CRawActionSendDocument@@QAGGPAUtagACTIONSENDDOCUMENTSTRUCT@@@Z
      10341  AB4 007B3A90 ?GetData@CRawActionSendMail@@QAGGPAUtagACTIONSENDMAILSTRUCT@@@Z
      10342  AB5 007BB790 ?GetData@CRawQueryByField@@QAGGPAUtagQUERYBYFIELDSTRUCT@@@Z
      10343  AB6 007BCF00 ?GetData@CRawQueryByFolder@@QAGGPAUtagQUERYBYFOLDERSTRUCT@@@Z
      10344  AB7 007BCA20 ?GetData@CRawQueryByForm@@QAGGPAUtagQUERYBYFORMSTRUCT@@@Z
      10345  AB8 007BB2A0 ?GetData@CRawQueryFormula@@QAGGPAUtagQUERYFORMULASTRUCT@@@Z
      10346  AB9 007BAE80 ?GetData@CRawQueryTextTerm@@QAGGPAUtagQUERYTEXTTERMSTRUCT@@@Z
      10347  ABA 007BD180 ?GetData@CRawQueryTopicTerm@@QAGGPAUtagQUERYTOPICTERMSTRUCT@@@Z
      10348  ABB 007BC390 ?GetData@CRawQueryUsesForm@@QAGGPAUtagQUERYUSESFORMSTRUCT@@@Z
      10349  ABC 00EAB3B0 ?GetData@NIFSQL@@QAEGHHPAXHPAJ@Z
      10350  ABD 007AEC30 ?GetDataType@CRawAction@@MAGGXZ
      10351  ABE 007B9E60 ?GetDataType@CRawJavaScript@@MAGGXZ
      10352  ABF 007BA330 ?GetDataType@CRawQuery@@MAGGXZ
      10353  AC0 01099F60 ?GetDataType@CRawStyleSheet@@MAGGXZ
      10354  AC1 008F9CA0 ?GetDatabaseParamText@Config@@QAGGPADAAVCStr@@000PAG@Z
      10355  AC2 003CB6C0 ?GetDecodedData@CMimeEntity@@QAEGKPAPAXPAK@Z
      10356  AC3 00218110 ?GetDefaultSecurity@CJSBaseObjectClass@@UAEGPAK@Z
      10357  AC4 008DDAC0 ?GetDeleted@CManageDIP@@QAEGXZ
      10358  AC5 00685020 ?GetDescription@CSearchCondition@@QAE?AVCMemStr@@XZ
      10359  AC6 001272D0 ?GetDesignName@CCodeLib@@QAGGPADG@Z
      10360  AC7 010FCF80 ?GetDesignName@CLSLib@@QAGGPADG@Z
      10361  AC8 007A8630 ?GetDialogFlags@CAssistant@@QAGKXZ
      10362  AC9 008DDC40 ?GetDipTableSize@CManageDIP@@SGHXZ
      10363  ACA 003D44D0 ?GetDisclaimerPolicy@CMimeDirectory@@QAEGAAH@Z
      10364  ACB 003C6B70 ?GetDiskFilePathname@MIMEWalkEntry@@QAEPADXZ
      10365  ACC 008EB940 ?GetDisplayName@CReplicaList@@QAGGGPADG@Z
      10366  ACD 007A8D70 ?GetEffectiveUserName@CAssistant@@QAGPADXZ
      10367  ACE 007E1640 ?GetElement@CHashTable@@QAGPAVCHashElement@@PAV2@@Z
      10368  ACF 008DB300 ?GetElementNumber@CFolderRefInfo@@QAGHQBDAAG1@Z
      10369  AD0 007A6710 ?GetEnabledFlag@CAssistant@@QAGGPAH@Z
      10370  AD1 007D21B0 ?GetEncodedLine@CStr@@QAGGPAUtagCharSetInfo@@GAAV1@KW4cctSTRCharSettag@@W4CharEncodingMethod@@@Z
      10371  AD2 003DD380 ?GetEncodedValue@CMimeHeader@@QAEPBDH@Z
      10372  AD3 003CDE10 ?GetEntityByContentID@CMimeDirectory@@QAEPAVCMimeEntity@@PAD@Z
      10373  AD4 00683BE0 ?GetEntriesCount@CLdapClient@@QAEHXZ
      10374  AD5 008D5120 ?GetEntry@CBTree@@QAEGKPAXGPAG@Z
      10375  AD6 010A1A10 ?GetEntryAsCD@CSiteMapEntry@@QAGGPAPAXPAK@Z
      10376  AD7 008DC970 ?GetEntryCount@CNIFCollection@@QAGGAAK@Z
      10377  AD8 00683BF0 ?GetEntryDN@CLdapClient@@QAE?AVCMemStr@@H@Z
      10378  AD9 0005D5B0 ?GetEntryData@CSiteMapEntry@@QAGGGPAGPAK1@Z
      10379  ADA 00064250 ?GetEntryResourceLink@CSiteMapEntry@@QAGGGPAUtagRESOURCELINK@@H@Z
      10380  ADB 00148670 ?GetEntryResourceLink@CSiteMapStore@@QAGGPAVCSiteMapEntry@@GPAUtagRESOURCELINK@@H@Z
      10381  ADC 00065970 ?GetEntryText@CSiteMapEntry@@QAGGGGPAD@Z
      10382  ADD 003CA700 ?GetEpilog@CMimeEntity@@QAEPAVCStream@@XZ
      10383  ADE 0046EF30 ?GetExtendedNumberSymbolData@CColumnFormat@@QAGXPAUNNUMSYM@@@Z
      10384  ADF 002C56B0 ?GetFTFDRefEntryCount@FTFDGroupMgr@@QAEHXZ
      10385  AE0 007BA5B0 ?GetFTQuery@CRawQuery@@QAGGPAXPAPAX@Z
      10386  AE1 003DBD70 ?GetFieldName@CMimeHeader@@QAEPBDXZ
      10387  AE2 003DBA50 ?GetFieldValue@CMimeHeader@@QAEPBDHH@Z
      10388  AE3 00786720 ?GetFile@CDirException@@QBEPBDXZ
      10389  AE4 00102730 ?GetFileName@CDatabase@@QAGPADXZ
      10390  AE5 007D3300 ?GetFileStore@CStream@@QAGHPADG@Z
      10391  AE6 003C7E10 ?GetFileTypeInfoFromContentType@CMimeEntity@@SGPAUtagMimeFileTypeInfo@@UCMimeString@@0@Z
      10392  AE7 010E4E60 ?GetFirst@CDAVNoteStore@@QAGPAVCDAVNoteEntry@@XZ
      10393  AE8 001B2990 ?GetFirst@CHashTable@@QAGPAXXZ
      10394  AE9 0005A350 ?GetFirst@CSiteMapStore@@QAGPAVCSiteMapEntry@@XZ
      10395  AEA 010E42B0 ?GetFirst@JavaOptions@@QAEPADXZ
      10396  AEB 009BE680 ?GetFirstPerm@CXACI@@QAEHPAVCXACIPerm@@@Z
      10397  AEC 00473850 ?GetFirstResponseColumn@CViewFormat@@QAGPAVCColumnFormat@@XZ
      10398  AED 0031E650 ?GetFloatingPoint@CCSValue@@QBEGPAJ@Z
      10399  AEE 0031E520 ?GetFloatingPoint@CCSValue@@QBEGPAPAURANGE@@@Z
      10400  AEF 0031E590 ?GetFloatingPoint@CCSValue@@QBEGPAPAXPAK@Z
      10401  AF0 0031E5F0 ?GetFloatingPoint@CCSValue@@QBEGPAUNUMBER_tag@@@Z
      10402  AF1 008DAFD0 ?GetFolderInfo@CFolderInfo@@QAGGAAVCFolderCollection@@QADJ@Z
      10403  AF2 00689E70 ?GetFolderName@CNewsGroup@@QAEXAAVCMemStr@@@Z
      10404  AF3 0109B930 ?GetFolderNoteID@CSiteMapStore@@QAGKPAVCSiteMapEntry@@@Z
      10405  AF4 008DB280 ?GetFolderRefInfo@CFolderRefInfo@@QAGGABVCFolderInfo@@AAVCFolderRefCollection@@ABJ@Z
      10406  AF5 001B69F0 ?GetFolderSetting@CBookMarkDb@@QAGGKPAVCSiteMapEntry@@PAX@Z
      10407  AF6 007BA340 ?GetFormula@CRawQuery@@QAGGPAPAX@Z
      10408  AF7 001F3B30 ?GetFullTitleText@CSiteMapStore@@QAGGPAVCSiteMapEntry@@GPAD@Z
      10409  AF8 007AE4C0 ?GetHNote@CDefActionCtx@@UAGGPAPAX@Z
      10410  AF9 004734D0 ?GetHTMLAction@CViewFormat@@QAGGPAPAXG@Z
      10411  AFA 0031E700 ?GetHandle@CCSValue@@QBEGPAPAX@Z
      10412  AFB 008F5190 ?GetHandle@Config@@QAGGPAPAX@Z
      10413  AFC 008DE950 ?GetHardDeleteDoneFlag@CManageDPAB@@QAGHXZ
      10414  AFD 007CF740 ?GetHead@CPointerList@@QBEPAXXZ
      10415  AFE 00FA29F0 ?GetHeadPosition@CPointerList@@QBEPAU__PTR_LIST_POS@@XZ
      10416  AFF 007E06C0 ?GetHeader@SmartMemoryObject@@EBEPAUSMARTMEMORYOBJECT_HEADER@@ABVSmartMemoryObjectBuffer@@@Z
      10417  B00 00965B90 ?GetHeaderList@CNHTTPRetriever@@QAGGPAPAXPAGH@Z
      10418  B01 01099F60 ?GetHeaderOwnsSeparatorLine@CIMsgExportMail@@UAGHXZ
      10419  B02 008F1C90 ?GetHeadlines@CSubscriptionStore@@QAGGXZ
      10420  B03 008DAF40 ?GetHighestRefID@CFolderInfo@@QBGGAAJ@Z
      10421  B04 0095F340 ?GetHostAddress@CClientSession@@QAGGPAD0@Z
      10422  B05 0095F0C0 ?GetHostName@CClientSession@@QAGGPAD0@Z
      10423  B06 006C5410 ?GetID@CMimeSymbol@@QBE?AW4tagMimeWellKnownSymbolId@@XZ
      10424  B07 007D8EF0 ?GetIdAtIndex@CTaskStatList@@QAGKK@Z
      10425  B08 007A6840 ?GetInfo@CAssistant@@QAGGPAUtagASSISTINFOSTRUCT@@@Z
      10426  B09 0011DC10 ?GetInfo@CNote@@QAGXGPAX@Z
      10427  B0A 008F9A80 ?GetIniParam@Config@@QAGGPBDGPAXGPAG@Z
      10428  B0B 007DC680 ?GetInternetAddress@NABLookup@@QAEPAEXZ
      10429  B0C 007DBB30 ?GetIntlExtSettings@CWebUserPreferences@@QAEPAUINTLFORMATEXT@@XZ
      10430  B0D 007DBB10 ?GetIntlSettings@CWebUserPreferences@@QAEPAUINTLFORMAT@@XZ
      10431  B0E 009B9DA0 ?GetItemBlockID@CAssociatedItems@@QAGGKPAUBLOCKID@@@Z
      10432  B0F 009BAF70 ?GetItemBlockID@CAssociatedItems@@QAGGPADPAUBLOCKID@@@Z
      10433  B10 009BB090 ?GetItemId@CAssociatedItems@@QAGGPADPAK@Z
      10434  B11 009B9E80 ?GetItemName@CAssociatedItems@@QAGGKPAPAD@Z
      10435  B12 009BE570 ?GetItemName@CXACIPerm@@QBE?AVCMemStr@@G@Z
      10436  B13 010F2DF0 ?GetJSObject@CJSBaseObjectClass@@QAEGPAPAUNJSObject@@H@Z
      10437  B14 010F3BB0 ?GetJSValue@CJSNotesValue@@QAEGPAX@Z
      10438  B15 010E5010 ?GetJVMDebugPortAddress@JavaSession@@SGHW4JVM_TASK_ENUM@@@Z
      10439  B16 007AE5F0 ?GetJavaDocument@CDefActionCtx@@UAGGPAPAVCJavaDocument@@@Z
      10440  B17 010E61C0 ?GetJavaInfoPaneRootItem@@YAPAVCGlideCategoryItem@@XZ
      10441  B18 005BCDA0 ?GetJonahEnv@jonah_base_class@JONAH@@QAEGPAPAUjonah_env_t@@@Z
      10442  B19 007CAC40 ?GetKeysForThing@CCache@@UAGGPAXPAPAX@Z
      10443  B1A 0073FA70 ?GetLDAPDN@CLDAPEntry@@QAEPBDXZ
      10444  B1B 00FA0ED0 ?GetLSIDoc@CLSIDocumentHolder@@QAEPAVCLSIDocument@@XZ
      10445  B1C 007AE5D0 ?GetLSIDocument@CDefActionCtx@@UAGGPAPAVCLSIDocument@@@Z
      10446  B1D 01170730 ?GetLSXPath@@YGFPAD0@Z
      10447  B1E 01098A20 ?GetLast@CDAVNoteStore@@QAGPAVCDAVNoteEntry@@XZ
      10448  B1F 002348D0 ?GetLast@CSiteMapStore@@QAGPAVCSiteMapEntry@@XZ
      10449  B20 003200E0 ?GetLastError@CGURUInternetClient@@QAGXPAD@Z
      10450  B21 00683B40 ?GetLastError@CLdapClient@@QAEGXZ
      10451  B22 007AAE60 ?GetLastRunExitCode@CAssistant@@QAGGPAJ@Z
      10452  B23 007AADF0 ?GetLastRunTime@CAssistant@@QAGGPAUtagTIMEDATE@@@Z
      10453  B24 000CBE70 ?GetLength@CMemStr@@QBEHXZ
      10454  B25 007B9E00 ?GetLibraryName@CRawJavaScriptTerm@@QBGPBDXZ
      10455  B26 007B9E10 ?GetLibraryReplicaID@CRawJavaScriptTerm@@QAGGAAUtagTIMEDATE@@@Z
      10456  B27 00786730 ?GetLine@CDirException@@QBEGXZ
      10457  B28 007D0F60 ?GetLine@CStr@@QAGGKAAV1@AAKAAH@Z
      10458  B29 007D2130 ?GetLine@CStr@@QBGGAAKAAPAD0AAH@Z
      10459  B2A 007D7080 ?GetLine@CStream@@QAGGAAVCStr@@HAAKAAHK@Z
      10460  B2B 0021B560 ?GetLineWidth@CViewFormat@@QAGGHHG@Z
      10461  B2C 00972260 ?GetListenerSessionCtx@CServerSession@@QAGGPAUSESSIONID@@PAUtagVBLOCK@@@Z
      10462  B2D 007D1120 ?GetLocalAllocCopy@CStr@@QAGGGAAPADAAG@Z
      10463  B2E 0096EF60 ?GetLocalHostName@CNetSession@@QAGGAAVCStr@@@Z
      10464  B2F 0096EAB0 ?GetLocalIPAddress@CNetSession@@QAGGAAVCStr@@@Z
      10465  B30 0096E910 ?GetLocalIPAddress@CNetSession@@QAGGPAE@Z
      10466  B31 007DABB0 ?GetLocale@CWebUserPreferences@@QAEPADXZ
      10467  B32 007AE570 ?GetLog@CDefActionCtx@@UAGGPAPAXPAK@Z
      10468  B33 008DC050 ?GetLongElement@CNIFEntryData@@UAGJPBXPBDG@Z
      10469  B34 007450F0 ?GetLongestNoSem@CLDAPLongestSearches@@QAEPBXG@Z
      10470  B35 008E8010 ?GetMIMEStream@CNote@@QAGGPAPAVCStream@@@Z
      10471  B36 00680F90 ?GetMailboxContents@CIMAP4Client@@QAGGPAUASYNC_CONTEXT@@GPAU_MSGSET@@PAU_PropTagArray@@H@Z
      10472  B37 00680070 ?GetMailboxProps@CIMAP4Client@@QAGGPAUASYNC_CONTEXT@@GKPAD@Z
      10473  B38 00744000 ?GetMaxStats@CLDAPLongestSearches@@SGGXZ
      10474  B39 008E8600 ?GetMembers@CNote@@QAGGPAPAX@Z
      10475  B3A 008DB6E0 ?GetMessageCount@CFolderInfo@@QAGGAAVCFolderRefCollection@@AAK@Z
      10476  B3B 00680FE0 ?GetMessageProps@CIMAP4Client@@QAGGPAUASYNC_CONTEXT@@GPAU_MSGSET@@PAU_PropTagArray@@PAU_BODYSECTION@@H@Z
      10477  B3C 00786710 ?GetMethod@CDirException@@QBEPBDXZ
      10478  B3D 008D8AA0 ?GetMimeEnvelopeType@CIMsgExportMail@@UAG?AW4tagMimeEnvelopeType@@XZ
      10479  B3E 00744020 ?GetMinStatsTime@CLDAPLongestSearches@@SGKXZ
      10480  B3F 009BB780 ?GetModifiedTime@CNSFNoteExtendableFileObj@@QAGXPAUtagTIMEDATE@@@Z
      10481  B40 007A6A20 ?GetName@CAssistant@@QAGGPAD@Z
      10482  B41 01098BA0 ?GetName@CDAVNoteStore@@QAGGPADG@Z
      10484  B42 008E7940 ?GetName@CNote@@QAGGPADGPAG@Z
      10485  B43 0109BCB0 ?GetName@CSiteMapStore@@QAGGPADG@Z
      10486  B44 00084A70 ?GetName@LSsModule@@QAGPAGXZ
      10487  B45 008D8AA0 ?GetNameList@CDefActionCtx@@UAGPAXXZ
      10488  B46 0007AA50 ?GetNamePtr@LScNameMgr@@QAGPAGG@Z
      10489  B47 009691A0 ?GetNetIOTraffic@CNetSession@@QAEGPAK0@Z
      10490  B48 0028F860 ?GetNewsgroupData@CNNTPDatabase@@QAGGPBDAAUtagNewsgroupData@@@Z
      10491  B49 01098A30 ?GetNext@CDAVNoteStore@@QAGPAVCDAVNoteEntry@@PAV2@@Z
      10492  B4A 001B2A20 ?GetNext@CHashTable@@QAGPAXXZ
      10493  B4B 007CF770 ?GetNext@CPointerList@@QBEPAXAAPAU__PTR_LIST_POS@@@Z
      10494  B4C 0005A5D0 ?GetNext@CSiteMapStore@@QAGPAVCSiteMapEntry@@PAV2@@Z
      10495  B4D 010E42E0 ?GetNext@JavaOptions@@QAEPADXZ
      10496  B4E 003C6BA0 ?GetNext@MIMEWalkEntry@@QAEPAV1@XZ
      10497  B4F 007D42D0 ?GetNextChunk@CStream@@QBGGAAKKAAPAD0AAH@Z
      10498  B50 003DBD90 ?GetNextHeader@CMimeHeader@@QAEPAV1@XZ
      10499  B51 009BE5D0 ?GetNextPerm@CXACI@@QAEHPAVCXACIPerm@@@Z
      10500  B52 0074B810 ?GetNextSearchEntry@CLDAPSearch@@QAGGPAVCLDAPEntry@@PAH@Z
      10501  B53 000E82A0 ?GetNextSibling@CSiteMapStore@@QAGPAVCSiteMapEntry@@PAV2@@Z
      10502  B54 01098BD0 ?GetNote@CDAVNoteStore@@QAGPAVCNote@@H@Z
      10503  B55 007AE510 ?GetNoteID@CDefActionCtx@@UAGXPAK@Z
      10504  B56 00683B80 ?GetNotesLdapAttrs@CLdapClient@@QAEGQAPADH@Z
      10505  B57 00683B60 ?GetNotesLdapAttrsCount@CLdapClient@@QAEHXZ
      10506  B58 007DBBE0 ?GetNth@ListMgr@@QAEPAVLinkedElement@@G@Z
      10507  B59 008E8D10 ?GetNumPolicyTypes@CPolicyTypes@@QAEGXZ
      10508  B5A 002C6610 ?GetOSFD@FTFDGroupMgr@@QAEGPBDPAIH@Z
      10509  B5B 007DC720 ?GetOldWebName@NABLookup@@QAEPAEXZ
      10510  B5C 007A6C70 ?GetOnBehalfUserName@CAssistant@@QAGPADXZ
      10511  B5D 003C6B70 ?GetOperationIndex@CSearchCondition@@QAEHXZ
      10512  B5E 00687F30 ?GetOperationName@CSearchCondition@@SGGHPAVCMemStr@@@Z
      10513  B5F 00969340 ?GetOrgName@CNetSession@@QAGGAAVCStr@@@Z
      10514  B60 007A8D10 ?GetOwnerUserName@CAssistant@@QAGGPAD@Z
      10515  B61 004AFAF0 ?GetPackage@CSecSecurityProvider@@QAEGXZ
      10516  B62 00681100 ?GetParam@CIMailConfig@@QAGGW4tageCONFIG@@PAXGPAG@Z
      10517  B63 00066E00 ?GetParent@CSiteMapStore@@QAGPAVCSiteMapEntry@@PAV2@@Z
      10518  B64 0031E360 ?GetPartStat@CCSMeeting@@QAGHPBD0PAPAVCCSUsernameInfo@@@Z
      10519  B65 0031DFC0 ?GetPartStatExt@CCSMeeting@@QAGHPBD0PAPAVCCSUsernameInfo@@PAK@Z
      10520  B66 008EAFA0 ?GetPathName@CReplicaList@@QAGGGPADG@Z
      10521  B67 008DCF60 ?GetPeopleList@CManageDIP@@QAEPADXZ
      10522  B68 008DCF80 ?GetPeopleSection@CManageDIP@@QAEPADH@Z
      10523  B69 007D7330 ?GetPlatformUnicodeLine@CStream@@QAGGAAVCStr@@HHAAKAAHK@Z
      10524  B6A 008E8EF0 ?GetPolicyFormForEntry@CPolicyTypes@@QAEGGPADG@Z
      10525  B6B 008E8E60 ?GetPolicyLabelForEntry@CPolicyTypes@@QAEGGPADG@Z
      10526  B6C 008E8DD0 ?GetPolicySettingForEntry@CPolicyTypes@@QAEGGPADG@Z
      10527  B6D 008DBF10 ?GetPosition@CNIFCollection@@QAGKXZ
      10528  B6E 003CAA30 ?GetPreamble@CMimeEntity@@QAEPBDXZ
      10529  B6F 01098A50 ?GetPrev@CDAVNoteStore@@QAGPAVCDAVNoteEntry@@PAV2@@Z
      10530  B70 007CF790 ?GetPrev@CPointerList@@QBEPAXAAPAU__PTR_LIST_POS@@@Z
      10531  B71 00066D80 ?GetPrev@CSiteMapStore@@QAGPAVCSiteMapEntry@@PAV2@@Z
      10532  B72 00066DC0 ?GetPrevSibling@CSiteMapStore@@QAGPAVCSiteMapEntry@@PAV2@@Z
      10533  B73 0031E730 ?GetPriorityEnum@CCSValue@@QBEGPAW4eCSPriority@@@Z
      10534  B74 008F9AD0 ?GetProfileParam@Config@@QAGGPBDGPAXGPAD22PAG@Z
      10535  B75 008DF890 ?GetPromoteTime@CManageDPAB@@QAG?AUtagTIMEDATE@@XZ
      10536  B76 010F3500 ?GetProperty@CJSBaseObjectClass@@QAEGPAVJSNotesPropName@@PAVCJSNotesValue@@@Z
      10537  B77 0031E760 ?GetPropertyEnum@CCSValue@@QBEGPAW4eCSProperty@@@Z
      10538  B78 007A6A40 ?GetQuery@CAssistant@@QAGGPAPAVCRawQuery@@@Z
      10539  B79 009687E0 ?GetQueueIOCtx@CNetSession@@QAGGAAK@Z
      10540  B7A 00968760 ?GetQueueIOReceiveState@CNetSession@@QAG?AW4eCNetIOState@@XZ
      10541  B7B 009686E0 ?GetQueueIOSendState@CNetSession@@QAG?AW4eCNetIOState@@XZ
      10542  B7C 0096BDE0 ?GetQueueIOState@CNetSession@@QAG?AW4eCNetIOState@@AAK@Z
      10543  B7D 009687D0 ?GetQueueIOType@CNetSession@@QAGGPAH00@Z
      10544  B7E 007CF300 ?GetRange@CNumberList@@QAGPBURANGE@@XZ
      10545  B7F 006CDAB0 ?GetRelationIndex@CSearchCondition@@QAEHXZ
      10546  B80 00688050 ?GetRelationName@CSearchCondition@@SGGHPAVCMemStr@@@Z
      10547  B81 0096F160 ?GetRemoteHostName@CNetSession@@QAGGAAVCStr@@@Z
      10548  B82 0096ECF0 ?GetRemoteIPAddress@CNetSession@@QAGGAAVCStr@@@Z
      10549  B83 003180E0 ?GetRepeatMessageDateTimes@CCSMeeting@@QAGGPAX0PAPAX11G@Z
      10550  B84 003C6F70 ?GetReplacementRef@MIMEWalkEntry@@QAEGPADGPAPAD@Z
      10551  B85 008EC170 ?GetReplicateByValues@CReplicaSelectionNote@@QAGGXZ
      10552  B86 007A9C00 ?GetRunData@CAssistant@@QAGGHKPAPAXPAK@Z
      10553  B87 007AE630 ?GetRunData@CDefActionCtx@@UAGGHKPAPAXPAK@Z
      10554  B88 007BA550 ?GetSQLQuery@CRawQuery@@QAGGPAPAX@Z
      10555  B89 007DDAB0 ?GetSSOTokenUserName@NABLookup@@QAEPAEXZ
      10556  B8A 007A6A60 ?GetSchedule@CAssistant@@QAGGPAUtagASSISTSCHEDULESTRUCT@@@Z
      10557  B8B 007DCDC0 ?GetSearchFilter@NABLookupKerberosName@@QAEPADXZ
      10558  B8C 007AB020 ?GetSearchList@CAssistant@@MAGGPAVCDefActionCtx@@HPAPAXPAUtagASSISTRUNCTXSTRUCT@@@Z
      10559  B8D 00683910 ?GetSelectedServer@CLdapClient@@QAEGXZ
      10560  B8E 006838B0 ?GetServerCount@CLdapClient@@QAEGXZ
      10561  B8F 006838C0 ?GetServerName@CLdapClient@@QAEGGPAVCMemStr@@@Z
      10562  B90 008F9920 ?GetServerParam@Config@@QAGGPBDGPAXGPAG@Z
      10563  B91 008F9C50 ?GetServerParamNumber@Config@@QAGGPADAAKPAG@Z
      10564  B92 008F9BE0 ?GetServerParamText@Config@@QAGGPADAAVCAStr@@PAG@Z
      10565  B93 004B0150 ?GetServerPrincipalName@CSecSecurityProvider@@QAEGPAK@Z
      10566  B94 006867D0 ?GetServerURL@CLdapClient@@QAEGGPAVCMemStr@@@Z
      10567  B95 00972240 ?GetServiceType@CServerSession@@QAGGXZ
      10568  B96 009693E0 ?GetSessionCtx@CNetSession@@QAGGPAUSESSIONID@@@Z
      10569  B97 00107FB0 ?GetSetting@CBookMarkDb@@QAGGKPAX@Z
      10570  B98 007D6E90 ?GetSimpleNativeLine@CStream@@QAGGAAVCStr@@HAAKAAH@Z
      10571  B99 008F5800 ?GetSite@Config@@QAG?BW4ProtocolType@@XZ
      10572  B9A 008F9B30 ?GetSiteParam@Config@@QAGGPBD0GPAXGPAG@Z
      10573  B9B 001A84E0 ?GetSize@CCacheEntry@@UAGKXZ
      10574  B9C 009BB770 ?GetSize@CNSFNoteExtendableFileObj@@QAGKXZ
      10575  B9D 000EC5C0 ?GetSourceNoteID@CSiteMapStore@@QAGKPAVCSiteMapEntry@@@Z
      10576  B9E 00786700 ?GetStatus@CDirException@@QBEGXZ
      10577  B9F 007CB220 ?GetStatus@CHandlePool@@QAEGXZ
      10578  BA0 001ACEA0 ?GetStdout@CDefActionCtx@@UAEPAXXZ
      10579  BA1 001ACEA0 ?GetStdoutSize@CDefActionCtx@@UAEKXZ
      10580  BA2 006843F0 ?GetStrAttributeValue@CLdapClient@@QAE?AVCMemStr@@HPADH@Z
      10581  BA3 006841B0 ?GetStrAttributeValueByIndex@CLdapClient@@QAE?AVCMemStr@@HHH@Z
      10582  BA4 0031F670 ?GetString@CCSValue@@QBEGPADK@Z
      10583  BA5 0031E790 ?GetString@CCSValue@@QBEGPAPAULIST@@@Z
      10584  BA6 0031E800 ?GetString@CCSValue@@QBEGPAPAXPAPAGPAK@Z
      10585  BA7 0031E870 ?GetString@CCSValue@@QBEGQAPBDPAK@Z
      10586  BA8 007B9E00 ?GetStyleSheetName@CRawStyleSheetTerm@@QBGPBDXZ
      10587  BA9 007B9E10 ?GetStyleSheetReplicaID@CRawStyleSheetTerm@@QAGGAAUtagTIMEDATE@@@Z
      10588  BAA 008DCF70 ?GetSubjectList@CManageDIP@@QAEPADXZ
      10589  BAB 003C7DE0 ?GetSymbolIDFromString@CMimeEntity@@SG?AW4tagMimeWellKnownSymbolId@@UCMimeString@@@Z
      10590  BAC 007DBAE0 ?GetTZInfo@CWebUserPreferences@@QAEPAUTZINFO@@H@Z
      10591  BAD 007E09C0 ?GetTag@SmartConstTaggedTextlist@@UBEKXZ
      10592  BAE 007CF750 ?GetTail@CPointerList@@QBEPAXXZ
      10593  BAF 006C5410 ?GetTailPosition@CPointerList@@QBEPAU__PTR_LIST_POS@@XZ
      10594  BB0 009615F0 ?GetTaskDescInfo@CINetTask@@QAGGUINETTASKID@@PAHAAUSESSIONID@@AAUtagTIMEDATE@@@Z
      10595  BB1 010E1B80 ?GetTaskInfo@CDaemon@@QAEGAAG0@Z
      10596  BB2 009622A0 ?GetTaskPtr@CINetTask@@QAGGUINETTASKID@@PAPAUINETTASK@@@Z
      10597  BB3 007D8930 ?GetTaskStatData@CTaskStatDictionary@@QAGGKPAW4TaskOrStat@@PADKPAK@Z
      10598  BB4 007D8A40 ?GetTaskStatId@CTaskStatDictionary@@QAGGPADPAK@Z
      10599  BB5 007D8EE0 ?GetTaskStatListHandle@CTaskStatList@@QAGPAXXZ
      10600  BB6 007D8AD0 ?GetTaskStatListPtr@CTaskStatDictionary@@QAGPAVCTaskStatList@@XZ
      10601  BB7 008DBF80 ?GetText@CNIFEntryData@@UAGGPBXPBDAAVCMemStr@@@Z
      10602  BB8 007B4720 ?GetText@CRawActionByForm@@UAGGPADH@Z
      10603  BB9 007B4020 ?GetText@CRawActionDBCopy@@UAGGPADH@Z
      10604  BBA 007B4550 ?GetText@CRawActionDelete@@UAGGPADH@Z
      10605  BBB 007B4CD0 ?GetText@CRawActionFolder@@UAGGPADH@Z
      10606  BBC 007BB330 ?GetText@CRawActionFormula@@UAGGPADH@Z
      10607  BBD 007B2C40 ?GetText@CRawActionLotusScript@@UAGGPADH@Z
      10608  BBE 007B1610 ?GetText@CRawActionModifyField@@UAGGPADH@Z
      10609  BBF 007B84D0 ?GetText@CRawActionNewsletter@@UAGGPADH@Z
      10610  BC0 007B4A30 ?GetText@CRawActionReadMarks@@UAGGPADH@Z
      10611  BC1 007B1E50 ?GetText@CRawActionReply@@UAGGPADH@Z
      10612  BC2 007B5350 ?GetText@CRawActionRunAgent@@UAGGPADH@Z
      10613  BC3 007B5D60 ?GetText@CRawActionSendDocument@@UAGGPADH@Z
      10614  BC4 007B3B50 ?GetText@CRawActionSendMail@@UAGGPADH@Z
      10615  BC5 007B9D60 ?GetText@CRawJavaScriptTerm@@UAGGPADH@Z
      10616  BC6 007BB840 ?GetText@CRawQueryByField@@UAGGPADH@Z
      10617  BC7 007BCA70 ?GetText@CRawQueryByForm@@UAGGPADH@Z
      10618  BC8 007BB330 ?GetText@CRawQueryFormula@@UAGGPADH@Z
      10619  BC9 007BD910 ?GetText@CRawQueryTextTerm@@UAGGPADH@Z
      10620  BCA 007BD230 ?GetText@CRawQueryTopicTerm@@UAGGPADH@Z
      10621  BCB 007BC3F0 ?GetText@CRawQueryUsesForm@@UAGGPADH@Z
      10622  BCC 007B9D60 ?GetText@CRawStyleSheetTerm@@UAGGPADH@Z
      10623  BCD 007DC1E0 ?GetTextItem@NABLookup@@QAEHHPAEHH@Z
      10624  BCE 007E09A0 ?GetTextList@SmartConstTaggedTextlist@@UBEPBXHAAK@Z
      10625  BCF 007DC2C0 ?GetTheUserName@NABLookup@@QAEPAEXZ
      10626  BD0 008DBF30 ?GetTimeDate@CNIFEntryData@@UAGGPBXPBDPAUtagTIMEDATE@@@Z
      10627  BD1 008D96D0 ?GetTitle@CDatabase@@QAGGPADG@Z
      10628  BD2 008DA8A0 ?GetTitle@CDesignNote@@QAGGPADG@Z
      10629  BD3 008E8BC0 ?GetTitle@CNote@@QAGGPADG@Z
      10630  BD4 0031E8E0 ?GetToDoStateEnum@CCSValue@@QBEGPAW4eCSToDoState@@@Z
      10631  BD5 004AF9C0 ?GetToken@CSecSecurityProvider@@QAEGPAK0G@Z
      10632  BD6 007D0E50 ?GetToken@CStr@@QAGGPADAAV1@AAKAAH@Z
      10633  BD7 007D0E50 ?GetToken@CStr@@QAGGPBDAAV1@AAKAAH@Z
      10634  BD8 001107A0 ?GetToolbarData@CSiteMapEntry@@QAGGPAGPAK1@Z
      10635  BD9 001F3CC0 ?GetToolbarMgrData@CSiteMapEntry@@QAGGPAGPAK1@Z
      10636  BDA 00320120 ?GetTrackingID@CGURUInternetClient@@QAGXPAD@Z
      10637  BDB 007BC4F0 ?GetType@CRawActionByForm@@UAGHXZ
      10638  BDC 007B40A0 ?GetType@CRawActionDBCopy@@UAGHXZ
      10639  BDD 007B4570 ?GetType@CRawActionDelete@@UAGHXZ
      10640  BDE 01098A20 ?GetType@CRawActionFolder@@UAGHXZ
      10641  BDF 00112CA0 ?GetType@CRawActionFormula@@UAGHXZ
      10642  BE0 007B2C60 ?GetType@CRawActionLotusScript@@UAGHXZ
      10643  BE1 007B16B0 ?GetType@CRawActionModifyField@@UAGHXZ
      10644  BE2 007B84F0 ?GetType@CRawActionNewsletter@@UAGHXZ
      10645  BE3 007B4A70 ?GetType@CRawActionReadMarks@@UAGHXZ
      10646  BE4 007B1E70 ?GetType@CRawActionReply@@UAGHXZ
      10647  BE5 007B5380 ?GetType@CRawActionRunAgent@@UAGHXZ
      10648  BE6 007B5D80 ?GetType@CRawActionSendDocument@@UAGHXZ
      10649  BE7 007BB350 ?GetType@CRawActionSendMail@@UAGHXZ
      10650  BE8 008D8AA0 ?GetType@CRawJavaScriptTerm@@UAGHXZ
      10651  BE9 007BC060 ?GetType@CRawQueryByField@@UAGHXZ
      10652  BEA 007B40A0 ?GetType@CRawQueryByForm@@UAGHXZ
      10653  BEB 007BB350 ?GetType@CRawQueryFormula@@UAGHXZ
      10654  BEC 007B16B0 ?GetType@CRawQueryTextTerm@@UAGHXZ
      10655  BED 007BD250 ?GetType@CRawQueryTopicTerm@@UAGHXZ
      10656  BEE 007BC4F0 ?GetType@CRawQueryUsesForm@@UAGHXZ
      10657  BEF 008D8AA0 ?GetType@CRawStyleSheetTerm@@UAGHXZ
      10658  BF0 006802D0 ?GetUIDs@CIMAP4Client@@QAGGPAUASYNC_CONTEXT@@GK@Z
      10659  BF1 00118450 ?GetUNIDs@CSiteMapEntry@@QAGHPAUUNIVERSALNOTEID_tag@@0@Z
      10660  BF2 0031E960 ?GetUTC@CCSValue@@QBEGPAPAURANGE@@@Z
      10661  BF3 0031E9E0 ?GetUTC@CCSValue@@QBEGPAPAXPAK@Z
      10662  BF4 0031EA40 ?GetUTC@CCSValue@@QBEGPAUtagTIMEDATE@@@Z
      10663  BF5 0031E910 ?GetUnid@CCSValue@@QBEGPAUUNIVERSALNOTEID_tag@@@Z
      10664  BF6 00969260 ?GetUniqueSessionId@CNetSession@@QAGGAAVCStr@@@Z
      10665  BF7 008E7120 ?GetUnread@CNIFCollectionNew@@QAGGPAPAXPAX0@Z
      10666  BF8 008DAF10 ?GetValidityID@CFolderInfo@@QAGGAAJ@Z
      10667  BF9 0031FE80 ?GetValue@CCSValueArray@@QBEAAVCCSValue@@K@Z
      10668  BFA 010F3AA0 ?GetValueType@CJSNotesValue@@QAEGPAW4JSNotesValueType@@@Z
      10669  BFB 008F7A00 ?GetVariantValue@LsConv@@SGGPAULSsApiInstance@@PAEGKPAULSsValue@@@Z
      10670  BFC 00471220 ?GetViewNoteItem@@YGGPAXPADGGHPAPAX@Z
      10671  BFD 007AE610 ?GetWebServerReadCallBack@CDefActionCtx@@UAEP6GXPAXPADKPAK@ZPAPAX@Z
      10672  BFE 010F75C0 ?GetWebServiceConsumerLoadUtil@CCodeLib@@QAGPAVCWebServiceConsumerLoadUtil@@XZ
      10673  BFF 01098C70 ?GethNote@CDAVNoteStore@@QAGPAXH@Z
      10674  C00 010E1F50 ?Go@CDaemon@@QAEGPAX0PADG@Z
      10675  C01 010E1E90 ?Go@CDaemon@@QAEGPAXG@Z
      10676  C02 0068B090 ?GroupCacheCancelAsyncIO@CNewsServer@@QAEGPAUGROUP_CACHE_ASYNC_CTX@@@Z
      10677  C03 0068BAB0 ?GroupCacheCreateAsync@CNewsServer@@QAEGHPAUGROUP_CACHE_ASYNC_CTX@@@Z
      10678  C04 007D5030 ?GuessBestEncoding@CStream@@QAGGKKHAAW4EncodingGuess@@@Z
      10679  C05 00966410 ?GuessContentType@CNHTTPRetriever@@QAGHPAD@Z
      10680  C06 010F2BE0 ?HandleDoEnumerate@CJSArrayHelperClass@@UAEGPAVNJSContext@@@Z
      10681  C07 008D8AA0 ?HandleDoEnumerate@CJSBaseObjectClass@@UAEGPAVNJSContext@@@Z
      10682  C08 0117C1B0 ?HandleDoMethod@CJSBaseObjectClass@@UAEGPAVNJSContext@@PAHHGPAVCJSNotesValue@@2@Z
      10683  C09 010F2DD0 ?HandleDoResolve@CJSBaseObjectClass@@UAEGPAVNJSContext@@PAHPAVJSNotesPropName@@@Z
      10684  C0A 010F2BD0 ?HandleFill@CJSArrayHelperClass@@UAEGPAH@Z
      10685  C0B 010F2D70 ?HandleFill@CJSBaseObjectClass@@UAEGPAH@Z
      10686  C0C 010F2B50 ?HandleGetProperty@CJSArrayHelperClass@@UAEGPAVNJSContext@@PAHPAVJSNotesPropName@@PAVCJSNotesValue@@@Z
      10687  C0D 00D51A60 ?HandleGetProperty@CJSBaseObjectClass@@UAEGPAVNJSContext@@PAHPAVJSNotesPropName@@PAVCJSNotesValue@@@Z
      10688  C0E 008D2100 ?HandlePolicyRemoval@CAcctMgmt@@QAEGXZ
      10689  C0F 010F2BC0 ?HandleSetProperty@CJSArrayHelperClass@@UAEGPAVNJSContext@@PAHPAVJSNotesPropName@@PAVCJSNotesValue@@@Z
      10690  C10 00D51A60 ?HandleSetProperty@CJSBaseObjectClass@@UAEGPAVNJSContext@@PAHPAVJSNotesPropName@@PAVCJSNotesValue@@@Z
      10691  C11 01098A70 ?HasChanged@CDAVNoteStore@@QAGHXZ
      10692  C12 008DDC10 ?HasDipTableSizeChanged@CManageDIP@@SGHXZ
      10693  C13 007BF230 ?HasLeadingOperator@CRawQueryTextTerm@@UAGHXZ
      10694  C14 008E7E20 ?HasPublicAccess@CNote@@QAGHXZ
      10695  C15 007BF3A0 ?HasTrailingOperator@CRawQueryTextTerm@@UAGHXZ
      10696  C16 001B6970 ?HasValidTemplate@CBookMarkDb@@QAGHXZ
      10697  C17 007E1500 ?Hash@CHashElement@@UAGGHG@Z
      10698  C18 007E16A0 ?Hash@CHashTable@@MAGGAAVCMemStr@@@Z
      10699  C19 010E3890 ?HaveUserOptions@JavaOptions@@QAEHXZ
      10700  C1A 005D1A20 ?ICL_allocateSerialNumber@JONAH@@YAGAAPAXAAVasn_integer@1@@Z
      10701  C1B 005D1AE0 ?ICL_allocateSerialNumber@JONAH@@YAGPAVCAContext@1@AAVasn_integer@1@@Z
      10702  C1C 005D0EE0 ?ICL_createInternetCertEntry@JONAH@@YAGPAVCAContext@1@ABVx509_certificate@1@PBD@Z
      10703  C1D 005D0D20 ?ICL_createNotesCertEntry@JONAH@@YAGPAVCAContext@1@PBUSTRING_DESC@@PBD@Z
      10704  C1E 005D1490 ?ICL_retrieveEntry@JONAH@@YAGABVasn_integer@1@PAXAAK@Z
      10705  C1F 005D1220 ?ICL_revokeCertEntry@JONAH@@YAGPAVCAContext@1@ABVasn_integer@1@HPBDPBUutcDateTime@@@Z
      10706  C20 00974690 ?ICTcpConnect@OpenURL@@QAGGPAXPADG1@Z
      10707  C21 00974A80 ?ICTcpDisconnect@OpenURL@@QAGGPAX@Z
      10708  C22 00973640 ?ICTcpNtiInitialize@OpenURL@@QAGGPAUICTCP_CONTEXT@@@Z
      10709  C23 009736D0 ?ICTcpNtiSSL@OpenURL@@QAGGPAXPAPAX@Z
      10710  C24 00973A50 ?ICTcpNtiSetRcvBufMode@OpenURL@@QAGGPAXH@Z
      10711  C25 006C5370 ?ICTcpNtiSetSSLOptions@OpenURL@@QAGGPAX@Z
      10712  C26 00973690 ?ICTcpNtiTerminate@OpenURL@@QAGGPAUICTCP_CONTEXT@@@Z
      10713  C27 00974AF0 ?ICTcpReceive@OpenURL@@QAGGPAXPADGPAGP6GGXZ0@Z
      10714  C28 00974B40 ?ICTcpSend@OpenURL@@QAGGPAXPADGPAG@Z
      10715  C29 00966470 ?ICUUEncode@CNHTTPRetriever@@QAGHPAEIPAD@Z
      10716  C2A 007E2CA0 ?IMAPParseAtomToken@@YGGAAVCStr@@0AAW4eIMAP_TOKEN@@H@Z
      10717  C2B 007E2CD0 ?IMAPParseGetStringToken@@YGGAAVCStr@@0AAW4eIMAP_TOKEN@@H@Z
      10718  C2C 007E2920 ?IMAPParseToken@@YGGAAVCStr@@0AAW4eIMAP_TOKEN@@H@Z
      10719  C2D 0067FD70 ?Idle@CIMAP4Client@@QAGGPAUASYNC_CONTEXT@@@Z
      10720  C2E 00680330 ?IdleExt@CIMAP4Client@@QAGGPAUASYNC_CONTEXT@@GK@Z
      10721  C2F 003291D0 ?Import@CIMsgImport@@QAGGAAVCStream@@PAXGKPAUCONVERSION_CONTROLS@@@Z
      10722  C30 00326840 ?ImportConvertHeaders@CIMsgImport@@QAGGAAVCStream@@PAXPAKPAUCONVERSION_CONTROLS@@H@Z
      10723  C31 008D9480 ?InfoGet@CDatabase@@QAGGPAD@Z
      10724  C32 008D94A0 ?InfoSet@CDatabase@@QAGGPBD@Z
      10725  C33 0090A340 ?Init@CArchSetPolicy@@QAGGPAX00GPAUDBARCHIVE_STATS@@HGH@Z
      10726  C34 00113100 ?Init@CBookMarkDb@@QAGGPAHPAJ@Z
      10727  C35 001B68A0 ?Init@CBookMarkDb@@QAGGPAX@Z
      10728  C36 00127150 ?Init@CCodeLib@@QAGGPAXKH@Z
      10729  C37 010F7210 ?Init@CCodeLib@@QAGGPAXPBDW4ACTION_TYPE@@H@Z
      10730  C38 010E16F0 ?Init@CDaemon@@UAEGXZ
      10731  C39 010E2060 ?Init@CDaemonManager@@UAEGXZ
      10732  C3A 010E2520 ?Init@CDaemonWorker@@UAEGXZ
      10733  C3B 007AE670 ?Init@CDefActionCtx@@UAGGPAXPAVCAssistant@@0K@Z
      10734  C3C 008F6BA0 ?Init@CEZFontTable@@QAGGG@Z
      10735  C3D 0012CE70 ?Init@CEventLanguageTable@@QAGGAAV1@@Z
      10736  C3E 000677C0 ?Init@CEventLanguageTable@@QAGGPBUEventLanguageEntry@@G@Z
      10737  C3F 000B2DB0 ?Init@CEventLanguageTable@@QAGGXZ
      10738  C40 007E15B0 ?Init@CHashTable@@QAGGXZ
      10739  C41 0032C1C0 ?Init@CIMsgMimeDirectoryNativeStore@@QAEGPAVCMimeDirectory@@PAXPAUCONVERSION_CONTROLS@@@Z
      10740  C42 010F2D80 ?Init@CJSBaseObjectClass@@UAEGGPAVCJSSession@@PAV1@@Z
      10741  C43 010F41A0 ?Init@CJSSession@@QAEGPAXPAVCJSClassFactoryClass@@H@Z
      10742  C44 010E2E80 ?Init@CJavaDocument@@QAGGKP6GGPAXGPAE0@ZHHHW4JVM_TASK_ENUM@@@Z
      10743  C45 0074B460 ?Init@CLDAPSearch@@QAEXXZ
      10744  C46 010F92E0 ?Init@CLSIDocument@@QAGGKP6GFPAXGPAE0@Z@Z
      10745  C47 010F9BD0 ?Init@CLSIDocumentHolder@@QAEGPAVCLSIDocument@@@Z
      10746  C48 010FCDE0 ?Init@CLSLib@@UAGGPAX0K@Z
      10747  C49 008EBE80 ?Init@CReplicaList@@UAGGPAH@Z
      10748  C4A 0047F3D0 ?Init@CSOAPFactory@@SGGXZ
      10749  C4B 001B7250 ?Init@CSubscriptionStore@@QAGGPAH@Z
      10750  C4C 007D8100 ?Init@CTaskStatDictionary@@UAGGXZ
      10751  C4D 0004D4F0 ?Init@CVector@@UAEGKK@Z
      10752  C4E 004770B0 ?Init@CViewFontTable@@QAGGG@Z
      10753  C4F 0095FC20 ?InitClient@CClientSession@@UAGGGPAD0@Z
      10754  C50 0032D420 ?InitClient@CInternetClient@@UAGGGPAD0@Z
      10755  C51 008D8AA0 ?InitCommands@CDefActionCtx@@UAGGXZ
      10756  C52 004AABC0 ?InitData@CSecWasSSOToken@@QAGGXZ
      10757  C53 004AE380 ?InitDataAreaMap@CSecLtpaToken2@@QAGGPADKUtagTIMEDATE@@PAX@Z
      10758  C54 004AE180 ?InitDataAreaMap@CSecWasSSOToken@@QAGGPADK@Z
      10759  C55 004AAC30 ?InitEncodeBuffer@CSecWasSSOToken@@QAGGXZ
      10760  C56 008DA6B0 ?InitFromNote@CDesignNote@@QAGGH@Z
      10761  C57 006791E0 ?InitIMAP4Client@CIMAP4Client@@QAGGGPAUIMAILLOGINCB@@@Z
      10762  C58 0032C220 ?InitIMAP503@CIMsgMimeDirectoryNativeStore@@QAEGPAVCMimeDirectory@@PAXPAUCONVERSION_CONTROLS@@@Z
      10763  C59 008E9BD0 ?InitLists@CPolicyTypes@@QAEGXZ
      10764  C5A 0046F3C0 ?InitNew@CColumnFormat@@QAGGAAVCViewFontTable@@@Z
      10765  C5B 0031DF90 ?InitPartStat@CCSMeeting@@QAGGPAXPAUtagTIMEDATE@@@Z
      10766  C5C 00972690 ?InitServer@CServerSession@@QAGGGGGPAD0@Z
      10767  C5D 009612A0 ?InitTaskTable@CINetTask@@QAGGGPAD@Z
      10768  C5E 007DA700 ?InitWithMem@CVector@@UAEGPAXKK@Z
      10769  C5F 007CFE70 ?Initialize2@CSet@@QAGGPAXK@Z
      10770  C60 007E2670 ?Initialize@CIMAPSet@@QAGGAAVCStr@@KH@Z
      10771  C61 007CC1B0 ?Initialize@CListBase@@QAGGKKKPBX@Z
      10772  C62 00965960 ?Initialize@CNHTTPRetriever@@UAGGPADH0PAUURLRetrieveContext@@HH@Z
      10773  C63 00961EE0 ?Initialize@CNetIOCP@@QAGGAAUtagVBLOCK@@GKPAD@Z
      10774  C64 00970080 ?Initialize@CNetSession@@UAGGAAUSESSIONID@@@Z
      10775  C65 00967900 ?Initialize@CNetSession@@UAGGAAUSESSIONID@@H@Z
      10776  C66 007CEFA0 ?Initialize@CNumberList@@QAGXKK@Z
      10777  C67 007CFE40 ?Initialize@CSet@@QAGGKG@Z
      10778  C68 007CFEB0 ?Initialize@CSet@@QAGGPAXAAV1@@Z
      10779  C69 007D9570 ?Initialize@CTextList@@QAGXKK@Z
      10780  C6A 00974490 ?Initialize@OpenURL@@UAGGPADH0PAUURLRetrieveContext@@HH@Z
      10781  C6B 0067B4F0 ?InitializeAndAuthenticate@CIMAP4Client@@QAGGPAUASYNC_CONTEXT@@GPAUIMAILLOGINCB@@@Z
      10782  C6C 008D8AA0 ?InitializeEmit@HTMLEmitter@@UAEGPAX@Z
      10783  C6D 0109EC90 ?InitializeHistory@CSiteMapStore@@QAGPAVCSiteMapEntry@@XZ
      10784  C6E 004B01A0 ?InitializeToken@CSecSecurityProvider@@QAEGPBDPAHKPBEGK@Z
      10785  C6F 00745260 ?Insert@CLDAPLongestSearches@@QAEGKPBDH0PBQBDKHKK@Z
      10786  C70 007CC360 ?Insert@CListBase@@QAGGKPBX@Z
      10787  C71 007CF6D0 ?Insert@CObjectArray@@QAGGPAVCNotesBaseClass@@G@Z
      10788  C72 007D9680 ?Insert@CTextList@@QAGGKPBDK@Z
      10789  C73 00107C20 ?Insert@CVector@@UAEGKPBX@Z
      10790  C74 001B2910 ?Insert@ListMgr@@QAEXPAVLinkedElement@@0H@Z
      10791  C75 00763AB0 ?Insert@PYLTree@@QAEXPBVCNotesBaseClass@@PBD@Z
      10792  C76 007CF990 ?InsertAfter@CPointerList@@QAEPAU__PTR_LIST_POS@@PAU2@PAX@Z
      10793  C77 007CF910 ?InsertBefore@CPointerList@@QAEPAU__PTR_LIST_POS@@PAU2@PAX@Z
      10794  C78 00474FD0 ?InsertColumn@CViewFormat@@QAGGG@Z
      10795  C79 0022D9D0 ?InsertRange@ListMgr@@QAEXPAVLinkedElement@@00H@Z
      10796  C7A 00335190 ?InterrogateConnection@CSSLPolicy@@QAGGUSESSIONID@@AAVCStr@@H@Z
      10797  C7B 0032D4A0 ?InterrogateSSLConnection@CInternetClient@@QAGGGKKHH@Z
      10798  C7C 007CFEF0 ?Intersect@CSet@@QAGGAAV1@@Z
      10799  C7D 0033B830 ?InvokeCreate@CCSEventDesc@@SGGW4eCSEventType@@HPAV1@PAPAV1@@Z
      10800  C7E 0033B9B0 ?InvokeCreate@CCSParticipantTableHeader@@SGGGGPAPAV1@@Z
      10801  C7F 008FAFD0 ?IsAPLoggingEnabled@CArchSetPolicy@@QAGHPADPAH@Z
      10802  C80 01167DA0 ?IsActivatable@CAssistant@@QAGHXZ
      10803  C81 00968630 ?IsAsyncReceiveIOReq@CNetSession@@QAGHK@Z
      10804  C82 0096BA50 ?IsAsyncReceiveOutstanding@CNetSession@@QAGHXZ
      10805  C83 0096B8F0 ?IsAsyncReceiveQueued@CNetSession@@QAGHXZ
      10806  C84 0096B790 ?IsAsyncSendOutstanding@CNetSession@@QAGHXZ
      10807  C85 0096B630 ?IsAsyncSendQueued@CNetSession@@QAGHXZ
      10808  C86 00472240 ?IsColumnFormulaConstant@CViewFormat@@QAGGGPADGPAH@Z
      10809  C87 008F9D20 ?IsConfigSet@Config@@QAGGPADAAH@Z
      10810  C88 010F3600 ?IsContextLocal@CJSBaseObjectClass@@IAEHPAVNJSContext@@@Z
      10811  C89 00EA7840 ?IsDB2_91@NIFSQL@@QAEHXZ
      10812  C8A 008EAFF0 ?IsDefault@CReplicaList@@QAGHG@Z
      10813  C8B 001ACEA0 ?IsDisassociated@CCachedRefCntHandleClass@@UAEHXZ
      10814  C8C 001B2520 ?IsDisassociated@CRefCntBaseClass@@UAEHXZ
      10815  C8D 00968B10 ?IsDottedDecimalIPAddress@CNetSession@@QAGHAAVCStr@@@Z
      10816  C8E 008DE600 ?IsDpabCCEnabled@CManageDIP@@SGHXZ
      10817  C8F 008DE640 ?IsDpabEnabled@CManageDIP@@SGHXZ
      10818  C90 008DE620 ?IsDpabSenderOnly@CManageDIP@@SGHXZ
      10819  C91 000380D0 ?IsEmpty@CMemStr@@QBEHXZ
      10820  C92 007CEE30 ?IsEmpty@CMemStrList@@UAEHXZ
      10821  C93 007CF760 ?IsEmpty@CPointerList@@QBEHXZ
      10822  C94 007CEE30 ?IsEmpty@CSortedMemStrList@@UAEHXZ
      10823  C95 007D30E0 ?IsEmpty@CStrList@@QAGHXZ
      10824  C96 007D9F80 ?IsEmpty@CTimeDate@@QBEHXZ
      10825  C97 0109C720 ?IsEntryHidden@CSiteMapStore@@QAGHPAVCSiteMapEntry@@@Z
      10826  C98 0074ECA0 ?IsEqual@encQueue@@UAGHPBX0@Z
      10827  C99 00104EF0 ?IsExpandable@CSiteMapEntry@@UAGHXZ
      10828  C9A 007A8450 ?IsFormulaAgent@CAssistant@@QAGGXZ
      10829  C9B 00192280 ?IsHidden@CSiteMapEntry@@QAGHXZ
      10830  C9C 007A6BE0 ?IsHideFromNotes@CAssistant@@QAGHXZ
      10831  C9D 007A6B80 ?IsHideFromWeb@CAssistant@@QAGHXZ
      10832  C9E 00972350 ?IsIOCPSupported@CServerSession@@QAGHXZ
      10833  C9F 009B9F60 ?IsItem@CAssociatedItems@@QAGHK@Z
      10834  CA0 009BB140 ?IsItem@CAssociatedItems@@QAGHPAD@Z
      10835  CA1 00472080 ?IsItemNameUsed@CViewFormat@@QAGHPAD@Z
      10836  CA2 010E6760 ?IsJavaArchive@CJavaProject@@SGHPBD@Z
      10837  CA3 010E66B0 ?IsJavaSource@CJavaProject@@SGHPBD@Z
      10838  CA4 00473790 ?IsLastVisibleColumnResponse@CViewFormat@@QAGHXZ
      10839  CA5 007AEB20 ?IsLinkVisited@HTMLEmitter@@UAEGPBD0PAH@Z
      10840  CA6 010F48C0 ?IsLiveConnectAvailable@CJSSession@@QAEHXZ
      10841  CA7 008E8120 ?IsMailDatabase@CNote@@QAGGPAH@Z
      10842  CA8 007D8D80 ?IsMember@CTaskStatList@@QAGHK@Z
      10843  CA9 008E2FD0 ?IsNDR@CManageDIP@@QAEHPAXPAPAX@Z
      10844  CAA 0028EEB0 ?IsNNTP@CNNTPDatabase@@QAGHXZ
      10845  CAB 00972060 ?IsNotesPortEnabled@CServerSession@@QAGGPAD@Z
      10846  CAC 010F3BA0 ?IsNull@CJSNotesValue@@QAEHXZ
      10847  CAD 0074EC40 ?IsOnQueue@encQueue@@QAGHPBX@Z
      10848  CAE 007BF500 ?IsOperator@CRawQueryTextTerm@@UAGHXZ
      10849  CAF 007A67C0 ?IsProfile@CAssistant@@QAGHXZ
      10850  CB0 007A6800 ?IsProhibitDesignUpdate@CAssistant@@QAGHXZ
      10851  CB1 009685A0 ?IsReceiveIOReq@CNetSession@@QAGHK@Z
      10852  CB2 0096B9A0 ?IsReceiveOutstanding@CNetSession@@QAGHXZ
      10853  CB3 0096B840 ?IsReceiveQueued@CNetSession@@QAGHXZ
      10854  CB4 010E66F0 ?IsResource@CJavaProject@@SGHPBD@Z
      10855  CB5 007A6AC0 ?IsRunAsWebUser@CAssistant@@QAGHXZ
      10856  CB6 0096F540 ?IsSSLEndPoint@CNetSession@@QAGHXZ
      10857  CB7 007A6B20 ?IsScriptLibrary@CAssistant@@QAGHXZ
      10858  CB8 00968510 ?IsSendIOReq@CNetSession@@QAGHK@Z
      10859  CB9 0096B6E0 ?IsSendOutstanding@CNetSession@@QAGHXZ
      10860  CBA 0096B580 ?IsSendQueued@CNetSession@@QAGHXZ
      10861  CBB 008E7F00 ?IsSignedOrSealed@CNote@@QAGGPAH00@Z
      10862  CBC 007AEB80 ?IsSignerFullAdmin@CDefActionCtx@@QAGHXZ
      10863  CBD 008D8AA0 ?IsTextTerm@CRawActionTerm@@UAGHXZ
      10864  CBE 008D8AA0 ?IsTextTerm@CRawJavaScriptTerm@@UAGHXZ
      10865  CBF 007BADD0 ?IsTextTerm@CRawQueryTerm@@UAGHXZ
      10866  CC0 008D8AA0 ?IsTextTerm@CRawStyleSheetTerm@@UAGHXZ
      10867  CC1 007BDA90 ?IsUnaryOperator@CRawQueryTextTerm@@UAGHXZ
      10868  CC2 007CF5D0 ?IsUsedAt@CObjectArray@@QAGHG@Z
      10869  CC3 007CB260 ?IsValid@CHandlePool@@QAEHG@Z
      10870  CC4 007BAF10 ?IsValid@CRawQueryTextTerm@@UAGHXZ
      10871  CC5 007BD4B0 ?IsValid@CRawQueryTopicTerm@@UAGHXZ
      10872  CC6 010F3B90 ?IsVoid@CJSNotesValue@@QAEHXZ
      10873  CC7 00192360 ?IsWebMode@CSiteMapEntry@@QAGHXZ
      10874  CC8 007A67E0 ?IsWebService@CAssistant@@QAGHXZ
      10875  CC9 010F75E0 ?IsWebServiceConsumer@CCodeLib@@QAGHXZ
      10876  CCA 008E74F0 ?ItemDelete@CNote@@QAGGPBD@Z
      10877  CCB 008E76E0 ?ItemGetNumber@CNote@@QAGHPBDPAUNUMBER_tag@@@Z
      10878  CCC 008E7710 ?ItemGetNumberList@CNote@@QAGGPBDAAVCNumberList@@@Z
      10879  CCD 0011DC50 ?ItemGetText@CNote@@QAGGPBDPADG@Z
      10880  CCE 008E77C0 ?ItemGetTextList@CNote@@QAGGPBDAAVCTextList@@D@Z
      10881  CCF 008E76A0 ?ItemGetTime@CNote@@QAGHPBDAAVCTimeDate@@@Z
      10882  CD0 008E7660 ?ItemIsPresent@CNote@@QAGHPBD@Z
      10883  CD1 008E7530 ?ItemSetNumber@CNote@@QAGGPBDPBUNUMBER_tag@@@Z
      10884  CD2 008E75F0 ?ItemSetNumberList@CNote@@QAGGPBDAAVCNumberList@@G@Z
      10885  CD3 008E73C0 ?ItemSetText@CNote@@QAGGPBD0G@Z
      10886  CD4 008E7560 ?ItemSetTextList@CNote@@QAGGPBDAAVCTextList@@G@Z
      10887  CD5 008E73F0 ?ItemSetTime@CNote@@QAGGPBDABVCTimeDate@@@Z
      10888  CD6 005A80E0 ?JNH_CertGetIssuedCert@JONAH@@YAGABVCMBlob@1@AAVbuffer_t@1@K@Z
      10889  CD7 005B1470 ?JNH_CertreqAddAltIssuerName@JONAH@@YAGAAVCMBlob@1@ABUaltName@1@K@Z
      10890  CD8 005B1110 ?JNH_CertreqAddAltSubjectName@JONAH@@YAGAAVCMBlob@1@ABUaltName@1@K@Z
      10891  CD9 005A6D70 ?JNH_CertreqAddExtension@JONAH@@YAGAAVCMBlob@1@VoctetString@1@_N1K@Z
      10892  CDA 005A6D70 ?JNH_CertreqAddNameConstraints_ExcludedSubtree@JONAH@@YAGAAVCMBlob@1@UsubTree@1@K@Z
      10893  CDB 005A6D70 ?JNH_CertreqAddNameConstraints_PermittedSubtree@JONAH@@YAGAAVCMBlob@1@UsubTree@1@K@Z
      10894  CDC 005A6D70 ?JNH_CertreqAddPolicy@JONAH@@YAGAAVCMBlob@1@VoctetString@1@K@Z
      10895  CDD 005A6D70 ?JNH_CertreqAddPolicyConstraint@JONAH@@YAGAAVCMBlob@1@UpolicyConstraint@1@K@Z
      10896  CDE 005A6D70 ?JNH_CertreqAddPolicyMapping@JONAH@@YAGAAVCMBlob@1@VoctetString@1@1K@Z
      10897  CDF 005A6D70 ?JNH_CertreqAddPolicyQualifier_URI@JONAH@@YAGAAVCMBlob@1@VoctetString@1@QAEK@Z
      10898  CE0 005A6D70 ?JNH_CertreqAddPolicyQualifier_userNotice@JONAH@@YAGAAVCMBlob@1@VoctetString@1@UuserNotice@1@K@Z
      10899  CE1 005ADA60 ?JNH_CertreqAddXKeyUsage@JONAH@@YAGAAVCMBlob@1@ABVoctetString@1@K@Z
      10900  CE2 005ADF60 ?JNH_CertreqAddXKeyUsageNumeric@JONAH@@YAGAAVCMBlob@1@QAEK@Z
      10901  CE3 005ACF70 ?JNH_CertreqClearAltIssuerNames@JONAH@@YAGAAVCMBlob@1@K@Z
      10902  CE4 005ACE60 ?JNH_CertreqClearAltSubjectNames@JONAH@@YAGAAVCMBlob@1@K@Z
      10903  CE5 005AE120 ?JNH_CertreqClearExtensions@JONAH@@YAGAAVCMBlob@1@K@Z
      10904  CE6 005A6D70 ?JNH_CertreqClearNameConstraints_ExcludedSubtrees@JONAH@@YAGAAVCMBlob@1@K@Z
      10905  CE7 005A6D70 ?JNH_CertreqClearNameConstraints_PermittedSubtrees@JONAH@@YAGAAVCMBlob@1@K@Z
      10906  CE8 005AD640 ?JNH_CertreqClearPolicies@JONAH@@YAGAAVCMBlob@1@K@Z
      10907  CE9 005AD980 ?JNH_CertreqClearPolicyConstraints@JONAH@@YAGAAVCMBlob@1@K@Z
      10908  CEA 005AD6B0 ?JNH_CertreqClearPolicyMappings@JONAH@@YAGAAVCMBlob@1@K@Z
      10909  CEB 005A6D70 ?JNH_CertreqClearPolicyQualifier_URIs@JONAH@@YAGAAVCMBlob@1@VoctetString@1@K@Z
      10910  CEC 005A6D70 ?JNH_CertreqClearPolicyQualifier_userNotices@JONAH@@YAGAAVCMBlob@1@VoctetString@1@K@Z
      10911  CED 005AD9F0 ?JNH_CertreqClearXKeyUsages@JONAH@@YAGAAVCMBlob@1@K@Z
      10912  CEE 005A6D70 ?JNH_CertreqCutAltIssuerName@JONAH@@YAGAAVCMBlob@1@ABUaltName@1@K@Z
      10913  CEF 005A6D70 ?JNH_CertreqCutAltSubjectName@JONAH@@YAGAAVCMBlob@1@ABUaltName@1@K@Z
      10914  CF0 005AE160 ?JNH_CertreqCutExtension@JONAH@@YAGAAVCMBlob@1@VoctetString@1@K@Z
      10915  CF1 005A6D70 ?JNH_CertreqCutNameConstraints_ExcludedSubtree@JONAH@@YAGAAVCMBlob@1@UsubTree@1@K@Z
      10916  CF2 005A6D70 ?JNH_CertreqCutNameConstraints_PermittedSubtree@JONAH@@YAGAAVCMBlob@1@UsubTree@1@K@Z
      10917  CF3 005A6D70 ?JNH_CertreqCutPolicy@JONAH@@YAGAAVCMBlob@1@VoctetString@1@K@Z
      10918  CF4 005A6D70 ?JNH_CertreqCutPolicyConstraint@JONAH@@YAGAAVCMBlob@1@UpolicyConstraint@1@K@Z
      10919  CF5 005A6D70 ?JNH_CertreqCutPolicyMapping@JONAH@@YAGAAVCMBlob@1@VoctetString@1@1K@Z
      10920  CF6 005A6D70 ?JNH_CertreqCutPolicyQualifier_URI@JONAH@@YAGAAVCMBlob@1@VoctetString@1@QAEK@Z
      10921  CF7 005A6D70 ?JNH_CertreqCutPolicyQualifier_userNotice@JONAH@@YAGAAVCMBlob@1@VoctetString@1@UuserNotice@1@K@Z
      10922  CF8 005AE080 ?JNH_CertreqCutXKeyUsage@JONAH@@YAGAAVCMBlob@1@VoctetString@1@K@Z
      10923  CF9 005B06C0 ?JNH_CertreqGetAllApproved@JONAH@@YAGABVCMBlob@1@PA_N@Z
      10924  CFA 005AAD40 ?JNH_CertreqGetAltIssuerNames@JONAH@@YAGABVCMBlob@1@PAKPAPAUaltName@1@K@Z
      10925  CFB 005AA850 ?JNH_CertreqGetAltSubjectNames@JONAH@@YAGABVCMBlob@1@PAKPAPAUaltName@1@K@Z
      10926  CFC 005A6D70 ?JNH_CertreqGetAuthorityKeyId@JONAH@@YAGABVCMBlob@1@PAVoctetString@1@PAKPAPAUaltName@1@1K@Z
      10927  CFD 005AC190 ?JNH_CertreqGetBasicConstraints@JONAH@@YAGABVCMBlob@1@PA_NPAK1K@Z
      10928  CFE 005AB150 ?JNH_CertreqGetEnddate@JONAH@@YAGABVCMBlob@1@PAUutcDateTime@@K@Z
      10929  CFF 005A6D70 ?JNH_CertreqGetExtensions@JONAH@@YAGABVCMBlob@1@PAKPAPAPAEPAPA_NPAPAVoctetString@1@K@Z
      10930  D00 005A98B0 ?JNH_CertreqGetIsApproved@JONAH@@YAGABVCMBlob@1@PA_NK@Z
      10931  D01 005A98F0 ?JNH_CertreqGetIsNotesCert@JONAH@@YAGABVCMBlob@1@PA_NK@Z
      10932  D02 005AAC20 ?JNH_CertreqGetIssuerName@JONAH@@YAGABVCMBlob@1@PAPAEK@Z
      10933  D03 005AB5D0 ?JNH_CertreqGetKeyUsage@JONAH@@YAGABVCMBlob@1@PAKK@Z
      10934  D04 005AA5A0 ?JNH_CertreqGetLicenseInfo@JONAH@@YAGABVCMBlob@1@PAUKFM_LICENSE_INFO@@K@Z
      10935  D05 005A6D70 ?JNH_CertreqGetNameConstraints_ExcludedSubtrees@JONAH@@YAGABVCMBlob@1@PAKPAPAUsubTree@1@K@Z
      10936  D06 005A6D70 ?JNH_CertreqGetNameConstraints_PermittedSubtrees@JONAH@@YAGABVCMBlob@1@PAKPAPAUsubTree@1@K@Z
      10937  D07 005A8090 ?JNH_CertreqGetNumRequests@JONAH@@YAGABVCMBlob@1@PAK@Z
      10938  D08 005ABC60 ?JNH_CertreqGetPolicies@JONAH@@YAGABVCMBlob@1@PAKPAPAVoctetString@1@K@Z
      10939  D09 005AE790 ?JNH_CertreqGetPolicy@JONAH@@YAGABVCMBlob@1@PAPAEK@Z
      10940  D0A 005A6D70 ?JNH_CertreqGetPolicyConstraints@JONAH@@YAGABVCMBlob@1@PAKPAPAUpolicyConstraint@1@K@Z
      10941  D0B 005A6D70 ?JNH_CertreqGetPolicyMappings@JONAH@@YAGABVCMBlob@1@PAKPAPAPAE2K@Z
      10942  D0C 005A6D70 ?JNH_CertreqGetPolicyQualifier_URIs@JONAH@@YAGABVCMBlob@1@VoctetString@1@PAKPAPAPAEK@Z
      10943  D0D 005A6D70 ?JNH_CertreqGetPolicyQualifier_UserNotices@JONAH@@YAGABVCMBlob@1@VoctetString@1@PAKPAPAUuserNotice@1@K@Z
      10944  D0E 005AB8F0 ?JNH_CertreqGetPrivateKeyUsagePeriod@JONAH@@YAGABVCMBlob@1@PAUutcDateTime@@1K@Z
      10945  D0F 005AA330 ?JNH_CertreqGetPrivkeyCreationTime@JONAH@@YAGABVCMBlob@1@PAUtagTIMEDATE@@K@Z
      10946  D10 005A9C20 ?JNH_CertreqGetSerialNumber@JONAH@@YAGABVCMBlob@1@PAVoctetString@1@K@Z
      10947  D11 005AB110 ?JNH_CertreqGetStartdate@JONAH@@YAGABVCMBlob@1@PAUutcDateTime@@K@Z
      10948  D12 005A9B70 ?JNH_CertreqGetSubjectKey@JONAH@@YAGABVCMBlob@1@PAVSubjectPublicKeyInfo@1@K@Z
      10949  D13 005A9970 ?JNH_CertreqGetSubjectKeyAlgorithm@JONAH@@YAGABVCMBlob@1@AAVbuffer_t@1@K@Z
      10950  D14 005A99B0 ?JNH_CertreqGetSubjectKeyAlgorithmNumeric@JONAH@@YAGABVCMBlob@1@PAPAEK@Z
      10951  D15 005A9AB0 ?JNH_CertreqGetSubjectKeyFingerprint@JONAH@@YAGABVCMBlob@1@PAPAEK@Z
      10952  D16 005AB190 ?JNH_CertreqGetSubjectKeyId@JONAH@@YAGABVCMBlob@1@PAVoctetString@1@K@Z
      10953  D17 005AB520 ?JNH_CertreqGetSubjectKeyIdHex@JONAH@@YAGABVCMBlob@1@PAPAEK@Z
      10954  D18 005B0780 ?JNH_CertreqGetSubjectKeyLength@JONAH@@YAGABVCMBlob@1@PAIK@Z
      10955  D19 005A9930 ?JNH_CertreqGetSubjectKeyPresent@JONAH@@YAGABVCMBlob@1@PA_NK@Z
      10956  D1A 005A9D40 ?JNH_CertreqGetSubjectName@JONAH@@YAGABVCMBlob@1@PAPAEK@Z
      10957  D1B 005AE8C0 ?JNH_CertreqGetSubjectNames@JONAH@@YAGPAXABVCMBlob@1@PBDPAPAXPAUSTRING_DESC@@K@Z
      10958  D1C 005AC3E0 ?JNH_CertreqGetXKeyUsages@JONAH@@YAGABVCMBlob@1@PAKPAPAVoctetString@1@K@Z
      10959  D1D 005AC830 ?JNH_CertreqGetXKeyUsagesNumeric@JONAH@@YAGABVCMBlob@1@PAKPAPAPAEK@Z
      10960  D1E 005B1830 ?JNH_CertreqSetAltIssuerNames@JONAH@@YAGAAVCMBlob@1@KPBUaltName@1@K@Z
      10961  D1F 005B17D0 ?JNH_CertreqSetAltSubjectNames@JONAH@@YAGAAVCMBlob@1@KPBUaltName@1@K@Z
      10962  D20 005ACC70 ?JNH_CertreqSetApproved@JONAH@@YAGAAVCMBlob@1@_NK@Z
      10963  D21 005A6D70 ?JNH_CertreqSetAuthorityKeyId@JONAH@@YAGAAVCMBlob@1@VoctetString@1@QAE1K@Z
      10964  D22 005AD720 ?JNH_CertreqSetBasicConstraints@JONAH@@YAGAAVCMBlob@1@_N1KK@Z
      10965  D23 005AD020 ?JNH_CertreqSetEndDate@JONAH@@YAGAAVCMBlob@1@UutcDateTime@@K@Z
      10966  D24 005ACED0 ?JNH_CertreqSetIssuerName@JONAH@@YAGAAVCMBlob@1@QAEK@Z
      10967  D25 005AD370 ?JNH_CertreqSetKeyUsage@JONAH@@YAGAAVCMBlob@1@KK@Z
      10968  D26 005A9E60 ?JNH_CertreqSetLicenseInfo@JONAH@@YAGAAVCMBlob@1@PBUKFM_LICENSE_INFO@@K@Z
      10969  D27 005A6D70 ?JNH_CertreqSetNameConstraints_ExcludedSubtrees@JONAH@@YAGAAVCMBlob@1@KQBUsubTree@1@K@Z
      10970  D28 005A6D70 ?JNH_CertreqSetNameConstraints_PermittedSubtrees@JONAH@@YAGAAVCMBlob@1@KQBUsubTree@1@K@Z
      10971  D29 005ACCB0 ?JNH_CertreqSetNotesCert@JONAH@@YAGAAVCMBlob@1@_N1K@Z
      10972  D2A 005A6D70 ?JNH_CertreqSetPolicies@JONAH@@YAGAAVCMBlob@1@KPAPAEK@Z
      10973  D2B 005AE740 ?JNH_CertreqSetPolicy@JONAH@@YAGAAVCMBlob@1@QAEK@Z
      10974  D2C 005A6D70 ?JNH_CertreqSetPolicyConstraints@JONAH@@YAGAAVCMBlob@1@KQBUpolicyConstraint@1@K@Z
      10975  D2D 005A6D70 ?JNH_CertreqSetPolicyMappings@JONAH@@YAGAAVCMBlob@1@KQBVoctetString@1@1K@Z
      10976  D2E 005A6D70 ?JNH_CertreqSetPolicyQualifier_URIs@JONAH@@YAGAAVCMBlob@1@VoctetString@1@KPBQAEK@Z
      10977  D2F 005A6D70 ?JNH_CertreqSetPolicyQualifier_userNotices@JONAH@@YAGAAVCMBlob@1@VoctetString@1@KQAUuserNotice@1@K@Z
      10978  D30 005A6D70 ?JNH_CertreqSetPrivateKeyUsagePeriod@JONAH@@YAGAAVCMBlob@1@UutcDateTime@@1K@Z
      10979  D31 005AA0B0 ?JNH_CertreqSetPrivkeyCreationTime@JONAH@@YAGAAVCMBlob@1@PBUtagTIMEDATE@@K@Z
      10980  D32 005ACFE0 ?JNH_CertreqSetStartDate@JONAH@@YAGAAVCMBlob@1@UutcDateTime@@K@Z
      10981  D33 005ACD10 ?JNH_CertreqSetSubjectKey@JONAH@@YAGAAVCMBlob@1@PBVSubjectPublicKeyInfo@1@K@Z
      10982  D34 005AD060 ?JNH_CertreqSetSubjectKeyId@JONAH@@YAGAAVCMBlob@1@ABVoctetString@1@K@Z
      10983  D35 005AD2C0 ?JNH_CertreqSetSubjectKeyIdHex@JONAH@@YAGAAVCMBlob@1@QAEK@Z
      10984  D36 005ACDC0 ?JNH_CertreqSetSubjectName@JONAH@@YAGAAVCMBlob@1@QAEK@Z
      10985  D37 005AF180 ?JNH_CertreqSetSubjectNames@JONAH@@YAGAAVCMBlob@1@PAXK@Z
      10986  D38 005B0870 ?JNH_CertreqSetXKeyUsages@JONAH@@YAGAAVCMBlob@1@KQBVoctetString@1@K@Z
      10987  D39 005B08D0 ?JNH_CertreqSetXKeyUsagesNumeric@JONAH@@YAGAAVCMBlob@1@KQBQAEK@Z
      10988  D3A 005A6CC0 ?JNH_CreateCertreq@JONAH@@YAGAAVCMBlob@1@@Z
      10989  D3B 005A6D20 ?JNH_CreateRevreq@JONAH@@YAGAAVCMBlob@1@@Z
      10990  D3C 005A6D80 ?JNH_CvtASNToNotes@JONAH@@YAGABVasn_x500name@1@AAVbuffer_t@1@@Z
      10991  D3D 005A81A0 ?JNH_CvtNotesToASN@JONAH@@YAGABVr_buffer_t@1@AAVasn_x500name@1@@Z
      10992  D3E 005A6EC0 ?JNH_CvtNotesToASN@JONAH@@YAGPBDAAVasn_x500name@1@@Z
      10993  D3F 005A82E0 ?JNH_CvtSNoFromText@JONAH@@YAGQAEAAVasn_integer@1@@Z
      10994  D40 005A7460 ?JNH_CvtSNoFromText@JONAH@@YAGQAEPAVoctetString@1@@Z
      10995  D41 005A8230 ?JNH_CvtSNoToText@JONAH@@YAGABVasn_integer@1@PAPAE@Z
      10996  D42 005A7360 ?JNH_CvtSNoToText@JONAH@@YAGPBVoctetString@1@PAPAE@Z
      10997  D43 005B0930 ?JNH_RevreqGetAllApproved@JONAH@@YAGABVCMBlob@1@PA_N@Z
      10998  D44 005AE410 ?JNH_RevreqGetCertIssuer@JONAH@@YAGABVCMBlob@1@PAPAEK@Z
      10999  D45 005AE310 ?JNH_RevreqGetCertSerialNumber@JONAH@@YAGABVCMBlob@1@PAVoctetString@1@K@Z
      11000  D46 005A6D70 ?JNH_RevreqGetHoldInstructionCode@JONAH@@YAGABVCMBlob@1@PAVoctetString@1@K@Z
      11001  D47 005A6D70 ?JNH_RevreqGetInvalidityDate@JONAH@@YAGABVCMBlob@1@PAUutcDateTime@@K@Z
      11002  D48 005AE2D0 ?JNH_RevreqGetIsApproved@JONAH@@YAGABVCMBlob@1@PA_NK@Z
      11003  D49 005A8150 ?JNH_RevreqGetNumRequests@JONAH@@YAGABVCMBlob@1@PAK@Z
      11004  D4A 005AE390 ?JNH_RevreqGetReason@JONAH@@YAGABVCMBlob@1@PAKK@Z
      11005  D4B 005A6D70 ?JNH_RevreqGetRevocationDate@JONAH@@YAGABVCMBlob@1@PAUutcDateTime@@K@Z
      11006  D4C 005AE530 ?JNH_RevreqSetApproved@JONAH@@YAGAAVCMBlob@1@_NK@Z
      11007  D4D 005AE6A0 ?JNH_RevreqSetCertIssuer@JONAH@@YAGAAVCMBlob@1@QAEK@Z
      11008  D4E 005AE570 ?JNH_RevreqSetCertSerialNumber@JONAH@@YAGAAVCMBlob@1@VoctetString@1@K@Z
      11009  D4F 005A6D70 ?JNH_RevreqSetHoldInstructionCode@JONAH@@YAGAAVCMBlob@1@VoctetString@1@K@Z
      11010  D50 005A6D70 ?JNH_RevreqSetInvalidityDate@JONAH@@YAGAAVCMBlob@1@UutcDateTime@@K@Z
      11011  D51 005AE620 ?JNH_RevreqSetReason@JONAH@@YAGAAVCMBlob@1@KK@Z
      11012  D52 005A6D70 ?JNH_RevreqSetRevocationDate@JONAH@@YAGAAVCMBlob@1@UutcDateTime@@K@Z
      11013  D53 005A7D80 ?JNH_addCertreq@JONAH@@YAGAAVCMBlob@1@PAK@Z
      11014  D54 005A7E30 ?JNH_addRevreq@JONAH@@YAGAAVCMBlob@1@PAK@Z
      11015  D55 005A7EE0 ?JNH_copyBlob@JONAH@@YAGABVCMBlob@1@AAV21@@Z
      11016  D56 005A7220 ?JNH_createCAContext@@YGGPAX00PAPAX@Z
      11017  D57 005A6D70 ?JNH_createCRL@JONAH@@YAGAAVCMBlob@1@PAX@Z
      11018  D58 005B3CB0 ?JNH_createCerts@@YGGKPAX@Z
      11019  D59 005A7DF0 ?JNH_cutCertreq@JONAH@@YAGAAVCMBlob@1@K@Z
      11020  D5A 005A7E80 ?JNH_cutRevreq@JONAH@@YAGAAVCMBlob@1@K@Z
      11021  D5B 005A72D0 ?JNH_deleteCAContext@@YGGPAPAX@Z
      11022  D5C 005A6890 ?JNH_releaseAltNames@JONAH@@YAGKAAPAUaltName@1@@Z
      11023  D5D 005A6750 ?JNH_releaseOctetString@JONAH@@YAGAAVoctetString@1@@Z
      11024  D5E 005A67C0 ?JNH_releaseOctetStrings@JONAH@@YAGKAAPAVoctetString@1@@Z
      11025  D5F 005A6B30 ?JNH_releasePolicyConstraints@JONAH@@YAGKAAPAUpolicyConstraint@1@@Z
      11026  D60 005A6A60 ?JNH_releaseSubTrees@JONAH@@YAGKAAPAUsubTree@1@@Z
      11027  D61 005A6950 ?JNH_releaseUserNotices@JONAH@@YAGKAAPAUuserNotice@1@@Z
      11028  D62 005A66E0 ?JNH_releaseUtf8String@JONAH@@YAGAAPAE@Z
      11029  D63 005A6C00 ?JNH_releaseUtf8Strings@JONAH@@YAGKAAPAPAE@Z
      11030  D64 005B09F0 ?JNH_revokeCerts@@YGGKPAX@Z
      11031  D65 005A6D70 ?JNH_revokeCerts@JONAH@@YAGABVCMBlob@1@AAV21@PAX@Z
      11032  D66 005A7300 ?JNH_verifySignatureWithCAContext@@YGGPAX0PAUtagTIMEDATE@@PAD2@Z
      11033  D67 00746BD0 ?LDAPIndexToViewName@@YGPBDG@Z
      11034  D68 00764190 ?LDAP_IsXACLEnabled@@YGHPAXPBUldap_process@@@Z
      11035  D69 001F6D00 ?LMBCSToUniCode@LSISession@@QAGGPADKPAPAXPAK@Z
      11036  D6A 005A7100 ?LMBCStoUTF8@JONAH@@YAGPBDAAVbuffer_t@1@@Z
      11037  D6B 005A7010 ?LMBCStoUTF8@JONAH@@YAGPBDPAPAE@Z
      11038  D6C 00034210 ?LSHashName@@YGGPAGK@Z
      11039  D6D 010F9C20 ?LSIDocDeleted@CLSIDocumentHolder@@QAEXXZ
      11040  D6E 000DA230 ?LSLoadScriptItemRef@@YGGPAXPADGAAVCRefCntHandleReference@@PAH@Z
      11041  D6F 01100160 ?LSStoreScriptItemRef@@YGGPAXPADGGGVCRefCntHandleReference@@@Z
      11042  D70 007CD080 ?Left@CMemStr@@QBE?AV1@H@Z
      11043  D71 00965B50 ?LegalizeHTTPHeaderName@CNHTTPRetriever@@QAGXPAD@Z
      11044  D72 009BA440 ?List@CAssociatedItems@@QAGGPAPAPADPAK@Z
      11045  D73 0067B300 ?ListMailboxes@CIMAP4Client@@QAGGPAUASYNC_CONTEXT@@GHPAD1K@Z
      11046  D74 007CC130 ?ListMemFree@CListBase@@UAGXXZ
      11047  D75 007CC100 ?ListMemRealloc@CListBase@@UAGGK@Z
      11048  D76 0067B490 ?ListRights@CIMAP4Client@@QAGGPAUASYNC_CONTEXT@@GPAD1@Z
      11049  D77 0013D5D0 ?ListSave@CCDHTMLCodeSave@@QAGGPAULOCAL_queue@@@Z
      11050  D78 00972960 ?Listen@CServerSession@@QAGGAAUSESSIONID@@@Z
      11051  D79 00972D10 ?ListenEndPoint@CServerSession@@QAGKXZ
      11052  D7A 007A9E70 ?Load@CAssistant@@QAGGPAXK0@Z
      11053  D7B 0011DAB0 ?Load@CCDEventLanguageTableLoader@@QAGGXZ
      11054  D7C 00231670 ?Load@CCDHTMLCodeLoad@@QAGGPAULOCAL_queue@@PAPAU2@@Z
      11055  D7D 000D1240 ?Load@CCDTagAttributeLoader@@QAGGPAUTAGATTRIBUTELIST@@@Z
      11056  D7E 00218270 ?Load@CColumnFormat@@QAGGPAUtagVIEW_COLUMN_FORMAT@@PAPADPAGAAVCViewFontTable@@@Z
      11057  D7F 01099BE0 ?Load@CDAVNoteStore@@QAGGPAXPADKH@Z
      11058  D80 008F6C10 ?Load@CEZFontTable@@QAGGPAX@Z
      11059  D81 008D8160 ?Load@CEventLanguageTable@@QAGGPAURANGE@@@Z
      11060  D82 010F7AF0 ?Load@CJavaCodeLibData@@UAGGPAX@Z
      11061  D83 010F90F0 ?Load@CJavaScriptCodeLibData@@UAGGPAX@Z
      11062  D84 001274D0 ?Load@CLSCodeLibData@@UAGGPAX@Z
      11063  D85 00966E80 ?Load@CNHTTPRetriever@@UAGGPAH0@Z
      11064  D86 0068A620 ?Load@CNewsGroup@@QAEGPAXPBD@Z
      11065  D87 0068B480 ?Load@CNewsServer@@QAEGPAXPBDH@Z
      11066  D88 007B4740 ?Load@CRawActionByForm@@UAGGPAX@Z
      11067  D89 007B40B0 ?Load@CRawActionDBCopy@@UAGGPAX@Z
      11068  D8A 007B4580 ?Load@CRawActionDelete@@UAGGPAX@Z
      11069  D8B 007B4D80 ?Load@CRawActionFolder@@UAGGPAX@Z
      11070  D8C 007B2560 ?Load@CRawActionFormula@@UAGGPAX@Z
      11071  D8D 007B2C70 ?Load@CRawActionLotusScript@@UAGGPAX@Z
      11072  D8E 007B16C0 ?Load@CRawActionModifyField@@UAGGPAX@Z
      11073  D8F 007B8500 ?Load@CRawActionNewsletter@@UAGGPAX@Z
      11074  D90 007B4A90 ?Load@CRawActionReadMarks@@UAGGPAX@Z
      11075  D91 007B1E80 ?Load@CRawActionReply@@UAGGPAX@Z
      11076  D92 007B5390 ?Load@CRawActionRunAgent@@UAGGPAX@Z
      11077  D93 007B5D90 ?Load@CRawActionSendDocument@@UAGGPAX@Z
      11078  D94 007B3B70 ?Load@CRawActionSendMail@@UAGGPAX@Z
      11079  D95 007B9CF0 ?Load@CRawJavaScriptTerm@@UAGGPAX@Z
      11080  D96 007BC090 ?Load@CRawQueryByField@@UAGGPAX@Z
      11081  D97 007BCA90 ?Load@CRawQueryByForm@@UAGGPAX@Z
      11082  D98 007BB360 ?Load@CRawQueryFormula@@UAGGPAX@Z
      11083  D99 007BAF40 ?Load@CRawQueryTextTerm@@UAGGPAX@Z
      11084  D9A 007BD260 ?Load@CRawQueryTopicTerm@@UAGGPAX@Z
      11085  D9B 007BC500 ?Load@CRawQueryUsesForm@@UAGGPAX@Z
      11086  D9C 007B9CF0 ?Load@CRawStyleSheetTerm@@UAGGPAX@Z
      11087  D9D 00126360 ?Load@CSiteMapStore@@QAGGPAXPADKK@Z
      11088  D9E 008F1C50 ?Load@CSubscriptionStore@@QAGGH@Z
      11089  D9F 007BFF60 ?Load@CTermList@@QAGGPAXPAD@Z
      11090  DA0 0021BEA0 ?Load@CViewFontTable@@QAGGPAX@Z
      11091  DA1 00219240 ?Load@CViewFormat@@QAGGPAX@Z
      11092  DA2 010E4D80 ?Load@JavaOptions@@QAEGXZ
      11093  DA3 00972F10 ?Load@OpenURL@@UAGGPAH0@Z
      11094  DA4 00231560 ?LoadBegin@CCDHTMLCodeLoad@@QAGGPAUhtml_code@@@Z
      11095  DA5 002315E0 ?LoadBlobPart@CCDHTMLCodeLoad@@QAGGXZ
      11096  DA6 001272F0 ?LoadCodeLib@CCodeLib@@QAGGH@Z
      11097  DA7 00471310 ?LoadEditableItems@CViewFormat@@QAGGPAXKHHH@Z
      11098  DA8 00218960 ?LoadExtended2@CColumnFormat@@QAGGPAUVIEW_COLUMN_FORMAT2@@PAPAD@Z
      11099  DA9 00218720 ?LoadExtended@CColumnFormat@@QAGGPAUVIEW_COLUMN_FORMAT2@@AAVCViewFontTable@@@Z
      11100  DAA 00218A30 ?LoadExtendedDate@CColumnFormat@@QAGGPAUVIEW_COLUMN_FORMAT3@@PAPAD@Z
      11101  DAB 00218C10 ?LoadExtendedNumber@CColumnFormat@@QAGGPAUVIEW_COLUMN_FORMAT4@@PAPAD@Z
      11102  DAC 006C5370 ?LoadExtra@CTermElement@@UAGGPAX@Z
      11103  DAD 007BFE60 ?LoadExtraHuge@CTermElement@@UAGGPAX@Z
      11104  DAE 007BFAD0 ?LoadFromBuffer@CTermList@@QAGGPAXPADK@Z
      11105  DAF 00219B80 ?LoadFromItem@CViewFormat@@QAGGPAXPADG@Z
      11106  DB0 010A2720 ?LoadFromNote@CSiteMapStore@@QAGGPAX0K@Z
      11107  DB1 007D5D50 ?LoadFromNoteObject@CStream@@QAGGPAXPADH@Z
      11108  DB2 007D5BF0 ?LoadFromObjectStream@CStream@@QAGGPAXHH@Z
      11109  DB3 007AEC40 ?LoadHeader@CRawAction@@MAGGPAXPAK@Z
      11110  DB4 007BF820 ?LoadHeader@CRawJavaScript@@MAGGPAXPAK@Z
      11111  DB5 007BA6E0 ?LoadHeader@CRawQuery@@MAGGPAXPAK@Z
      11112  DB6 007BF820 ?LoadHeader@CRawStyleSheet@@MAGGPAXPAK@Z
      11113  DB7 007BFE60 ?LoadHuge@CTermElement@@UAGGPAX@Z
      11114  DB8 008D7CC0 ?LoadLibraryRef@CCDHTMLCodeLoad@@QAGGXZ
      11115  DB9 007A6CC0 ?LoadName@CAssistant@@IAGGPAX@Z
      11116  DBA 010FFF80 ?LoadObject@LSIModule@@QAGGPADKH@Z
      11117  DBB 007A8DB0 ?LoadRunObject@CAssistant@@IAGGXZ
      11118  DBC 007A6F60 ?LoadRunObjectV3@CAssistant@@IAGGXZ
      11119  DBD 010FCE30 ?LoadScriptLib@CLSLib@@UAGGH@Z
      11120  DBE 010990B0 ?LoadSpecial@CDAVNoteStore@@QAGGPAXKPAD@Z
      11121  DBF 008D7ED0 ?LoadTerm@CCDHTMLCodeLoad@@QAGXXZ
      11122  DC0 007A90D0 ?LoadV3@CAssistant@@IAGGPAX@Z
      11123  DC1 010E1E20 ?Loadstring@CDaemon@@QAEGGPADG@Z
      11124  DC2 008D8F00 ?LocateByReplicaID@CDatabase@@QAGGPBDPAUtagTIMEDATE@@@Z
      11125  DC3 008DBBC0 ?Lock@CHandleBuffer@@QAGPADXZ
      11126  DC4 003CDBE0 ?Lock@CMimeDirectory@@SGGKPAPAV1@@Z
      11127  DC5 0003C460 ?Lock@CVector@@UAEPAXXZ
      11128  DC6 01099F60 ?Lock@SmartMemoryObject@@MBGHXZ
      11129  DC7 01099F60 ?LockExclusive@SmartMemoryObject@@MBGHXZ
      11130  DC8 010E1CF0 ?LockExtraBytes@CDaemon@@QAEGPAXHPAG@Z
      11131  DC9 00962560 ?LockTaskPtr@CINetTask@@QAGGAAUINETTASKID@@PAPAUINETTASK@@@Z
      11132  DCA 00961570 ?LockTaskTableReadSEM@CINetTask@@QAGXXZ
      11133  DCB 009615B0 ?LockTaskTableWriteSEM@CINetTask@@QAGXXZ
      11134  DCC 008D9510 ?LogDebugMessage@CDatabase@@QAGHXZ
      11135  DCD 004AEF50 ?LogDebugMessage@CSecSecurityProvider@@QAEXHG@Z
      11136  DCE 004AF010 ?LogDebugMessage@CSecSecurityProvider@@QAEXHGG@Z
      11137  DCF 004AF190 ?LogDebugMessage@CSecSecurityProvider@@QAEXHGGG@Z
      11138  DD0 004AF0D0 ?LogDebugMessage@CSecSecurityProvider@@QAEXHGJ@Z
      11139  DD1 004AF380 ?LogDebugMessage@CSecSecurityProvider@@QAEXHGKK@Z
      11140  DD2 004AF380 ?LogDebugMessage@CSecSecurityProvider@@QAEXHGPBD0@Z
      11141  DD3 004AF0D0 ?LogDebugMessage@CSecSecurityProvider@@QAEXHGPBD@Z
      11142  DD4 002FECF0 ?LogIntAEV@CLogEvent@@QAEXGG@Z
      11143  DD5 00765130 ?LogInvalidCredentials@CLDAPEvent@@QAEGPBD@Z
      11144  DD6 004AEEF0 ?LogLevel@CSecSecurityProvider@@QAEGXZ
      11145  DD7 010E2C00 ?LogMessage@CDaemonTask@@QAAGGZZ
      11146  DD8 010E2760 ?LogMessageV@CDaemonTask@@QAEGGPAD@Z
      11147  DD9 007AE8A0 ?LogOutput@CDefActionCtx@@UAGGPADH@Z
      11148  DDA 0067AE70 ?Login@CIMAP4Client@@QAGGPAUASYNC_CONTEXT@@PAUIMAILLOGINCB@@@Z
      11149  DDB 0067FDD0 ?Logout@CIMAP4Client@@QAGGPAUASYNC_CONTEXT@@@Z
      11150  DDC 00072500 ?Lookup@BSearchable@@QBEPAXPBDG@Z
      11151  DDD 007DDC20 ?LookupBasicUser@NABLookup@@QAEHPAE00KHH@Z
      11152  DDE 007DF1E0 ?LookupCertUser@NABLookup@@QAEGKPAXGPAEKPAH@Z
      11153  DDF 007DE6C0 ?LookupDNUser@NABLookup@@QAEHPAE0K@Z
      11154  DE0 007DFFD0 ?LookupKrbUser@NABLookupKerberosName@@QAEHPAE0@Z
      11155  DE1 010F3440 ?LookupProperty@CJSBaseObjectClass@@QAEGPAVJSNotesPropName@@PAVCJSNotesValue@@@Z
      11156  DE2 010F3E40 ?LookupProperty@CJSNotesValue@@QAEGPAVJSNotesPropName@@PAV1@@Z
      11157  DE3 007CCC70 ?Lowercase@CMemStr@@QAEXXZ
      11158  DE4 007D04A0 ?Lowercase@CStr@@QAGGXZ
      11159  DE5 003E1BB0 ?MIMEParseHeader@@YAGPADGAAVCMemStr@@11PAG@Z
      11160  DE6 007B34C0 ?Mail@CRawActionMail@@MAGGPAVCDefActionCtx@@PAXG@Z
      11161  DE7 007B34C0 ?Mail@CRawActionReply@@MAGGPAVCDefActionCtx@@PAXG@Z
      11162  DE8 010E21C0 ?MainLoop@CDaemonManager@@UAEGXZ
      11163  DE9 010E25D0 ?MainLoop@CDaemonWorker@@UAEGXZ
      11164  DEA 010E2DE0 ?MakeCurrent@CJavaDocument@@QAGPAV1@XZ
      11165  DEB 010F9E20 ?MakeCurrent@CLSIDocument@@QAGGPAPAVCLSIDocumentHolder@@@Z
      11166  DEC 000B9BA0 ?MakeCurrent@LSIThread@@QAEXXZ
      11167  DED 010CD530 ?MakeInfoBlkInvisible@CPROGDocument@@QAGXXZ
      11168  DEE 010CD510 ?MakeInfoBlkVisible@CPROGDocument@@QAGXXZ
      11169  DEF 00033230 ?MapSymbol@LSsModule@@QAGPAEG@Z
      11170  DF0 010FE550 ?MapToNotes@LSISession@@IAGGPAULSDISALLOWINFO@@PAPAD@Z
      11171  DF1 010F4110 ?MarkDead@CJSSession@@QAEXH@Z
      11172  DF2 00329740 ?Match822FIELDNAMEANDBODY@CIMsgImport@@QAGGAAVCStream@@KAAVCAStr@@1AAKPAK@Z
      11173  DF3 00322D90 ?Match822TEXT@CIMsgImport@@QAGGAAVCStream@@KAAVCAStr@@AAK@Z
      11174  DF4 0032FE90 ?MatchALPHA@CParse@@QAGGAAVCStream@@KAAVCStr@@AAK@Z
      11175  DF5 0032FE60 ?MatchANYCHAR@CParse@@QAGGAAVCStream@@KAAVCStr@@AAK@Z
      11176  DF6 003301B0 ?MatchCHAR@CParse@@QAGGAAVCStream@@KPADAAVCStr@@AAK@Z
      11177  DF7 0032FF20 ?MatchCR@CParse@@QAGGAAVCStream@@KAAVCStr@@AAK@Z
      11178  DF8 00330010 ?MatchCRLF@CParse@@QAGGAAVCStream@@KAAVCStr@@AAK@Z
      11179  DF9 0032FEF0 ?MatchCTL@CParse@@QAGGAAVCStream@@KAAVCStr@@AAK@Z
      11180  DFA 0032FEC0 ?MatchDIGIT@CParse@@QAGGAAVCStream@@KAAVCStr@@AAK@Z
      11181  DFB 003303F0 ?MatchEOS@CParse@@QAGGAAVCStream@@KAAVCStr@@AAK@Z
      11182  DFC 0032FFB0 ?MatchHTAB@CParse@@QAGGAAVCStream@@KAAVCStr@@AAK@Z
      11183  DFD 00330240 ?MatchICHAR@CParse@@QAGGAAVCStream@@KPADAAVCStr@@AAK@Z
      11184  DFE 00330360 ?MatchISTRING@CParse@@QAGGAAVCStream@@KPADAAVCStr@@AAK@Z
      11185  DFF 0032FF50 ?MatchLF@CParse@@QAGGAAVCStream@@KAAVCStr@@AAK@Z
      11186  E00 00330460 ?MatchLINE@CParse@@QAGGAAVCStream@@KHAAVCStr@@AAK@Z
      11187  E01 0032FFE0 ?MatchLWSPCHAR@CParse@@QAGGAAVCStream@@KAAVCStr@@AAK@Z
      11188  E02 0032FD30 ?MatchRegularCharHelper@CParse@@QAGGAAVCStream@@KGAAVCStr@@AAK@Z
      11189  E03 0032FF80 ?MatchSPACE@CParse@@QAGGAAVCStream@@KAAVCStr@@AAK@Z
      11190  E04 003302D0 ?MatchSTRING@CParse@@QAGGAAVCStream@@KPADAAVCStr@@AAK@Z
      11191  E05 007E2E40 ?MaxKeyStrlen@BSearchable@@QBEGXZ
      11192  E06 0090BD40 ?Merge@CBookMarkDb@@QAGGPAVCSiteMapStore@@00KK@Z
      11193  E07 010A2C40 ?Merge@CSiteMapStore@@QAGGPAV1@0KKPAVCSiteMapMergeHelper@@@Z
      11194  E08 007D9F30 ?Merge@CTimeDate@@QAEXABV1@0@Z
      11195  E09 00474380 ?MergeColumnFormulas@CViewFormat@@QAGGPAXPAH@Z
      11196  E0A 010E4310 ?MergeUserOptions@JavaOptions@@QAEHPAXHPAPAX@Z
      11197  E0B 00335B80 ?MimeDirToStream@CIMsgExport@@QAGGPAXKAAVCStream@@G@Z
      11198  E0C 0090C610 ?MimeFileGetContentInfo@@YAGPAVCMemStr@@PAD@Z
      11199  E0D 0090C3F0 ?MimeGenBoundary@@YAXGPAD@Z
      11200  E0E 0090C5E0 ?MimeGenContentHeader@@YAGPAVCMemStr@@PADPBD220@Z
      11201  E0F 0090C060 ?MimeGenContentHeaderExt@@YAGPAVCMemStr@@PADPBD220H@Z
      11202  E10 007E37B0 ?MimeParseHeaderParam@@YAGPAD0AAVCMemStr@@@Z
      11203  E11 007E36F0 ?MimeParseHeaderValue@@YAGPADAAVCMemStr@@@Z
      11204  E12 0090BF80 ?MimeSaveMultipartEpilog@@YAGPAXPADGPBD@Z
      11205  E13 0090BE10 ?MimeSaveMultipartProlog@@YAGPAXPADGG11@Z
      11206  E14 003C73A0 ?MimeWalkSaysBrowser@MIMEWalkEntry@@QAEHH@Z
      11207  E15 007D3520 ?Modified@CStream@@QAGGXZ
      11208  E16 00473970 ?ModifiedCalendarFormat@CViewFormat@@QAGHXZ
      11209  E17 008D7520 ?MoveEntries@CBookMarkDb@@QAGGPAVCSiteMapStore@@PAVCSiteMapEntry@@11K@Z
      11210  E18 00234B60 ?MoveEntries@CSiteMapStore@@QAGGPAVCSiteMapEntry@@00K@Z
      11211  E19 00234B90 ?MoveOrCopyEntries@CSiteMapStore@@QAGGPAVCSiteMapEntry@@00KPAV1@PAPAV2@2@Z
      11212  E1A 00680220 ?MyRights@CIMAP4Client@@QAGGPAUASYNC_CONTEXT@@GPAD@Z
      11213  E1B 00974660 ?NTISetRcvBufsMode@OpenURL@@QAGGH@Z
      11214  E1C 00680280 ?NameSpace@CIMAP4Client@@QAGGPAUASYNC_CONTEXT@@G@Z
      11215  E1D 007DC200 ?NeedNameMappingToDominoDN@NABLookup@@QAEHXZ
      11216  E1E 00118740 ?NeverYield@LSIThread@@QAGFXZ
      11217  E1F 004B0030 ?New@CSecSecurityProvider@@SAPAV1@G@Z
      11218  E20 007A7420 ?NewAction@CAssistant@@MAGGPAPAVCRawAction@@@Z
      11219  E21 007A7490 ?NewAssistant@CAssistant@@UAGGPAPAV1@@Z
      11220  E22 01099020 ?NewEntry@CDAVNoteStore@@UAGPAVCDAVNoteEntry@@XZ
      11221  E23 0109DC70 ?NewEntryFromNote@CSiteMapStore@@QAGPAVCSiteMapEntry@@KPAX@Z
      11222  E24 010E6620 ?NewJavaProject@CJavaProject@@SGPAV1@P6GGPAXGPAE0@ZH@Z
      11223  E25 007AEC70 ?NewList@CRawAction@@MAGGPAPAVCTermList@@@Z
      11224  E26 007B9E70 ?NewList@CRawJavaScript@@MAGGPAPAVCTermList@@@Z
      11225  E27 007BA730 ?NewList@CRawQuery@@MAGGPAPAVCTermList@@@Z
      11226  E28 007BF840 ?NewList@CRawStyleSheet@@MAGGPAPAVCTermList@@@Z
      11227  E29 007A74C0 ?NewQuery@CAssistant@@MAGGPAPAVCRawQuery@@@Z
      11228  E2A 01101250 ?NewSOAPParams@CSOAPParams@@SGPAV1@PAVCSOAPOperation@@@Z
      11229  E2B 01101210 ?NewSOAPParams@CSOAPParams@@SGPAV1@PAVCSOAPOperation@@PAULSsValue@@G@Z
      11230  E2C 01103600 ?NewSOAPService@CSOAPService@@SGPAV1@PAVLSISession@@PAULSsModule@@@Z
      11231  E2D 007AECE0 ?NewTerm@CRawAction@@MAGGHPAPAVCTermElement@@@Z
      11232  E2E 007B9EE0 ?NewTerm@CRawJavaScript@@MAGGHPAPAVCTermElement@@@Z
      11233  E2F 007BA7B0 ?NewTerm@CRawQuery@@MAGGHPAPAVCTermElement@@@Z
      11234  E30 007BF8B0 ?NewTerm@CRawStyleSheet@@MAGGHPAPAVCTermElement@@@Z
      11235  E31 00480160 ?NewWebServiceConsumerDesignUtil@CWebServiceConsumerDesignUtil@@SGPAV1@XZ
      11236  E32 00480310 ?NewWebServiceConsumerLoadUtil@CWebServiceConsumerLoadUtil@@SGPAV1@XZ
      11237  E33 00480650 ?NewWebServiceProviderDesignUtil@CWebServiceProviderDesignUtil@@SGPAV1@XZ
      11238  E34 007CEE10 ?Next@CMemStrList@@UAEPAVCMemStr@@XZ
      11239  E35 007D00C0 ?Next@CSortedMemStrList@@UAEPAVCMemStr@@XZ
      11240  E36 007D30B0 ?Next@CStrList@@QAGHPAPAVCStr@@@Z
      11241  E37 011224A0 ?NextNaturalSym@LSsSymTable@@QAGPAULSsSymbol@@PAULSsModule@@PAU2@@Z
      11242  E38 007AB380 ?NextRun@CAssistant@@QAGHGPAUtagTIMEDATE@@@Z
      11243  E39 008D9180 ?NoteDelete@CDatabase@@QAGGKK@Z
      11244  E3A 001B6CE0 ?NoteInfo@CDatabase@@QAGGKPAUORIGINATORID_tag@@PAUtagTIMEDATE@@PAG@Z
      11245  E3B 008D93F0 ?NoteInfoByUNID@CDatabase@@QAGGPBUUNIVERSALNOTEID_tag@@PAKPAUORIGINATORID_tag@@PAUtagTIMEDATE@@PAG@Z
      11246  E3C 008F7000 ?NumDateListToArray@LsConv@@SGGPAULSsApiInstance@@GPAURANGE@@PAULSsValue@@@Z
      11247  E3D 001A84E0 ?NumberOfTaskStats@CTaskStatList@@QAGKXZ
      11248  E3E 001940C0 ?OLEPrep@LSsInstance@@QAGFH@Z
      11249  E3F 010E23B0 ?OnCommand@CDaemonManager@@UAEHPBD@Z
      11250  E40 008D8AA0 ?OnlyInsertHeader@CTermElement@@UAGHXZ
      11251  E41 008D9000 ?Open@CDatabase@@QAGGPAXPBD@Z
      11252  E42 008D9050 ?Open@CDatabase@@QAGGPAXPBDKKH@Z
      11253  E43 00102770 ?Open@CDatabase@@UAGGPAXH@Z
      11254  E44 008D8FD0 ?Open@CDatabase@@UAGGXZ
      11255  E45 003DA620 ?Open@CMimeDirectory@@QAEGPAX@Z
      11256  E46 003D55E0 ?Open@CMimeDirectory@@QAEGPAXPADGH@Z
      11257  E47 008DBC20 ?Open@CNIFCollection@@QAGGAAVCDatabase@@PBD@Z
      11258  E48 008E72B0 ?Open@CNIFCollectionNew@@QAGGPBDGH@Z
      11259  E49 0028EF70 ?Open@CNNTPDatabase@@UAGGPAX@Z
      11260  E4A 009BC6F0 ?Open@CNSFNoteExtendableFileObj@@QAGGPAXPADK@Z
      11261  E4B 008E7440 ?Open@CNote@@QAGGPAXKG@Z
      11262  E4C 008E7AD0 ?OpenByName@CNote@@QAGGPAXPBD@Z
      11263  E4D 008E7480 ?OpenByUNID@CNote@@QAGGPAXPAUUNIVERSALNOTEID_tag@@G@Z
      11264  E4E 008E74C0 ?OpenByURL@CNote@@QAGGPADKKPAPAX@Z
      11265  E4F 007D32D0 ?OpenFileStore@CStream@@QAGGXZ
      11266  E50 003D9A90 ?OpenForEdit@CMimeDirectory@@QAEGPAXPADGH@Z
      11267  E51 0067A7C0 ?OpenMailbox@CIMAP4Client@@QAGGPAUASYNC_CONTEXT@@GPAD@Z
      11268  E52 008DC0D0 ?OpenNote@CNIFEntryData@@QAGGAAVCNote@@G@Z
      11269  E53 008DFF50 ?OpenPNAB@CManageDPAB@@QAEGXZ
      11270  E54 004AA200 ?OpenSAMLCriticalDatabases@CSAMLDiag@@QAEGXZ
      11271  E55 007A3130 ?Output@XmlReformatter@@QAEXPAVXmlWriter@@@Z
      11272  E56 004ABDF0 ?OutputDataArea@CSecLtpaToken2@@QAGGXZ
      11273  E57 004ACD60 ?OutputDataArea@CSecWasSSOToken@@QAGGXZ
      11274  E58 004AB000 ?OutputExpiration@CSecWasSSOToken@@QAGGUtagTIMEDATE@@PAK@Z
      11275  E59 004AC4C0 ?OutputExpirationToDataArea@CSecLtpaToken2@@QAGGUtagTIMEDATE@@PAK@Z
      11276  E5A 007BE5F0 ?OutputFTQuery@CRawQueryByField@@UAGGPAXPAUtagOUTPUTCTXSTRUCT@@@Z
      11277  E5B 007BCB70 ?OutputFTQuery@CRawQueryByForm@@UAGGPAXPAUtagOUTPUTCTXSTRUCT@@@Z
      11278  E5C 010F2DD0 ?OutputFTQuery@CRawQueryFormula@@UAGGPAXPAUtagOUTPUTCTXSTRUCT@@@Z
      11279  E5D 010F2DD0 ?OutputFTQuery@CRawQueryTerm@@UAGGPAXPAUtagOUTPUTCTXSTRUCT@@@Z
      11280  E5E 007BDB90 ?OutputFTQuery@CRawQueryTextTerm@@UAGGPAXPAUtagOUTPUTCTXSTRUCT@@@Z
      11281  E5F 007BF0A0 ?OutputFTQuery@CRawQueryTopicTerm@@UAGGPAXPAUtagOUTPUTCTXSTRUCT@@@Z
      11282  E60 007BC750 ?OutputFTQuery@CRawQueryUsesForm@@UAGGPAXPAUtagOUTPUTCTXSTRUCT@@@Z
      11283  E61 007BE0B0 ?OutputFormula@CRawQueryByField@@UAGGPAUtagOUTPUTCTXSTRUCT@@HPAH@Z
      11284  E62 007BADE0 ?OutputFormula@CRawQueryTerm@@UAGGPAUtagOUTPUTCTXSTRUCT@@HPAH@Z
      11285  E63 004AB100 ?OutputSignature@CSecWasSSOToken@@QAGGPAK@Z
      11286  E64 001ACEA0 ?OutputStatsResults@CManageDPAB@@SGGXZ
      11287  E65 00EA9740 ?ParamData@NIFSQL@@QAEGPAPAXK@Z
      11288  E66 007CB370 ?Parse@CLMBCSToMimeText@@QAEGPADJG@Z
      11289  E67 004AB4D0 ?ParseExpiration@CSecWasSSOToken@@QAGGXZ
      11290  E68 007DA0E0 ?ParseFromRFC8xx@CTimeDate@@QAEHPBD@Z
      11291  E69 0032A020 ?ParseMimeBlob@CIMsgImport@@UAGGPAVCMimeDirectory@@H@Z
      11292  E6A 004AB420 ?ParseSignature@CSecWasSSOToken@@QAGGXZ
      11293  E6B 004AB5F0 ?ParseTokenInit@CSecWasSSOToken@@QAGGXZ
      11294  E6C 004ADAE0 ?ParseUserDataArea@CSecLtpaToken2@@QAGGXZ
      11295  E6D 004AE210 ?ParseUserDataArea@CSecWasSSOToken@@QAGGXZ
      11296  E6E 00470070 ?PasteColumnClipInfo@CColumnFormat@@QAGXPAUtagCOLUMNCLIPINFO@@@Z
      11297  E6F 0046E870 ?PasteColumnFormulaInfo@CColumnFormat@@QAGXPAUtagCOLUMNCLIPINFO@@@Z
      11298  E70 0074EC00 ?Peek@encQueue@@QAGGAAPAX@Z
      11299  E71 0074D920 ?PerformSearch@CLDAPSearch@@QAGGXZ
      11300  E72 0096E6A0 ?PollReceiveIO@CNetSession@@QAGGPAH@Z
      11301  E73 00688400 ?PollSearchComplete@CLdapClient@@QAEGXZ
      11302  E74 010F9F50 ?PopCurrent@CLSIDocument@@QAGXPAVCLSIDocumentHolder@@@Z
      11303  E75 006AC210 ?Populate@CFolderInfo@@UAGXXZ
      11304  E76 008DBA00 ?Populate@CFolderRefInfo@@UAGXXZ
      11305  E77 01177550 ?Populate@CNIFEntryData@@UAGXXZ
      11306  E78 006775E0 ?Post@CBaseNewsArticle@@QAEGXZ
      11307  E79 0068BD20 ?Post@CBaseNewsServer@@QAEGPAX0@Z
      11308  E7A 0068AA20 ?PostArticlesFromOutbox@CNewsServer@@QAEGPAXAAK@Z
      11309  E7B 00963AF0 ?PostEvent@CNetIOCP@@QAGGAAUSESSIONID@@K@Z
      11310  E7C 009620F0 ?PostEventAllTasks@CNetIOCP@@QAGGKH@Z
      11311  E7D 00962170 ?PostEventIdleTasks@CNetIOCP@@QAGGKKH@Z
      11312  E7E 001ACEA0 ?PostJSCreate@CJSBaseObjectClass@@MAEGXZ
      11313  E7F 0109D510 ?PostMoveOrCopySpecialHandling@CSiteMapStore@@QAGGPAVCSiteMapEntry@@00G@Z
      11314  E80 00967B90 ?PostProc@CNetSession@@QAGGADH@Z
      11315  E81 00968210 ?PostRecvIO@CNetSession@@QAGGAAK@Z
      11316  E82 009682B0 ?PostRecvIO@CNetSession@@QAGGAAKPAPAVCStr@@@Z
      11317  E83 00968340 ?PostRecvIO@CNetSession@@QAGGAAKPAPAX0@Z
      11318  E84 00968480 ?PostSendIO@CNetSession@@QAGGAAK0@Z
      11319  E85 009683E0 ?PostSendIO@CNetSession@@QAGGAAK@Z
      11320  E86 006C5370 ?PreSave@CTermElement@@UAGGPAX@Z
      11321  E87 00EAB150 ?Prepare@NIFSQL@@QAEGPAD@Z
      11322  E88 007D7CB0 ?Prepend@CStream@@QAGGABV1@@Z
      11323  E89 007D7E80 ?Prepend@CStream@@QAGGPBD@Z
      11324  E8A 007D58D0 ?Prepend@CStream@@QAGGPBDK@Z
      11325  E8B 007AE550 ?Print@CDefActionCtx@@UAEXPAD@Z
      11326  E8C 007AE530 ?Print@CDefActionCtx@@UAEXPADK@Z
      11327  E8D 00110B50 ?ProcessCallback@LSISession@@UAGFGPAEPAX@Z
      11328  E8E 001F6E50 ?ProcessConfigChange@LSISession@@QAGXH@Z
      11329  E8F 008E6E40 ?ProcessData@CManageDIP@@QAEGXZ
      11330  E90 008E6700 ?ProcessData@CManageDPAB@@QAEGXZ
      11331  E91 010FD160 ?ProcessErrorMsg@LSISession@@UAGFPAULSsModule@@GGGPAX1@Z
      11332  E92 008DF540 ?ProcessingPOD@CManageDPAB@@SGHH@Z
      11333  E93 010F94C0 ?PromoteRunContext@CLSIDocument@@QAGGPAX@Z
      11334  E94 00683B50 ?PromptForXCert@CLdapClient@@QAEHH@Z
      11335  E95 00EA9960 ?PutData@NIFSQL@@QAEGPAXH@Z
      11336  E96 003DD8C0 ?PutToItem@CMimeHeader@@QAEGHPAH@Z
      11337  E97 0074FA00 ?QueryLDAPQueryResultsCache@@YGGPAUldap_process@@AAVCMemStr@@1AAVencQueue@@AAJJAAKK@Z
      11338  E98 003DBE60 ?RFC2047EncodeLine@CMimeHeader@@SGGAAVCMemStr@@PADKKK0@Z
      11339  E99 010FFA50 ?RaiseEvent@LSIThread@@UAGGPAUILsiADTControl@@KKGPAULSsValue@@@Z
      11340  E9A 001F4000 ?ReLoad@CSiteMapStore@@QAGGPAH@Z
      11341  E9B 008D97F0 ?ReOpen@CDatabase@@QAGGPAX0@Z
      11342  E9C 008D9C10 ?ReOpen@CDatabase@@QAGGPAX@Z
      11343  E9D 009BCD00 ?ReadAt@CNSFNoteExtendableFileObj@@QAGGKKPAXPAK@Z
      11344  E9E 008DCDF0 ?ReadEntries@CNIFEntryData@@QAGGAAVCNIFCollection@@@Z
      11345  E9F 008DC710 ?ReadEntries@CNIFEntryData@@QAGGAAVCNIFCollection@@GG@Z
      11346  EA0 008DB850 ?ReadEntriesByID@CFolderRefInfo@@QAGGABVCFolderInfo@@AAVCFolderRefCollection@@AAVCSet@@HH@Z
      11347  EA1 008DB1E0 ?ReadEntriesByNoteID@CFolderRefInfo@@QAGGABVCFolderInfo@@AAVCFolderRefCollection@@AAVCSet@@@Z
      11348  EA2 008DCDD0 ?ReadEntriesMin@CNIFEntryData@@QAGGAAVCNIFCollection@@AAK@Z
      11349  EA3 008DC5A0 ?ReadEntriesMin@CNIFEntryData@@QAGGAAVCNIFCollection@@AAKGGK@Z
      11350  EA4 008DC870 ?ReadEntry@CNIFEntryData@@QAGGAAVCNIFCollection@@@Z
      11351  EA5 010A01A0 ?ReadFromDisk@CSiteMapReplStore@@QAGGPAXPAUtagTIMEDATE@@PAH@Z
      11352  EA6 008F1350 ?ReadHeadline@CSubscriptionStore@@QAGKPAVCSubscriptionEntry@@PAUSEARCH_MATCH@@PAXPAHH@Z
      11353  EA7 00126620 ?ReadSitemapItems@CSiteMapStore@@QAGGXZ
      11354  EA8 005BCDF0 ?Reallocate@jonah_base_class@JONAH@@QBEPAXPAXI@Z
      11355  EA9 0096DE40 ?ReceiveAsync@CNetSession@@QAGGPAXKAAKADHK@Z
      11356  EAA 00971F80 ?ReceiveData@CNetSession@@QAGGPAXKKAAKADH@Z
      11357  EAB 00972030 ?ReceiveDataQ@CNetSession@@QAGGPAXKKAAKADH1@Z
      11358  EAC 00971B20 ?ReceiveLine@CNetSession@@QAGGAAVCStr@@@Z
      11359  EAD 00971C10 ?ReceiveLine@CNetSession@@QAGGAAVCStr@@K@Z
      11360  EAE 00971CC0 ?ReceiveLine@CNetSession@@QAGGAAVCStr@@KADH@Z
      11361  EAF 00971D60 ?ReceiveLineQ@CNetSession@@QAGGAAVCStr@@KADHAAK@Z
      11362  EB0 00971DC0 ?ReceiveNData@CNetSession@@QAGGAAVCStr@@KK@Z
      11363  EB1 00971E70 ?ReceiveNData@CNetSession@@QAGGAAVCStr@@KKADH@Z
      11364  EB2 00971F20 ?ReceiveNDataQ@CNetSession@@QAGGAAVCStr@@KKADHAAK@Z
      11365  EB3 0067B610 ?Reconnect@CIMAP4Client@@QAGGXZ
      11366  EB4 007AE520 ?RedirectStdout@CDefActionCtx@@UAEGG@Z
      11367  EB5 0109F190 ?Refresh@CSiteMapStore@@QAGGPAUtagTIMEDATE@@PAXK@Z
      11368  EB6 008E50F0 ?RefreshContacts@CManageDPAB@@QAGGXZ
      11369  EB7 0021B4F0 ?RefreshSummaryIndexes@CViewFormat@@QAGXXZ
      11370  EB8 001F6BC0 ?RegisterClassLibrary@LSISession@@QAGGPAEG@Z
      11371  EB9 009614E0 ?RegisterDeleteTaskCallBack@CINetTask@@QAGGP6GGPAXPAUINETTASKID@@@Z0@Z
      11372  EBA 001F6CD0 ?RegisterLSXUIClasses@LSISession@@QAGFP6GFPAV1@@Z@Z
      11373  EBB 00118600 ?RegisterOneClass@LSISession@@QAGFW4tagLSREGNAMETYPE@@PAD1GPAULSCLASSREGDESC@@PAX@Z
      11374  EBC 00193CF0 ?RegistryAddDefaultModule@LSsInstance@@QAGPAULSsModule@@XZ
      11375  EBD 007E0650 ?ReleaseBuffer@SmartMemoryObjectBuffer@@QAGXXZ
      11376  EBE 007AE870 ?ReleaseDb@CDefActionCtx@@UAGXXZ
      11377  EBF 010CD3F0 ?ReleaseInfoBlk@CPROGDocument@@QAGXXZ
      11378  EC0 002C50C0 ?ReleaseOSFD@FTFDGroupMgr@@QAEGPBDIH@Z
      11379  EC1 009BCB40 ?ReleaseStorage@CNSFNoteExtendableFileObj@@QAGGXZ
      11380  EC2 00F22260 ?ReleaseThread@CLDAPThread@@QAEXXZ
      11381  EC3 001B2210 ?Remove@CCache@@UAGGPAVCCacheEntry@@K@Z
      11382  EC4 00080020 ?Remove@CCache@@UAGGPBDK@Z
      11383  EC5 007E20A0 ?Remove@CHashTable@@QAGGPBD@Z
      11384  EC6 007CBEC0 ?Remove@CListBase@@QAGXK@Z
      11385  EC7 007CF630 ?Remove@CObjectArray@@QAGPAVCNotesBaseClass@@G@Z
      11386  EC8 00173550 ?Remove@CVector@@UAEGKPAX@Z
      11387  EC9 0012C020 ?Remove@ListMgr@@QAEXPAVLinkedElement@@@Z
      11388  ECA 007CF600 ?RemoveAll@CObjectArray@@QAGXXZ
      11389  ECB 00173510 ?RemoveAll@CPointerList@@QAEXXZ
      11390  ECC 00688B00 ?RemoveAll@CSearchConditionList@@QAEXXZ
      11391  ECD 007D2080 ?RemoveAllWSP@CStr@@QAGGK@Z
      11392  ECE 007CFAF0 ?RemoveAt@CPointerList@@QAEPAXPAU__PTR_LIST_POS@@@Z
      11393  ECF 007D2000 ?RemoveCRLWSP@CStr@@QAGGK@Z
      11394  ED0 01177550 ?RemoveChildNotify@CJSBaseObjectClass@@MAEXPAV1@@Z
      11395  ED1 00475150 ?RemoveColumn@CViewFormat@@QAGXG@Z
      11396  ED2 007E21D0 ?RemoveCurrent@CHashTable@@QAGXXZ
      11397  ED3 007CEF30 ?RemoveCurrent@CMemStrList@@UAEGXZ
      11398  ED4 008DAB80 ?RemoveDesignExtFlag@CDesignNote@@QAGXD@Z
      11399  ED5 008DAB40 ?RemoveDesignFlag@CDesignNote@@QAGXD@Z
      11400  ED6 00689ED0 ?RemoveDisconnectedData@CNewsGroup@@QAEGPAX@Z
      11401  ED7 001B2A90 ?RemoveElement@CHashTable@@IAGGPAVCHashElement@@@Z
      11402  ED8 01098890 ?RemoveEntry@CDAVNoteStore@@QAGXPAVCDAVNoteEntry@@@Z
      11403  ED9 008EBAE0 ?RemoveEntry@CReplicaList@@QAGGPBD@Z
      11404  EDA 0109B490 ?RemoveEntry@CSiteMapStore@@QAGXPAVCSiteMapEntry@@K@Z
      11405  EDB 007D3100 ?RemoveFirst@CStrList@@QAGGPAPAVCStr@@@Z
      11406  EDC 007CFA70 ?RemoveHead@CPointerList@@QAEPAXXZ
      11407  EDD 007CBDA0 ?RemoveListEntryByKey@CLinkList@@QAGPAU_LIST_ENTRY_@@PAD@Z
      11408  EDE 007DA910 ?RemoveMemBlock@CVector@@QAEGPAPAX@Z
      11409  EDF 008DB440 ?RemoveObsoleteReferences@CFolderRefInfo@@QAGGAAVCFolderCollection@@@Z
      11410  EE0 0022D990 ?RemoveRange@ListMgr@@QAEXPAVLinkedElement@@0@Z
      11411  EE1 01177550 ?RemoveReferencer@CCacheEntry@@UAGXXZ
      11412  EE2 001F3660 ?RemoveReferencer@CSiteMapStore@@QAGXXZ
      11413  EE3 007CFAB0 ?RemoveTail@CPointerList@@QAEPAXXZ
      11414  EE4 0067B3D0 ?RenameMailbox@CIMAP4Client@@QAGGPAUASYNC_CONTEXT@@GPAD1@Z
      11415  EE5 007CFFD0 ?Replace@CSet@@QAGGAAV1@@Z
      11416  EE6 007D0000 ?Replace@CSet@@QAGGPAXK@Z
      11417  EE7 007D5180 ?Replace@CStream@@QAGXAAV1@@Z
      11418  EE8 007CCDB0 ?ReplaceChar@CMemStr@@QAEGDD@Z
      11419  EE9 007D12E0 ?ReplaceChar@CStr@@QAGGDD@Z
      11420  EEA 00474090 ?ReplaceColumnFormula@CViewFormat@@QAGGGPADG@Z
      11421  EEB 00472F20 ?ReplaceFormula@CViewFormat@@QAGGPADG@Z
      11422  EEC 00472FA0 ?ReplaceQueryFormula@CViewFormat@@QAGGPAXPADG@Z
      11423  EED 008D9B10 ?ReplicationAccess@CDatabase@@QAGHPAG@Z
      11424  EEE 010F2DE0 ?ReportError@CJSBaseObjectClass@@UAEXPAVNJSContext@@PAGPBD22K22@Z
      11425  EEF 010F7170 ?Reset@CCodeLib@@QAGXXZ
      11426  EF0 00678F40 ?Reset@CIMAP4Client@@QAGXXZ
      11427  EF1 002FEB40 ?Reset@CLogEvent@@QAEXXZ
      11428  EF2 004AED10 ?Reset@CSecSecurityProvider@@QAEXXZ
      11429  EF3 007A3010 ?Reset@XmlReformatter@@QAEXPAVXmlInputSource@@@Z
      11430  EF4 008DF570 ?ResetPOD@CManageDPAB@@SGXXZ
      11431  EF5 007CC240 ?Resize@CListBase@@UAGGKH@Z
      11432  EF6 009BD150 ?Resize@CNSFNoteExtendableFileObj@@QAGGK@Z
      11433  EF7 007D9890 ?Resize@CTextList@@UAGGKH@Z
      11434  EF8 00049160 ?Resize@CVector@@UAEGK@Z
      11435  EF9 0012C510 ?RestoreCachedCompute@CDefActionCtx@@UAGXPAX@Z
      11436  EFA 007D8BC0 ?RestoreTaskStats@CTaskStatList@@QAGGPAX@Z
      11437  EFB 00682BA0 ?Resync@CIMailResync@@QAEGPADP6AXPAV1@@ZPAX@Z
      11438  EFC 008F16A0 ?Resync@CSubscriptionStore@@QAGGXZ
      11439  EFD 0032F920 ?RetrieveMessage@CPOP3InternetClient@@QAGGPADG00PAUSSLINFO@@KHPAX@Z
      11440  EFE 0032FB60 ?RetrieveMessages@CPOP3InternetClient@@QAGGPADG00PAUSSLINFO@@HPAXAAK@Z
      11441  EFF 007DCA60 ?RetrieveUserPasswordPolicyInfo@NABLookup@@QAEHXZ
      11442  F00 007CD0F0 ?Right@CMemStr@@QBE?AV1@H@Z
      11443  F01 008DF590 ?RoamingShutdownReplicateActive@CManageDPAB@@SGXH@Z
      11444  F02 00EA83D0 ?Rollback@NIFSQL@@QAEGXZ
      11445  F03 007ABDE0 ?Run@CAssistant@@QAGGPAUtagASSISTRUNCTXSTRUCT@@@Z
      11446  F04 007AF020 ?Run@CRawAction@@QAGGPAVCDefActionCtx@@PAXPAK@Z
      11447  F05 007B2630 ?Run@CRawActionFormula@@UAGGPAVCDefActionCtx@@PAXPAK@Z
      11448  F06 010FF770 ?Run@LSIThread@@QAGFPAVLSIModule@@PAEK@Z
      11449  F07 010FF6D0 ?Run@LSIThread@@UAGFKH@Z
      11450  F08 003C6520 ?Run@MIMEActiveContentFilter@@QAEGPAVMIMEActiveContentFStr@@@Z
      11451  F09 010E2CD0 ?RunJavaApplication@CJavaDocument@@UAGGPAD00KK@Z
      11452  F0A 007A7FD0 ?RunProgressBar@CAssistant@@MAGGKK@Z
      11453  F0B 010FA270 ?RunScript@CLSIDocument@@UAGGPAXFPADFKK@Z
      11454  F0C 007AF100 ?RunStart@CRawAction@@QAGGPAVCDefActionCtx@@PAX@Z
      11455  F0D 007B2820 ?RunStart@CRawActionFormula@@UAGGPAVCDefActionCtx@@PAX@Z
      11456  F0E 007AF150 ?RunStop@CRawAction@@QAGGPAVCDefActionCtx@@H@Z
      11457  F0F 007B2970 ?RunStop@CRawActionFormula@@UAGGPAVCDefActionCtx@@H@Z
      11458  F10 010FF4F0 ?RunToCompletion@LSIThread@@QAGGKH@Z
      11459  F11 010FF7B0 ?RunToCompletion@LSIThread@@QAGGPAVLSIModule@@PAEK@Z
      11460  F12 0096F650 ?SSLEstablishSession@CNetSession@@QAGGHKKPAVCStr@@@Z
      11461  F13 00969050 ?SSLFreeCertInfo@CNetSession@@QAGGPAUnti_SSL_certinfo@@@Z
      11462  F14 0096FCD0 ?SSLGetCertInfo@CNetSession@@QAGGKPAUnti_SSL_certinfo@@@Z
      11463  F15 0096FAD0 ?SSLGetConInfo@CNetSession@@QAGGPAK00@Z
      11464  F16 00969890 ?SampleDebug@CNetSession@@QAGXPAD@Z
      11465  F17 007AE220 ?Save@CAssistant@@QAGGXZ
      11466  F18 0013D8A0 ?Save@CCDEventLanguageTableSaver@@QAGGAAVCEventLanguageTable@@G@Z
      11467  F19 008D7F00 ?Save@CCDHTMLCodeSave@@IAGGPAUhtml_code@@@Z
      11468  F1A 0013D980 ?Save@CCDTagAttributeSaver@@QAGGPAUTAGATTRIBUTELIST@@@Z
      11469  F1B 0013D9A0 ?Save@CCDTagAttributeSaver@@QAGGPAUTAGATTRIBUTELIST@@G@Z
      11470  F1C 01099280 ?Save@CDAVNoteStore@@QAGGXZ
      11471  F1D 008F6D20 ?Save@CEZFontTable@@QAGGPAX@Z
      11472  F1E 010F8F50 ?Save@CJavaCodeLibData@@UAGGPAX@Z
      11473  F1F 010F9010 ?Save@CJavaScriptCodeLibData@@UAGGPAX@Z
      11474  F20 010F7750 ?Save@CLSCodeLibData@@UAGGPAX@Z
      11475  F21 007B4870 ?Save@CRawActionByForm@@UAGGPAUtagOUTPUTCTXSTRUCT@@@Z
      11476  F22 007B43D0 ?Save@CRawActionDBCopy@@UAGGPAUtagOUTPUTCTXSTRUCT@@@Z
      11477  F23 007B4610 ?Save@CRawActionDelete@@UAGGPAUtagOUTPUTCTXSTRUCT@@@Z
      11478  F24 007B5210 ?Save@CRawActionFolder@@UAGGPAUtagOUTPUTCTXSTRUCT@@@Z
      11479  F25 007B29D0 ?Save@CRawActionFormula@@UAGGPAUtagOUTPUTCTXSTRUCT@@@Z
      11480  F26 007B31A0 ?Save@CRawActionLotusScript@@UAGGPAUtagOUTPUTCTXSTRUCT@@@Z
      11481  F27 007B1B40 ?Save@CRawActionModifyField@@UAGGPAUtagOUTPUTCTXSTRUCT@@@Z
      11482  F28 007B86C0 ?Save@CRawActionNewsletter@@UAGGPAUtagOUTPUTCTXSTRUCT@@@Z
      11483  F29 007B4C20 ?Save@CRawActionReadMarks@@UAGGPAUtagOUTPUTCTXSTRUCT@@@Z
      11484  F2A 007B2380 ?Save@CRawActionReply@@UAGGPAUtagOUTPUTCTXSTRUCT@@@Z
      11485  F2B 007B5C50 ?Save@CRawActionRunAgent@@UAGGPAUtagOUTPUTCTXSTRUCT@@@Z
      11486  F2C 007B5E50 ?Save@CRawActionSendDocument@@UAGGPAUtagOUTPUTCTXSTRUCT@@@Z
      11487  F2D 007B3DC0 ?Save@CRawActionSendMail@@UAGGPAUtagOUTPUTCTXSTRUCT@@@Z
      11488  F2E 007BF700 ?Save@CRawJavaScriptTerm@@UAGGPAUtagOUTPUTCTXSTRUCT@@@Z
      11489  F2F 007BC180 ?Save@CRawQueryByField@@UAGGPAUtagOUTPUTCTXSTRUCT@@@Z
      11490  F30 007BCBA0 ?Save@CRawQueryByForm@@UAGGPAUtagOUTPUTCTXSTRUCT@@@Z
      11491  F31 007BB3F0 ?Save@CRawQueryFormula@@UAGGPAUtagOUTPUTCTXSTRUCT@@@Z
      11492  F32 007BB090 ?Save@CRawQueryTextTerm@@UAGGPAUtagOUTPUTCTXSTRUCT@@@Z
      11493  F33 007BD370 ?Save@CRawQueryTopicTerm@@UAGGPAUtagOUTPUTCTXSTRUCT@@@Z
      11494  F34 007BC910 ?Save@CRawQueryUsesForm@@UAGGPAUtagOUTPUTCTXSTRUCT@@@Z
      11495  F35 007BF700 ?Save@CRawStyleSheetTerm@@UAGGPAUtagOUTPUTCTXSTRUCT@@@Z
      11496  F36 008EB820 ?Save@CReplicaList@@QAGGXZ
      11497  F37 010A27E0 ?Save@CSiteMapStore@@QAGGPAX0@Z
      11498  F38 007C01F0 ?Save@CTermList@@QAGGPAXPAD@Z
      11499  F39 00476DD0 ?Save@CViewFontTable@@QAGGPAX@Z
      11500  F3A 010F7330 ?SaveCodeLib@CCodeLib@@QAGGH@Z
      11501  F3B 007ADF70 ?SaveExt2@CAssistant@@QAGGK@Z
      11502  F3C 007ACF90 ?SaveExt@CAssistant@@QAGGK@Z
      11503  F3D 006C5370 ?SaveExtra@CTermElement@@UAGGPAUtagOUTPUTCTXSTRUCT@@@Z
      11504  F3E 007BFE60 ?SaveExtraHuge@CTermElement@@UAGGPAX@Z
      11505  F3F 00473510 ?SaveHTMLAction@CViewFormat@@QAGGPAXG@Z
      11506  F40 007AF1A0 ?SaveHeader@CRawAction@@MAGGPAUtagOUTPUTCTXSTRUCT@@@Z
      11507  F41 006C5370 ?SaveHeader@CRawJavaScript@@MAGGPAUtagOUTPUTCTXSTRUCT@@@Z
      11508  F42 007BA960 ?SaveHeader@CRawQuery@@MAGGPAUtagOUTPUTCTXSTRUCT@@@Z
      11509  F43 006C5370 ?SaveHeader@CRawStyleSheet@@MAGGPAUtagOUTPUTCTXSTRUCT@@@Z
      11510  F44 007BFE60 ?SaveHuge@CTermElement@@UAGGPAX@Z
      11511  F45 007B7D50 ?SaveJavaAttachment@CRawActionJavaAgent@@QAGGPAXH@Z
      11512  F46 01100010 ?SaveObject@LSIModule@@QAGGPAPAXPAK@Z
      11513  F47 007ADFE0 ?SaveOnServer@CAssistant@@QAGGHQAKHHKHPADK@Z
      11514  F48 007AB3C0 ?SaveRunObject@CAssistant@@IAGGXZ
      11515  F49 007AA990 ?SaveRunObjectV3@CAssistant@@IAGGXZ
      11516  F4A 007ADFC0 ?SaveSameVersion@CAssistant@@QAGGXZ
      11517  F4B 008D8AA0 ?SaveScriptLib@CLSLib@@UAGGXZ
      11518  F4C 007D8B30 ?SaveTaskStats@CTaskStatList@@QAGGPAXPAG1@Z
      11519  F4D 007C00B0 ?SaveToBuffer@CTermList@@QAGGPAXPAUtagOUTPUTCTXSTRUCT@@@Z
      11520  F4E 007BFDB0 ?SaveToCDBuffer@CTermList@@QAGGPAXPAUtagOUTPUTCTXSTRUCT@@H@Z
      11521  F4F 010A2940 ?SaveToNote@CSiteMapStore@@QAGGQAX@Z
      11522  F50 00688BC0 ?Search@CLdapClient@@QAEGPADQAPADHH@Z
      11523  F51 007CC930 ?Search@CListBase@@QAGHPBX@Z
      11524  F52 00765C40 ?SearchDirectGroupObjects@CLDAPMembership@@QAGHPBD00PAPADPAPAUldapmsg@@@Z
      11525  F53 007CC980 ?SearchInsert@CListBase@@QAGGPBXHH@Z
      11526  F54 007D9710 ?SearchInsert@CTextList@@QAGGPBDKH@Z
      11527  F55 00680D70 ?SearchMailbox@CIMAP4Client@@QAGGPAUASYNC_CONTEXT@@GHPAU_SEARCHCRITERIA@@PAD@Z
      11528  F56 0012C510 ?SeedDIPForTest@CManageDIP@@QAEXPAD0@Z
      11529  F57 006C5370 ?SelectDocument@CRawActionFormula@@MAGGPAX@Z
      11530  F58 00971650 ?Send@CNetSession@@QAGGAAVCStr@@@Z
      11531  F59 009717B0 ?Send@CNetSession@@QAGGAAVCStr@@ADHK@Z
      11532  F5A 00971700 ?Send@CNetSession@@QAGGAAVCStr@@K@Z
      11533  F5B 009718B0 ?Send@CNetSession@@QAGGPAXK@Z
      11534  F5C 00971A10 ?Send@CNetSession@@QAGGPAXKADHK@Z
      11535  F5D 00971960 ?Send@CNetSession@@QAGGPAXKK@Z
      11536  F5E 009714B0 ?SendLine@CNetSession@@QAAGKPADZZ
      11537  F5F 00971340 ?SendLine@CNetSession@@QAAGPADZZ
      11538  F60 00971850 ?SendQ@CNetSession@@QAGGAAVCStr@@ADHKAAK@Z
      11539  F61 00971AC0 ?SendQ@CNetSession@@QAGGPAXKADHKAAK@Z
      11540  F62 010FDCF0 ?SendSpecificLSXMessage@LSISession@@QAEGPAEGKK@Z
      11541  F63 009BD410 ?SerializeToFile@CNSFNoteExtendableFileObj@@QAGGPADH@Z
      11542  F64 010E4E00 ?SessionInit@JavaSession@@QAGGP6GGPAXGPAE0@ZHH@Z
      11543  F65 010FEAB0 ?SessionInit@LSISession@@UAGGPAD0P6GFPAULSsApiInstance@@W4LSICMSG@@PAX3@ZF@Z
      11544  F66 007CBE60 ?Set@CListBase@@QAGXKPBX@Z
      11545  F67 0011D560 ?Set@CMemStr@@QAEGABV1@@Z
      11546  F68 0003A1B0 ?Set@CMemStr@@QAEGPBDG@Z
      11547  F69 003E1D00 ?Set@CMimeParameter@@QAEGUCMimeString@@0@Z
      11548  F6A 003C0BA0 ?Set@CMimeSymbol@@QAEGUCMimeString@@@Z
      11549  F6B 007CF3D0 ?Set@CNumberList@@QAGXABURANGE@@@Z
      11550  F6C 007D7FD0 ?Set@CStream@@QAGGABV1@@Z
      11551  F6D 007D7710 ?Set@CStream@@QAGGABV1@KK@Z
      11552  F6E 007D7AC0 ?Set@CStream@@QAGGPBD@Z
      11553  F6F 000671D0 ?Set@CStream@@QAGGPBDK@Z
      11554  F70 007D9D80 ?Set@CTextList@@QAGXABULIST@@H@Z
      11555  F71 007D9E70 ?Set@CTimeDate@@QAEXHHHHHH@Z
      11556  F72 000490D0 ?Set@CVector@@UAEGKPBX@Z
      11557  F73 007E08E0 ?Set@SmartConstTaggedTextlist@@UAEXKKHW4SmartMemoryObjectBufferType@@PAXG@Z
      11558  F74 007E12A0 ?Set@SmartConstTaggedTextlist@@UAEXKPBXHW4SmartMemoryObjectBufferType@@PAXG@Z
      11559  F75 007E07F0 ?Set@SmartConstTextlist@@UAEXKHW4SmartMemoryObjectBufferType@@PAXG@Z
      11560  F76 007E1210 ?Set@SmartConstTextlist@@UAEXPBXHW4SmartMemoryObjectBufferType@@PAXG@Z
      11561  F77 007E0EA0 ?Set@SmartMemoryObject@@UAEXPAUCONST_SMART_MEMORY_DATA_DESC@@KKW4SmartMemoryObjectBufferType@@PAXG@Z
      11562  F78 007E07B0 ?Set@SmartMemoryObject@@UAEXPBXKW4SmartMemoryObjectBufferType@@PAXG@Z
      11563  F79 00680DC0 ?SetACL@CIMAP4Client@@QAGGPAUASYNC_CONTEXT@@GPAD1GK@Z
      11564  F7A 0090D040 ?SetAccountParam@Config@@QAGGPBUtagAccountParam@@P6GXGW4ActionType@@W4ParamDoc@@PAD@Z@Z
      11565  F7B 007A8080 ?SetAction@CAssistant@@QAGGPAVCRawAction@@@Z
      11566  F7C 000E33B0 ?SetActionType@CEventLanguageTable@@QAGGGW4ACTION_TYPE@@@Z
      11567  F7D 007A6780 ?SetActivatedFlag@CAssistant@@QAGGH@Z
      11568  F7E 002FEBF0 ?SetAdditionalError@CLogEvent@@QAEXGGGGG@Z
      11569  F7F 007AEA60 ?SetAgentRunning@CDefActionCtx@@UAGGKH@Z
      11570  F80 008DA9F0 ?SetAlias@CDesignNote@@QAGXPBD@Z
      11571  F81 0109BD70 ?SetAlias@CSiteMapStore@@QAGGPAD@Z
      11572  F82 0074F6F0 ?SetAll@CLDAPDomainConfig@@QAGGH@Z
      11573  F83 007DA5E0 ?SetAllDay@CTimeDate@@QAEXXZ
      11574  F84 007DA610 ?SetAnyDay@CTimeDate@@QAEXXZ
      11575  F85 007CCB70 ?SetAt@CMemStr@@QAEXHD@Z
      11576  F86 001B23E0 ?SetAt@CObjectArray@@QAGGPAVCNotesBaseClass@@G@Z
      11577  F87 007CF7B0 ?SetAt@CPointerList@@QAEXPAU__PTR_LIST_POS@@PAX@Z
      11578  F88 003C6AB0 ?SetAttachIconDiskFilePathname@MIMEWalkEntry@@QAEGPAD@Z
      11579  F89 003C6AF0 ?SetAttachOrigName@MIMEWalkEntry@@QAEGPAD@Z
      11580  F8A 00684F20 ?SetAttributeIndex@CSearchCondition@@QAEXH@Z
      11581  F8B 00EAA100 ?SetAutoCommit@NIFSQL@@QAEXH@Z
      11582  F8C 007AEB60 ?SetBEresources@CDefActionCtx@@QAGXKUNUMBER_tag@@@Z
      11583  F8D 00746C80 ?SetBase@CLDAPSearch@@QAGXPBD@Z
      11584  F8E 0109D970 ?SetBasicImagesResourceLink@CSiteMapStore@@QAGGPAVCSiteMapEntry@@PAUtagTIMEDATE@@PAD@Z
      11585  F8F 010F3A70 ?SetBool@CJSNotesValue@@QAEGH@Z
      11586  F90 0031EAA0 ?SetBoolean@CCSValue@@QAEGH@Z
      11587  F91 003DC820 ?SetByEncodedString@CMimeHeader@@QAEGUCMimeString@@0@Z
      11588  F92 008D8E00 ?SetCacheProfileInfo@CCacheDb@@QAGGPBDK@Z
      11589  F93 00473D00 ?SetCalendarView@CViewFormat@@QAGXH@Z
      11590  F94 008E8470 ?SetClass@CNote@@QAGXG@Z
      11591  F95 008DBD10 ?SetCollation@CNIFCollection@@QAGGGG@Z
      11592  F96 00472EA0 ?SetColumnAlignment@CViewFormat@@QAGXGG@Z
      11593  F97 00475DE0 ?SetColumnAttrib@CViewFormat@@QAGGGPAD0PAH110GHPAPAXG@Z
      11594  F98 00471C70 ?SetColumnFormat@CViewFormat@@QAGXGPAX0GGK@Z
      11595  F99 00471DB0 ?SetColumnSort@CViewFormat@@QAGXGHHH@Z
      11596  F9A 00476150 ?SetColumnSubtotalCode@CViewFormat@@QAGGGGH@Z
      11597  F9B 00472130 ?SetColumnWidth@CViewFormat@@QAGXGG@Z
      11598  F9C 01098AF0 ?SetComment@CDAVNoteStore@@QAGGPAD@Z
      11599  F9D 008DAAE0 ?SetComment@CDesignNote@@QAGXPBD@Z
      11600  F9E 0109B9A0 ?SetComment@CSiteMapStore@@QAGGPAD@Z
      11601  F9F 006880E0 ?SetConditionString@CSearchCondition@@QAEXPAD@Z
      11602  FA0 010F37E0 ?SetContext@CJSNotesValue@@QAEXPAVNJSContext@@@Z
      11603  FA1 007DAB10 ?SetCookie@CWebUserPreferences@@QAEXW4WebUserPreferenceType@@PAD@Z
      11604  FA2 007E1BC0 ?SetCurrent@CHashTable@@QAGGPBD@Z
      11605  FA3 004B0090 ?SetCurrentUserCredentials@CSecSecurityProvider@@QAEGXZ
      11606  FA4 01098CE0 ?SetDAVForms@CDAVNoteStore@@QAGXPAD@Z
      11607  FA5 010F7F60 ?SetData@CJavaCodeLibData@@QAGGPAUtagACTIONJAVAAGENTSTRUCT@@@Z
      11608  FA6 010F7690 ?SetData@CLSCodeLibData@@QAGGVCRefCntHandleReference@@0@Z
      11609  FA7 008DE970 ?SetData@CManageDPAB@@QAEXPAD@Z
      11610  FA8 007B49C0 ?SetData@CRawActionByForm@@QAGGPAUtagACTIONBYFORMSTRUCT@@@Z
      11611  FA9 007B44C0 ?SetData@CRawActionDBCopy@@QAGGPAUtagACTIONDBCOPYSTRUCT@@@Z
      11612  FAA 007B4660 ?SetData@CRawActionDelete@@QAGGPAUtagACTIONDELETESTRUCT@@@Z
      11613  FAB 007B52C0 ?SetData@CRawActionFolder@@QAGGPAUtagACTIONFOLDERSTRUCT@@@Z
      11614  FAC 007B2AB0 ?SetData@CRawActionFormula@@QAGGPAUtagACTIONFORMULASTRUCT@@@Z
      11615  FAD 007B67A0 ?SetData@CRawActionJavaAgent@@QAGGPAUtagACTIONJAVAAGENTSTRUCT@@@Z
      11616  FAE 007B3380 ?SetData@CRawActionLotusScript@@QAGGPAUtagACTIONLOTUSSCRIPTSTRUCT@@@Z
      11617  FAF 007B1C10 ?SetData@CRawActionModifyField@@QAGGPAUtagACTIONMODIFYFIELDSTRUCT@@@Z
      11618  FB0 007B8810 ?SetData@CRawActionNewsletter@@QAGGPAUtagACTIONNEWSLETTERSTRUCT@@@Z
      11619  FB1 007B4660 ?SetData@CRawActionReadMarks@@QAGGPAUtagACTIONREADMARKSSTRUCT@@@Z
      11620  FB2 007B2420 ?SetData@CRawActionReply@@QAGGPAUtagACTIONREPLYSTRUCT@@@Z
      11621  FB3 007B5D00 ?SetData@CRawActionRunAgent@@QAGGPAUtagACTIONRUNAGENTSTRUCT@@@Z
      11622  FB4 007B4660 ?SetData@CRawActionSendDocument@@QAGGPAUtagACTIONSENDDOCUMENTSTRUCT@@@Z
      11623  FB5 007B3EC0 ?SetData@CRawActionSendMail@@QAGGPAUtagACTIONSENDMAILSTRUCT@@@Z
      11624  FB6 007BC2B0 ?SetData@CRawQueryByField@@QAGGPAUtagQUERYBYFIELDSTRUCT@@@Z
      11625  FB7 007BD0F0 ?SetData@CRawQueryByFolder@@QAGGPAUtagQUERYBYFOLDERSTRUCT@@@Z
      11626  FB8 007BCCF0 ?SetData@CRawQueryByForm@@QAGGPAUtagQUERYBYFORMSTRUCT@@@Z
      11627  FB9 007BB4D0 ?SetData@CRawQueryFormula@@QAGGPAUtagQUERYFORMULASTRUCT@@@Z
      11628  FBA 007BB1A0 ?SetData@CRawQueryTextTerm@@QAGGPAUtagQUERYTEXTTERMSTRUCT@@@Z
      11629  FBB 007BD450 ?SetData@CRawQueryTopicTerm@@QAGGPAUtagQUERYTOPICTERMSTRUCT@@@Z
      11630  FBC 007BB4D0 ?SetData@CRawQueryUsesForm@@QAGGPAUtagQUERYUSESFORMSTRUCT@@@Z
      11631  FBD 004AB5A0 ?SetDataAreaLength@CSecWasSSOToken@@QAGGXZ
      11632  FBE 008DC530 ?SetDateKey@CNIFCollection@@QAGGPBDGUtagTIMEDATE@@@Z
      11633  FBF 0109B990 ?SetDb@CSiteMapStore@@QAGXPAX@Z
      11634  FC0 00EAA1D0 ?SetDebugLevel@NIFSQL@@QAEXJ@Z
      11635  FC1 007DAB70 ?SetDefaultLocale@CWebUserPreferences@@QAEXPAD@Z
      11636  FC2 00476240 ?SetDefaultSelectionFormula@CViewFormat@@QAGGXZ
      11637  FC3 010F7300 ?SetDesignName@CCodeLib@@QAGGPAD@Z
      11638  FC4 008EC8F0 ?SetDestination@CReplicaSelectionNote@@QAGGPAD@Z
      11639  FC5 007A8640 ?SetDialogFlags@CAssistant@@QAGXK@Z
      11640  FC6 008DDC30 ?SetDipTableSize@CManageDIP@@SGXH@Z
      11641  FC7 008DE660 ?SetDipTrace@CManageDIP@@SGXH@Z
      11642  FC8 008ECAF0 ?SetDstDbHandle@CReplicaSelectionNote@@QAGXPAX@Z
      11643  FC9 003C6B30 ?SetEEDiskFilePathname@MIMEWalkEntry@@QAEGPAD@Z
      11644  FCA 007A6730 ?SetEnabledFlag@CAssistant@@QAGGH@Z
      11645  FCB 010A37C0 ?SetEntries@CSiteMapEntry@@QAGGPAUtagRESOURCELINK@@0PAD@Z
      11646  FCC 0109CEC0 ?SetEntryData@CSiteMapEntry@@QAGGGGKK@Z
      11647  FCD 002350A0 ?SetEntryDataByPtr@CSiteMapEntry@@QAGGGGPADK@Z
      11648  FCE 00235200 ?SetEntryResourceLink@CSiteMapEntry@@QAGGGPAUtagRESOURCELINK@@@Z
      11649  FCF 00234F80 ?SetEntryResourceLink@CSiteMapStore@@QAGGPAVCSiteMapEntry@@GPAUtagRESOURCELINK@@@Z
      11650  FD0 00235120 ?SetEntryText@CSiteMapEntry@@QAGGGPAD@Z
      11651  FD1 0109CF00 ?SetEntryTextFormula@CSiteMapEntry@@QAGGGPADPAG1111@Z
      11652  FD2 002FEB90 ?SetError@CLogEvent@@QAEXGGGGG@Z
      11653  FD3 004AD420 ?SetExpiration@CSecLtpaToken2@@QAGGXZ
      11654  FD4 004ACC10 ?SetExpiration@CSecLtpaToken@@QAGGXZ
      11655  FD5 0046EDF0 ?SetExtendedNumberSymbolData@CColumnFormat@@QAGXUNNUMSYM@@@Z
      11656  FD6 002FEC50 ?SetExtraTarget@CLogEvent@@QAEGGPBD@Z
      11657  FD7 001026C0 ?SetFileName@CDatabase@@QAGGPBD@Z
      11658  FD8 000FD5D0 ?SetFileNameFromHandle@CDatabase@@QAGGPAX@Z
      11659  FD9 007D5260 ?SetFileStore@CStream@@QAGGH@Z
      11660  FDA 007D7B00 ?SetFileStore@CStream@@QAGGPADK@Z
      11661  FDB 008DBAF0 ?SetFlags@CFolderRefInfo@@QAGGABJ@Z
      11662  FDC 008DB3E0 ?SetFlags@CFolderRefInfo@@QAGGPAXABJ@Z
      11663  FDD 008DCF50 ?SetFlags@CManageDIP@@QAEXK@Z
      11664  FDE 0031ECB0 ?SetFloatingPoint@CCSValue@@QAEGABUNUMBER_tag@@@Z
      11665  FDF 0031ECD0 ?SetFloatingPoint@CCSValue@@QAEGJ@Z
      11666  FE0 0031F6E0 ?SetFloatingPoint@CCSValue@@QAEGQBURANGE@@@Z
      11667  FE1 0031EB00 ?SetFloatingPoint@CCSValue@@QAEGQBXK@Z
      11668  FE2 008D7480 ?SetFolderSetting@CBookMarkDb@@QAGGKPAVCSiteMapEntry@@PAXH@Z
      11669  FE3 010F2DD0 ?SetFormulaContext@CRawActionFormula@@MAGGPAVCDefActionCtx@@PAX@Z
      11670  FE4 00745A30 ?SetGeneralizedTimePrecision@CLDAPModList@@QAEXG@Z
      11671  FE5 006C5370 ?SetHNote@CDefActionCtx@@UAGGPAX@Z
      11672  FE6 0031ED10 ?SetHandle@CCSValue@@QAEGQAX@Z
      11673  FE7 008D6D80 ?SetImage@CBookMarkDb@@QAGGPAVCSiteMapStore@@PAVCSiteMapEntry@@PAUtagRESOURCELINK@@K@Z
      11674  FE8 007D9ED0 ?SetInGMT@CTimeDate@@QAEXHHHHHH@Z
      11675  FE9 007A80B0 ?SetInfo@CAssistant@@QAGGPAUtagASSISTINFOSTRUCT@@@Z
      11676  FEA 008E73A0 ?SetInfo@CNote@@QAGXGPAX@Z
      11677  FEB 010CD4B0 ?SetInfoBlkFlag@CPROGDocument@@QAGXK@Z
      11678  FEC 010F3A30 ?SetInteger@CJSNotesValue@@QAEGJ@Z
      11679  FED 010F75A0 ?SetIsWebServiceConsumer@CCodeLib@@QAGXH@Z
      11680  FEE 010F3F90 ?SetJSVal@CJSNotesValue@@QAEGPAX@Z
      11681  FEF 00969300 ?SetKeepAlive@CNetSession@@QAGGXZ
      11682  FF0 008DC570 ?SetKey@CNIFCollection@@QAGGABUtagTIMEDATE@@@Z
      11683  FF1 008DC470 ?SetKey@CNIFCollection@@QAGGPBDG@Z
      11684  FF2 001F6CE0 ?SetLSXUIMsgProc@LSISession@@QAEXPAX@Z
      11685  FF3 007D7690 ?SetLength@CStream@@QAGGK@Z
      11686  FF4 007B9D90 ?SetLibraryName@CRawJavaScriptTerm@@QAGGPBD@Z
      11687  FF5 007BF800 ?SetLibraryReplicaID@CRawJavaScriptTerm@@QAGGAAUtagTIMEDATE@@@Z
      11688  FF6 008DCAF0 ?SetLongElement@CNIFEntryData@@QAGGPAXPBDGJ@Z
      11689  FF7 00743FD0 ?SetMaxStats@CLDAPLongestSearches@@SGXG@Z
      11690  FF8 0067FED0 ?SetMessageFlags@CIMAP4Client@@QAGGPAUASYNC_CONTEXT@@GPAU_MSGSET@@KGHH@Z
      11691  FF9 00744010 ?SetMinStatsTime@CLDAPLongestSearches@@SGXK@Z
      11692  FFA 010FF660 ?SetModule@LSIThread@@QAGXPAVLSIModule@@@Z
      11693  FFB 010F3F90 ?SetNJSVal@CJSNotesValue@@QAEGPAV1@@Z
      11694  FFC 01098B40 ?SetName@CDAVNoteStore@@QAGGPAD@Z
      11695  FFD 008E84A0 ?SetName@CNote@@QAGGPBD@Z
      11696  FFE 0109BC10 ?SetName@CSiteMapStore@@QAGGPAD@Z
      11697  FFF 0012C510 ?SetNameList@CDefActionCtx@@UAGXPAX@Z
      11698 1000 00746CB0 ?SetNamesList@CLDAPSearch@@QAGGQAX@Z
      11699 1001 003C6B90 ?SetNext@MIMEWalkEntry@@QAEXPAV1@@Z
      11700 1002 008DFB30 ?SetNote@CManageDIP@@QAEXPAX@Z
      11701 1003 008DBE20 ?SetNoteID@CNIFCollection@@QAGXABK@Z
      11702 1004 010F3910 ?SetNull@CJSNotesValue@@QAEGXZ
      11703 1005 010F39D0 ?SetObject@CJSNotesValue@@QAEGPAVCJSBaseObjectClass@@@Z
      11704 1006 00684EB0 ?SetOperationIndex@CSearchCondition@@QAEXH@Z
      11705 1007 004AF960 ?SetPackage@CSecSecurityProvider@@QAEXG@Z
      11706 1008 008DBDE0 ?SetPosition@CNIFCollection@@QAGXABK@Z
      11707 1009 0031ED60 ?SetPriorityEnum@CCSValue@@QAEGW4eCSPriority@@@Z
      11708 100A 010FF680 ?SetProc@LSIThread@@QAGFPAE@Z
      11709 100B 0090D0D0 ?SetProfileParam@Config@@QAGGPBUProfileParam@@P6GXGW4ActionType@@W4ParamDoc@@PAD@Z@Z
      11710 100C 007A6820 ?SetProhibitDesignUpdate@CAssistant@@QAGXH@Z
      11711 100D 010F3010 ?SetProperty@CJSBaseObjectClass@@QAEGPAVJSNotesPropName@@PAVCJSNotesValue@@H@Z
      11712 100E 0031EDB0 ?SetPropertyEnum@CCSValue@@QAEGW4eCSProperty@@@Z
      11713 100F 008E7E70 ?SetPublicAccess@CNote@@QAGXH@Z
      11714 1010 007A80E0 ?SetQuery@CAssistant@@QAGGPAVCRawQuery@@@Z
      11715 1011 00968970 ?SetQueueIOCtx@CNetSession@@QAGGK@Z
      11716 1012 008DFB20 ?SetRL@CManageDIP@@QAEXPAUtagRESOURCELINK@@@Z
      11717 1013 00681ED0 ?SetRange@CProgressInfo@@QAEXK@Z
      11718 1014 00684F90 ?SetRelationIndex@CSearchCondition@@QAEXH@Z
      11719 1015 008D9550 ?SetReplicaInfoFlags@CDatabase@@QAGGGG@Z
      11720 1016 008EC640 ?SetReplicateAll@CReplicaSelectionNote@@QAGGXZ
      11721 1017 008EC540 ?SetReplicateBy@CReplicaSelectionNote@@QAGGGPAD@Z
      11722 1018 008EC690 ?SetReplicateByDocs@CReplicaSelectionNote@@QAGGPAX@Z
      11723 1019 010E4F10 ?SetRestrictedAccess@JavaSession@@QAGGXZ
      11724 101A 010FD440 ?SetRestrictedAccess@LSISession@@QAGFXZ
      11725 101B 010E2C90 ?SetRunContext@CJavaDocument@@QAGGPAX0@Z
      11726 101C 010F9350 ?SetRunContext@CLSIDocument@@QAGGPAX0PAPAX@Z
      11727 101D 007A9960 ?SetRunData@CAssistant@@QAGGHPAXK@Z
      11728 101E 007AEAB0 ?SetRunData@CDefActionCtx@@UAGGHPAXK@Z
      11729 101F 007A8110 ?SetSchedule@CAssistant@@QAGGPAUtagASSISTSCHEDULESTRUCT@@@Z
      11730 1020 007A6C40 ?SetScheduleServer@CAssistant@@QAGGPAD@Z
      11731 1021 007DCD90 ?SetSearchFilter@NABLookupKerberosName@@QAEGPADK@Z
      11732 1022 00683920 ?SetSelectedServer@CLdapClient@@QAEGG@Z
      11733 1023 00686980 ?SetSelectedServerByURL@CLdapClient@@QAEGPAD@Z
      11734 1024 004731E0 ?SetSelectionQuery@CViewFormat@@QAGGPAVCRawQuery@@@Z
      11735 1025 0109F580 ?SetServerAtomTable@CSiteMapReplStore@@QAGXK@Z
      11736 1026 008D6CE0 ?SetSetting@CBookMarkDb@@QAGGKPAXH@Z
      11737 1027 00231540 ?SetSignatures@CCDHTMLCodeLoad@@QAEXGG@Z
      11738 1028 00231540 ?SetSignatures@CCDHTMLCodeSave@@QAEXGG@Z
      11739 1029 008F57E0 ?SetSite@Config@@QAGXW4ProtocolType@@@Z
      11740 102A 001B2410 ?SetSize@CObjectArray@@QAGGG@Z
      11741 102B 007CBF70 ?SetStamp@CListBase@@QAGGPBX@Z
      11742 102C 010E2910 ?SetStatus@CDaemonTask@@QAAXGZZ
      11743 102D 0031EFF0 ?SetString@CCSValue@@QAEGQBDK@Z
      11744 102E 0031F710 ?SetString@CCSValue@@QAEGQBULIST@@@Z
      11745 102F 0031EE00 ?SetString@CCSValue@@QAEGQBXQBGK@Z
      11746 1030 010F3920 ?SetStringVal@CJSNotesValue@@QAEGPBDG@Z
      11747 1031 007BF790 ?SetStyleSheetName@CRawStyleSheetTerm@@QAGGPBD@Z
      11748 1032 007BF800 ?SetStyleSheetReplicaID@CRawStyleSheetTerm@@QAGGAAUtagTIMEDATE@@@Z
      11749 1033 008D60C0 ?SetTitle@CBookMarkDb@@QAGGPAVCSiteMapStore@@PAVCSiteMapEntry@@PADK@Z
      11750 1034 008D9720 ?SetTitle@CDatabase@@QAGGPBD@Z
      11751 1035 008DA8E0 ?SetTitle@CDesignNote@@QAGXPBD@Z
      11752 1036 0031F050 ?SetToDoStateEnum@CCSValue@@QAEGW4eCSToDoState@@@Z
      11753 1037 010F3EB0 ?SetToGlobalObject@CJSNotesValue@@QAEGXZ
      11754 1038 0109D0F0 ?SetToolbarData@CSiteMapEntry@@QAGGGKKW4ToolbarDataType@1@@Z
      11755 1039 0109D030 ?SetToolbarMgrData@CSiteMapEntry@@QAGGGKK@Z
      11756 103A 007E0770 ?SetType@SmartMemoryObject@@QAGGW4SmartMemoryObjectBufferType@@PAXG@Z
      11757 103B 0031F2B0 ?SetUTC@CCSValue@@QAEGABUtagTIMEDATE@@@Z
      11758 103C 0031F750 ?SetUTC@CCSValue@@QAEGQBURANGE@@@Z
      11759 103D 0031F100 ?SetUTC@CCSValue@@QAEGQBXK@Z
      11760 103E 0031F0A0 ?SetUnid@CCSValue@@QAEGABUUNIVERSALNOTEID_tag@@@Z
      11761 103F 010E4F30 ?SetUnrestrictedAccess@JavaSession@@QAGGXZ
      11762 1040 010FD4F0 ?SetUnrestrictedAccess@LSISession@@QAGFXZ
      11763 1041 008DF580 ?SetUpdateNow@CManageDPAB@@SGXH@Z
      11764 1042 0031F2D0 ?SetValue@CCSValue@@QAEGABV1@@Z
      11765 1043 010F3900 ?SetVoid@CJSNotesValue@@QAEGXZ
      11766 1044 0096BE80 ?SetWaitQueueIOCtx@CNetSession@@QAGGAAK@Z
      11767 1045 010FF6A0 ?SetYieldFrequency@LSIThread@@QAGXE@Z
      11768 1046 007A8170 ?SetupDbHandle@CAssistant@@UAGGPAPAXPAH@Z
      11769 1047 00118710 ?ShouldYield@LSIThread@@QAGFXZ
      11770 1048 009630B0 ?ShutdownSession@CNetIOCP@@QAGGAAUSESSIONID@@@Z
      11771 1049 0003E750 ?Size@CVector@@UAEGXZ
      11772 104A 007DA840 ?SizeHuge@CVector@@UAEKXZ
      11773 104B 000A49F0 ?SnapExtSymbol@LSsModule@@QAGPAULSsSymbol@@PAGPAPAU1@@Z
      11774 104C 007CC900 ?Sort@CListBase@@QAGXKK@Z
      11775 104D 007CF6A0 ?Sort@CObjectArray@@QAGXPAXP6GH000@Z@Z
      11776 104E 007CBFD0 ?Stamp@CListBase@@QAGXKK@Z
      11777 104F 007A2340 ?StartLogging@XmlLog@@UAEGPBD@Z
      11778 1050 010F2DD0 ?StatusMessage@CDefActionCtx@@UAGGPADH@Z
      11779 1051 007A8190 ?StoreAgentNote@CAssistant@@MAGGXZ
      11780 1052 010FD110 ?SubProcessCallback@LSISession@@UAGFGPAEPAX@Z
      11781 1053 007D1290 ?SubString@CStr@@QAGGKKAAV1@@Z
      11782 1054 00334170 ?SubmitMessage@CSMTPInternetClient@@QAGGPAVCStream@@PADPAX12HAAPAXAAUtagVBLOCK@@112GKPAUCONVERSION_CONTROLS@@K@Z
      11783 1055 00680120 ?Subscribe@CIMAP4Client@@QAGGPAUASYNC_CONTEXT@@GPAD@Z
      11784 1056 0068A660 ?Subscribe@CNewsGroup@@QAEGXZ
      11785 1057 001271B0 ?SwitchActionType@CCodeLib@@QAGGW4ACTION_TYPE@@@Z
      11786 1058 000A49D0 ?SymRelFromPtr@LSsModule@@QAGGPAE@Z
      11787 1059 0006DFD0 ?SynchronizeTypesAndRL@CSiteMapEntry@@QAGGG@Z
      11788 105A 0020D780 ?TMGStringCreate@@YGPAGPAULSsApiInstance@@PAGK@Z
      11789 105B 01178BB0 ?TMGStringResize@@YGPAGPAULSsApiInstance@@PAGG@Z
      11790 105C 00EAB4B0 ?TableExists@NIFSQL@@QAEGPAD0@Z
      11791 105D 001B68D0 ?Term@CBookMarkDb@@QAGXXZ
      11792 105E 0047F3E0 ?Term@CSOAPFactory@@SGGXZ
      11793 105F 00965AA0 ?Terminate@CNHTTPRetriever@@UAGGXZ
      11794 1060 00965850 ?Terminate@CNetIOCP@@QAGGXZ
      11795 1061 0096C3E0 ?Terminate@CNetSession@@QAGXXZ
      11796 1062 00972160 ?Terminate@CServerSession@@QAGGXZ
      11797 1063 009745D0 ?Terminate@OpenURL@@UAGGXZ
      11798 1064 008D8AA0 ?TerminateEmit@HTMLEmitter@@UAEGH@Z
      11799 1065 004AA540 ?TestIDPInitialedSignOnUrl@CSAMLDiag@@QAEGXZ
      11800 1066 010CD470 ?TestInfoBlkFlag@CPROGDocument@@QAGKK@Z
      11801 1067 004AA640 ?TestRedirectURL@CSAMLDiag@@QAEGXZ
      11802 1068 004AA8B0 ?TestUser@CSAMLDiag@@QAEGXZ
      11803 1069 007E43B0 ?TextInternal@@YGPADHQBUVALUE_TEXT_ENTRY@@H@Z
      11804 106A 001B84D0 ?TextListToArray@LsConv@@SGGPAULSsApiInstance@@PAULIST@@PAULSsValue@@@Z
      11805 106B 00193600 ?ThreadInit@LSIThread@@QAGFXZ
      11806 106C 008ECFD0 ?TimeToGetHeadlines@CSubscriptionStore@@QAGHXZ
      11807 106D 008EE880 ?TimeToUpdate@CSubscriptionStore@@QAGHXZ
      11808 106E 007D47E0 ?ToBase64@CStream@@QAGGAAV1@AAKKHH@Z
      11809 106F 007D4A50 ?ToBinhex@CStream@@QAGGAAV1@@Z
      11810 1070 007D9FB0 ?ToHex@CTimeDate@@QAEPADAAVCMemStr@@HH@Z
      11811 1071 007D6950 ?ToLMBCS@CStream@@QAGGPAUtagCharSetInfo@@AAV1@KKKK@Z
      11812 1072 007D4C00 ?ToQuotedPrintable@CStream@@QAGGAAV1@AAKKHHH@Z
      11813 1073 003D08E0 ?ToStream@CMimeDirectory@@QAEGAAVCStream@@@Z
      11814 1074 003CDA70 ?ToStream@CMimeEntity@@QAEGAAVCStream@@@Z
      11815 1075 003DD6E0 ?ToStream@CMimeHeader@@QAEGAAVCStream@@H@Z
      11816 1076 003CD600 ?ToStreamBody@CMimeEntity@@QAEGAAVCStream@@@Z
      11817 1077 003CB280 ?ToStreamHeaders@CMimeEntity@@QAEGAAVCStream@@HH@Z
      11818 1078 00763DA0 ?ToString@CLDAPChange@@SGPBDW4LDAPCHANGETYPE@@@Z
      11819 1079 00763C90 ?Traverse2@PYLTree@@QAEXPAVPYLNode@@P6AX0PAX@Z1@Z
      11820 107A 00763C50 ?Traverse@PYLTree@@QAEXPAVPYLNode@@P6AX0PAX@Z1@Z
      11821 107B 007CD170 ?TrimLeading@CMemStr@@QAEXXZ
      11822 107C 007D0680 ?TrimLeading@CStr@@QAGGXZ
      11823 107D 007D08F0 ?TrimLeadingTrailing@CStr@@QAGGXZ
      11824 107E 007D0930 ?TrimLeadingTrailingRedundant@CStr@@QAGGXZ
      11825 107F 007CD2B0 ?TrimLeadingWS@CMemStr@@QAEXXZ
      11826 1080 00F21E60 ?TrimThreadPool@CLDAPThread@@QAEGH@Z
      11827 1081 007CD3F0 ?TrimTrailing@CMemStr@@QAEXXZ
      11828 1082 007D0860 ?TrimTrailing@CStr@@QAGGXZ
      11829 1083 007CD520 ?TrimTrailingWS@CMemStr@@QAEXXZ
      11830 1084 007D3AB0 ?Truncate@CStream@@QAGXK@Z
      11831 1085 007D5160 ?Truncate@CStream@@QAGXXZ
      11832 1086 0111FA70 ?TypeNameInit@LSsInstance@@QAGXXZ
      11833 1087 005CD690 ?URIUTF8toIA5@JONAH@@YAHAAVr_buffer_t@1@AAVbuffer_t@1@P6A_NE@Z@Z
      11834 1088 005CBCE0 ?URIescape@JONAH@@YAHEAAVbuffer_t@1@@Z
      11835 1089 005A6F60 ?UTF8toLMBCS@JONAH@@YAGQAEAAVbuffer_t@1@@Z
      11836 108A 00962930 ?UnLockTaskPtr@CINetTask@@QAGXPAUINETTASK@@@Z
      11837 108B 010FF150 ?UniCodeToLMBCS@LSISession@@QAGGPADKPAPAXPAK@Z
      11838 108C 005CBB70 ?Univ2Array@JONAH@@YAHAAVr_buffer_t@1@PAI@Z
      11839 108D 008DBBE0 ?Unlock@CHandleBuffer@@QAGXXZ
      11840 108E 008D8AA0 ?Unlock@CMimeDirectory@@SGGK@Z
      11841 108F 0003C4D0 ?Unlock@CVector@@UAEGXZ
      11842 1090 01177550 ?Unlock@SmartMemoryObject@@MBGXXZ
      11843 1091 003CF700 ?UnlockAndCloseFiles@CMimeDirectory@@QAEGKH@Z
      11844 1092 010E1D70 ?UnlockExtraBytes@CDaemon@@QAEGH@Z
      11845 1093 00680170 ?Unsubscribe@CIMAP4Client@@QAGGPAUASYNC_CONTEXT@@GPAD@Z
      11846 1094 0068A360 ?Unsubscribe@CNewsGroup@@QAEGH@Z
      11847 1095 0046E010 ?Update@CColumnFormat@@QAGXPAUtagVIEW_COLUMN_FORMAT@@PAPADAAVCViewFontTable@@@Z
      11848 1096 008DBE60 ?Update@CNIFCollection@@QAGGAAH@Z
      11849 1097 008DC340 ?Update@CNIFCollection@@QAGGXZ
      11850 1098 008E7370 ?Update@CNote@@UAGGK@Z
      11851 1099 008ECC80 ?Update@CReplicaSelectionNote@@QAGGPAX@Z
      11852 109A 008F1940 ?Update@CSubscriptionStore@@QAGGXZ
      11853 109B 00476280 ?Update@CViewFormat@@QAGGPAXPAVCEventLanguageSaverHelper@@@Z
      11854 109C 004747C0 ?UpdateAlternateCollation@CViewFormat@@QAGGPAX@Z
      11855 109D 004747A0 ?UpdateCollation@CViewFormat@@QAGGXZ
      11856 109E 0028F0E0 ?UpdateCollections@CNNTPDatabase@@QAGGXZ
      11857 109F 00473FC0 ?UpdateColumnUniqueItemName@CViewFormat@@QAGGG@Z
      11858 10A0 008DDC60 ?UpdateDeleted@CManageDIP@@SGXPAXPADK@Z
      11859 10A1 008DDC50 ?UpdateDipTableSize@CManageDIP@@SGXXZ
      11860 10A2 0046E290 ?UpdateExtended@CColumnFormat@@QAGXPAUVIEW_COLUMN_FORMAT2@@AAVCViewFontTable@@@Z
      11861 10A3 0109D300 ?UpdateFolderUnread@CSiteMapStore@@QAGGPAVCSiteMapEntry@@PAX11@Z
      11862 10A4 00476050 ?UpdateFormulas@CViewFormat@@QAGGXZ
      11863 10A5 006C5370 ?UpdateHNote@CDefActionCtx@@UAGGPAX@Z
      11864 10A6 008DFCB0 ?UpdateHardDeletedList@CManageDIP@@SGHPAX0K@Z
      11865 10A7 010CD430 ?UpdateInfoBlk@CPROGDocument@@QAGXUtagTIMEDATE@@K@Z
      11866 10A8 008DFA30 ?UpdateLocalUsersView@CManageDPAB@@QAEXXZ
      11867 10A9 009124A0 ?UpdateParams@Config@@QAGGPAHP6GXGW4ActionType@@W4ParamDoc@@PAD@Z@Z
      11868 10AA 00912280 ?UpdateProfileParams@Config@@QAGGPBUProfileParam@@GP6GXGW4ActionType@@W4ParamDoc@@PAD@Z@Z
      11869 10AB 00681F60 ?UpdateProgressBar@CProgressInfo@@QAEXGPAK@Z
      11870 10AC 007AB8B0 ?UpdateRunData@CAssistant@@IAGGPAX00KHHPAUtagASSISTRUNCTXSTRUCT@@@Z
      11871 10AD 001B6920 ?UpdateSettingsIfNecessary@CBookMarkDb@@QAGXXZ
      11872 10AE 00472610 ?UpdateSubtotalCodes@CViewFormat@@QAGGXZ
      11873 10AF 004760F0 ?UpdateTableFormat@CViewFormat@@QAGGPAX@Z
      11874 10B0 004751A0 ?UpdateTableFormatForItem@CViewFormat@@QAGGPAXPADG@Z
      11875 10B1 007AEAF0 ?UpdateUnread@CDefActionCtx@@UAGGPAX0@Z
      11876 10B2 007CCD10 ?Uppercase@CMemStr@@QAEXXZ
      11877 10B3 007D0590 ?Uppercase@CStr@@QAGGXZ
      11878 10B4 010FEFF0 ?UseLSX@LSISession@@QAEGPAEPAPAULSsModule@@@Z
      11879 10B5 01120120 ?UseLSX@LSsInstance@@QAGFGPAULSsModule@@@Z
      11880 10B6 007A81B0 ?UsesV4Features@CAssistant@@QAGHXZ
      11881 10B7 00173400 ?VFormat@CMemStr@@QAEKPBDPAD@Z
      11882 10B8 007D0DC0 ?VFormat@CStr@@QAGGPBDPAD@Z
      11883 10B9 007D0E00 ?VFormatAppend@CStr@@QAGGPBDPAD@Z
      11884 10BA 007E43E0 ?ValueInternal@@YGGQBDQBUVALUE_TEXT_ENTRY@@HQAH@Z
      11885 10BB 008F7860 ?ValueToArray@LsConv@@SGGPAULSsApiInstance@@GPAXKPAULSsValue@@@Z
      11886 10BC 007A9920 ?VerifyAgentIntegrity@CAssistant@@QAGGXZ
      11887 10BD 007E1D70 ?VerifyTable@CHashTable@@QAGXXZ
      11888 10BE 00321410 ?VoteSpam@CGURUInternetClient@@QAGGPAVCStream@@PAUGURUCContext@@@Z
      11889 10BF 00321430 ?VoteWhite@CGURUInternetClient@@QAGGPAVCStream@@PAUGURUCContext@@@Z
      11890 10C0 00963120 ?WaitForAnyIO@CNetIOCP@@QAGGKPAKPAPAX@Z
      11891 10C1 00967930 ?WaitProc@CNetSession@@QAGGADH@Z
      11892 10C2 007D9490 ?WhatsMissing@CTaskStatList@@QAGXAAV1@0@Z
      11893 10C3 008D9A80 ?WriteAccess@CDatabase@@QAGHXZ
      11894 10C4 009BCEB0 ?WriteAt@CNSFNoteExtendableFileObj@@QAGGKKPAXPAK@Z
      11895 10C5 010A22D0 ?WriteSitemapItems@CSiteMapStore@@QAGGXZ
      11896 10C6 003C6E00 ?WriteText@MIMEWalkEntry@@UAEGPBEK@Z
      11897 10C7 007D46C0 ?WriteToFile@CStream@@QAGGH@Z
      11898 10C8 007D5FB0 ?WriteToFile@CStream@@QAGGPAD@Z
      11899 10C9 007D5E90 ?WriteToFile@CStream@@QAGGPADG@Z
      11900 10CA 007DA7F0 ?Zero@CVector@@UAEGK@Z
      11901 10CB 005D2EE0 ?add_cert@PFX@JONAH@@QAEIPBVx509_certificate@2@PAVAttributes@2@@Z
      11902 10CC 00584610 ?add_child@?$asn_sequenceof@VAttributeTypeAndValue@JONAH@@@JONAH@@UAEPAVAttributeTypeAndValue@2@XZ
      11903 10CD 0059CFF0 ?add_child@?$asn_sequenceof@VCertId@JONAH@@@JONAH@@UAEPAVCertId@2@XZ
      11904 10CE 005A6250 ?add_child@?$asn_sequenceof@VCertReqMsg@JONAH@@@JONAH@@UAEPAVCertReqMsg@2@XZ
      11905 10CF 0059D9B0 ?add_child@?$asn_sequenceof@VCertResponse@JONAH@@@JONAH@@UAEPAVCertResponse@2@XZ
      11906 10D0 00593E00 ?add_child@?$asn_sequenceof@VCertificateList@JONAH@@@JONAH@@UAEPAVCertificateList@2@XZ
      11907 10D1 005A6540 ?add_child@?$asn_sequenceof@VCertificateRequest@JONAH@@@JONAH@@UAEPAVCertificateRequest@2@XZ
      11908 10D2 0059D6C0 ?add_child@?$asn_sequenceof@VCertifiedKeyPair@JONAH@@@JONAH@@UAEPAVCertifiedKeyPair@2@XZ
      11909 10D3 0059D3D0 ?add_child@?$asn_sequenceof@VChallenge@JONAH@@@JONAH@@UAEPAVChallenge@2@XZ
      11910 10D4 004A9F30 ?add_child@?$asn_sequenceof@VContentInfo@JONAH@@@JONAH@@UAEPAVContentInfo@2@XZ
      11911 10D5 004A8EA0 ?add_child@?$asn_sequenceof@VGeneralName@JONAH@@@JONAH@@UAEPAVGeneralName@2@XZ
      11912 10D6 004A9190 ?add_child@?$asn_sequenceof@VGeneralSubtree@JONAH@@@JONAH@@UAEPAVGeneralSubtree@2@XZ
      11913 10D7 005A0A30 ?add_child@?$asn_sequenceof@VInfoTypeAndValue@JONAH@@@JONAH@@UAEPAVInfoTypeAndValue@2@XZ
      11914 10D8 0058B9E0 ?add_child@?$asn_sequenceof@VPKIStatusInfo@JONAH@@@JONAH@@UAEPAVPKIStatusInfo@2@XZ
      11915 10D9 004A0150 ?add_child@?$asn_sequenceof@VPolicyInformation@JONAH@@@JONAH@@UAEPAVPolicyInformation@2@XZ
      11916 10DA 00495BC0 ?add_child@?$asn_sequenceof@VPolicyMapping@JONAH@@@JONAH@@UAEPAVPolicyMapping@2@XZ
      11917 10DB 0049FE60 ?add_child@?$asn_sequenceof@VPolicyQualifierInfo@JONAH@@@JONAH@@UAEPAVPolicyQualifierInfo@2@XZ
      11918 10DC 004A75E0 ?add_child@?$asn_sequenceof@VPrivateKeyInfo@JONAH@@@JONAH@@UAEPAVPrivateKeyInfo@2@XZ
      11919 10DD 004979E0 ?add_child@?$asn_sequenceof@VRecipientInfo@JONAH@@@JONAH@@UAEPAVRecipientInfo@2@XZ
      11920 10DE 0059DCA0 ?add_child@?$asn_sequenceof@VRevDetails@JONAH@@@JONAH@@UAEPAVRevDetails@2@XZ
      11921 10DF 0059E7B0 ?add_child@?$asn_sequenceof@VRevocationRequest@JONAH@@@JONAH@@UAEPAVRevocationRequest@2@XZ
      11922 10E0 004A0F00 ?add_child@?$asn_sequenceof@VRevokedCertificate@JONAH@@@JONAH@@UAEPAVRevokedCertificate@2@XZ
      11923 10E1 004A78D0 ?add_child@?$asn_sequenceof@VSafeBag@JONAH@@@JONAH@@UAEPAVSafeBag@2@XZ
      11924 10E2 0059CD00 ?add_child@?$asn_sequenceof@VSinglePubInfo@JONAH@@@JONAH@@UAEPAVSinglePubInfo@2@XZ
      11925 10E3 0049E5C0 ?add_child@?$asn_sequenceof@Vasn_RDN@JONAH@@@JONAH@@UAEPAVasn_RDN@2@XZ
      11926 10E4 00583030 ?add_child@?$asn_sequenceof@Vasn_UTF8String@JONAH@@@JONAH@@UAEPAVasn_UTF8String@2@XZ
      11927 10E5 00495410 ?add_child@?$asn_sequenceof@Vasn_integer@JONAH@@@JONAH@@UAEPAVasn_integer@2@XZ
      11928 10E6 004945D0 ?add_child@?$asn_sequenceof@Vx509_Extension@JONAH@@@JONAH@@UAEPAVx509_Extension@2@XZ
      11929 10E7 004A6FF0 ?add_child@?$asn_sequenceof@Vx509_certificate@JONAH@@@JONAH@@UAEPAVx509_certificate@2@XZ
      11930 10E8 00498010 ?add_child@?$asn_setof@VAlgorithmIdentifier@JONAH@@@JONAH@@UAEPAVAlgorithmIdentifier@2@XZ
      11931 10E9 00585250 ?add_child@?$asn_setof@VAliasWithTag@JONAH@@@JONAH@@UAEPAVAliasWithTag@2@XZ
      11932 10EA 00497620 ?add_child@?$asn_setof@VAttribute@JONAH@@@JONAH@@UAEPAVAttribute@2@XZ
      11933 10EB 00593E00 ?add_child@?$asn_setof@VCertificateList@JONAH@@@JONAH@@UAEPAVCertificateList@2@XZ
      11934 10EC 004A6860 ?add_child@?$asn_setof@VHostIdMappingValue@JONAH@@@JONAH@@UAEPAVHostIdMappingValue@2@XZ
      11935 10ED 004A6D00 ?add_child@?$asn_setof@VSignerInfo@JONAH@@@JONAH@@UAEPAVSignerInfo@2@XZ
      11936 10EE 00493FA0 ?add_child@?$asn_setof@Vasn_AVA@JONAH@@@JONAH@@UAEPAVasn_AVA@2@XZ
      11937 10EF 00497020 ?add_child@?$asn_setof@Vasn_octetstring@JONAH@@@JONAH@@UAEPAVasn_octetstring@2@XZ
      11938 10F0 004A6FF0 ?add_child@?$asn_setof@Vx509_certificate@JONAH@@@JONAH@@UAEPAVx509_certificate@2@XZ
      11939 10F1 005846B0 ?add_child_before@?$asn_sequenceof@VAttributeTypeAndValue@JONAH@@@JONAH@@UAEPAVAttributeTypeAndValue@2@XZ
      11940 10F2 0059D090 ?add_child_before@?$asn_sequenceof@VCertId@JONAH@@@JONAH@@UAEPAVCertId@2@XZ
      11941 10F3 005A62F0 ?add_child_before@?$asn_sequenceof@VCertReqMsg@JONAH@@@JONAH@@UAEPAVCertReqMsg@2@XZ
      11942 10F4 0059DA50 ?add_child_before@?$asn_sequenceof@VCertResponse@JONAH@@@JONAH@@UAEPAVCertResponse@2@XZ
      11943 10F5 00593EA0 ?add_child_before@?$asn_sequenceof@VCertificateList@JONAH@@@JONAH@@UAEPAVCertificateList@2@XZ
      11944 10F6 005A65E0 ?add_child_before@?$asn_sequenceof@VCertificateRequest@JONAH@@@JONAH@@UAEPAVCertificateRequest@2@XZ
      11945 10F7 0059D760 ?add_child_before@?$asn_sequenceof@VCertifiedKeyPair@JONAH@@@JONAH@@UAEPAVCertifiedKeyPair@2@XZ
      11946 10F8 0059D470 ?add_child_before@?$asn_sequenceof@VChallenge@JONAH@@@JONAH@@UAEPAVChallenge@2@XZ
      11947 10F9 004A9FD0 ?add_child_before@?$asn_sequenceof@VContentInfo@JONAH@@@JONAH@@UAEPAVContentInfo@2@XZ
      11948 10FA 004A8F40 ?add_child_before@?$asn_sequenceof@VGeneralName@JONAH@@@JONAH@@UAEPAVGeneralName@2@XZ
      11949 10FB 004A9230 ?add_child_before@?$asn_sequenceof@VGeneralSubtree@JONAH@@@JONAH@@UAEPAVGeneralSubtree@2@XZ
      11950 10FC 005A0AD0 ?add_child_before@?$asn_sequenceof@VInfoTypeAndValue@JONAH@@@JONAH@@UAEPAVInfoTypeAndValue@2@XZ
      11951 10FD 0058BA80 ?add_child_before@?$asn_sequenceof@VPKIStatusInfo@JONAH@@@JONAH@@UAEPAVPKIStatusInfo@2@XZ
      11952 10FE 004A01F0 ?add_child_before@?$asn_sequenceof@VPolicyInformation@JONAH@@@JONAH@@UAEPAVPolicyInformation@2@XZ
      11953 10FF 00495C60 ?add_child_before@?$asn_sequenceof@VPolicyMapping@JONAH@@@JONAH@@UAEPAVPolicyMapping@2@XZ
      11954 1100 0049FF00 ?add_child_before@?$asn_sequenceof@VPolicyQualifierInfo@JONAH@@@JONAH@@UAEPAVPolicyQualifierInfo@2@XZ
      11955 1101 004A7680 ?add_child_before@?$asn_sequenceof@VPrivateKeyInfo@JONAH@@@JONAH@@UAEPAVPrivateKeyInfo@2@XZ
      11956 1102 00497A80 ?add_child_before@?$asn_sequenceof@VRecipientInfo@JONAH@@@JONAH@@UAEPAVRecipientInfo@2@XZ
      11957 1103 0059DD40 ?add_child_before@?$asn_sequenceof@VRevDetails@JONAH@@@JONAH@@UAEPAVRevDetails@2@XZ
      11958 1104 0059E850 ?add_child_before@?$asn_sequenceof@VRevocationRequest@JONAH@@@JONAH@@UAEPAVRevocationRequest@2@XZ
      11959 1105 004A0FA0 ?add_child_before@?$asn_sequenceof@VRevokedCertificate@JONAH@@@JONAH@@UAEPAVRevokedCertificate@2@XZ
      11960 1106 004A7970 ?add_child_before@?$asn_sequenceof@VSafeBag@JONAH@@@JONAH@@UAEPAVSafeBag@2@XZ
      11961 1107 0059CDA0 ?add_child_before@?$asn_sequenceof@VSinglePubInfo@JONAH@@@JONAH@@UAEPAVSinglePubInfo@2@XZ
      11962 1108 0049E660 ?add_child_before@?$asn_sequenceof@Vasn_RDN@JONAH@@@JONAH@@UAEPAVasn_RDN@2@XZ
      11963 1109 005830D0 ?add_child_before@?$asn_sequenceof@Vasn_UTF8String@JONAH@@@JONAH@@UAEPAVasn_UTF8String@2@XZ
      11964 110A 00495500 ?add_child_before@?$asn_sequenceof@Vasn_integer@JONAH@@@JONAH@@UAEPAVasn_integer@2@XZ
      11965 110B 00494670 ?add_child_before@?$asn_sequenceof@Vx509_Extension@JONAH@@@JONAH@@UAEPAVx509_Extension@2@XZ
      11966 110C 004A7090 ?add_child_before@?$asn_sequenceof@Vx509_certificate@JONAH@@@JONAH@@UAEPAVx509_certificate@2@XZ
      11967 110D 004980B0 ?add_child_before@?$asn_setof@VAlgorithmIdentifier@JONAH@@@JONAH@@UAEPAVAlgorithmIdentifier@2@XZ
      11968 110E 005852F0 ?add_child_before@?$asn_setof@VAliasWithTag@JONAH@@@JONAH@@UAEPAVAliasWithTag@2@XZ
      11969 110F 004976C0 ?add_child_before@?$asn_setof@VAttribute@JONAH@@@JONAH@@UAEPAVAttribute@2@XZ
      11970 1110 00593EA0 ?add_child_before@?$asn_setof@VCertificateList@JONAH@@@JONAH@@UAEPAVCertificateList@2@XZ
      11971 1111 004A6900 ?add_child_before@?$asn_setof@VHostIdMappingValue@JONAH@@@JONAH@@UAEPAVHostIdMappingValue@2@XZ
      11972 1112 004A6DA0 ?add_child_before@?$asn_setof@VSignerInfo@JONAH@@@JONAH@@UAEPAVSignerInfo@2@XZ
      11973 1113 00494040 ?add_child_before@?$asn_setof@Vasn_AVA@JONAH@@@JONAH@@UAEPAVasn_AVA@2@XZ
      11974 1114 00497120 ?add_child_before@?$asn_setof@Vasn_octetstring@JONAH@@@JONAH@@UAEPAVasn_octetstring@2@XZ
      11975 1115 004A7090 ?add_child_before@?$asn_setof@Vx509_certificate@JONAH@@@JONAH@@UAEPAVx509_certificate@2@XZ
      11976 1116 005C6B70 ?add_hours@JonahTime@JONAH@@QAEHH@Z
      11977 1117 005D3310 ?add_key@PFX@JONAH@@QAEIPBVPrivateKeyInfo@2@PAVAttributes@2@@Z
      11978 1118 005C70C0 ?add_months@JonahTime@JONAH@@QAEHH@Z
      11979 1119 005C7100 ?add_seconds@JonahTime@JONAH@@QAEHH@Z
      11980 111A 005C7080 ?add_years@JonahTime@JONAH@@QAEHH@Z
      11981 111B 005BDCE0 ?append@buffer_t@JONAH@@QAEHABVr_buffer_t@2@@Z
      11982 111C 005BDC20 ?append@buffer_t@JONAH@@QAEHE@Z
      11983 111D 005BDC90 ?append@buffer_t@JONAH@@QAEHPBD@Z
      11984 111E 005BDC50 ?append@buffer_t@JONAH@@QAEHPBEI@Z
      11985 111F 005C1E80 ?append_int@buffer_t@JONAH@@QAEHJ@Z
      11986 1120 005BDD90 ?append_objTYpe@asn_object@JONAH@@QBEXPBD@Z
      11987 1121 005C00B0 ?append_subident@asn_oid@JONAH@@QAEHK@Z
      11988 1122 005D53C0 ?build_certificate@PFX@JONAH@@QAEIPAUSEC_OBJ_VECTOR@@PAUSEC_OBJ_DESC@@1@Z
      11989 1123 005BCF80 ?calloc@memory_funcs_t@JONAH@@QAEPAXII@Z
      11990 1124 005BCD90 ?changeType@jonah_base_class@JONAH@@QBEXPBD@Z
      11991 1125 005D6AB0 ?checkSignedItems@JONAH@@YAGPAXQAPBD@Z
      11992 1126 005C14A0 ?check_EOC@JONAH@@YA_NVr_buffer_t@1@@Z
      11993 1127 005D8C60 ?check_accepted_codeset@DisplayText@JONAH@@MBE_NI@Z
      11994 1128 005CBAB0 ?check_accepted_codeset@asn_UTF8String@JONAH@@MBE_NI@Z
      11995 1129 005CBA90 ?check_accepted_codeset@asn_bmpString@JONAH@@MBE_NI@Z
      11996 112A 005CBA10 ?check_accepted_codeset@asn_directoryString@JONAH@@MBE_NI@Z
      11997 112B 005CBA50 ?check_accepted_codeset@asn_ia5String@JONAH@@MBE_NI@Z
      11998 112C 005CBA60 ?check_accepted_codeset@asn_printableString@JONAH@@MBE_NI@Z
      11999 112D 005CBA80 ?check_accepted_codeset@asn_teletexString@JONAH@@MBE_NI@Z
      12000 112E 005CBAA0 ?check_accepted_codeset@asn_universalString@JONAH@@MBE_NI@Z
      12001 112F 005CBA70 ?check_accepted_codeset@asn_visibleString@JONAH@@MBE_NI@Z
      12002 1130 005C2010 ?check_encode_flags@asn_choice@JONAH@@UBE_NXZ
      12003 1131 005BDD30 ?check_encode_flags@asn_choice@JONAH@@UBE_N_N@Z
      12004 1132 005C1F70 ?check_encode_flags@asn_composite@JONAH@@UBE_NXZ
      12005 1133 005BDD30 ?check_encode_flags@asn_composite@JONAH@@UBE_N_N@Z
      12006 1134 0048E060 ?check_encode_flags@asn_object@JONAH@@UBE_NXZ
      12007 1135 005BDDC0 ?check_encode_flags@asn_object@JONAH@@UBE_N_N@Z
      12008 1136 005D8C60 ?check_preferred_codeset@DisplayText@JONAH@@MBE_NI@Z
      12009 1137 005CBAB0 ?check_preferred_codeset@asn_UTF8String@JONAH@@MBE_NI@Z
      12010 1138 005CBA90 ?check_preferred_codeset@asn_bmpString@JONAH@@MBE_NI@Z
      12011 1139 005C73E0 ?check_preferred_codeset@asn_charstring@JONAH@@MBE_NI@Z
      12012 113A 005CB9E0 ?check_preferred_codeset@asn_directoryString@JONAH@@MBE_NI@Z
      12013 113B 005CBA50 ?check_preferred_codeset@asn_ia5String@JONAH@@MBE_NI@Z
      12014 113C 005CBA60 ?check_preferred_codeset@asn_printableString@JONAH@@MBE_NI@Z
      12015 113D 005CBA80 ?check_preferred_codeset@asn_teletexString@JONAH@@MBE_NI@Z
      12016 113E 005CBAA0 ?check_preferred_codeset@asn_universalString@JONAH@@MBE_NI@Z
      12017 113F 005CBA70 ?check_preferred_codeset@asn_visibleString@JONAH@@MBE_NI@Z
      12018 1140 005D8C30 ?check_type@DisplayText@JONAH@@MBE_NIH@Z
      12019 1141 005C0F70 ?check_type@asn_any@JONAH@@MBE_NIH@Z
      12020 1142 005C72F0 ?check_type@asn_directoryString@JONAH@@MBE_NIH@Z
      12021 1143 005BE630 ?check_type@asn_object@JONAH@@MBE_NIH@Z
      12022 1144 005C0DD0 ?check_valid@asn_any@JONAH@@MAEX_N@Z
      12023 1145 005C0B20 ?check_valid@asn_choice@JONAH@@MAEX_N@Z
      12024 1146 005BF350 ?check_valid@asn_composite@JONAH@@MAEX_N@Z
      12025 1147 01177550 ?check_valid@asn_object@JONAH@@MAEX_N@Z
      12026 1148 00316790 ?cleanup@CCSMeeting@@QAGXXZ
      12027 1149 005C5F60 ?clear@bigUInt@@QAEIXZ
      12028 114A 005BDA90 ?clear@buffer_t@JONAH@@QAEHXZ
      12029 114B 0048D020 ?clear_bit@asn_namedbits@JONAH@@QAEHI@Z
      12030 114C 005CA1E0 ?convert2BMP@asn_charstring@JONAH@@QAEHXZ
      12031 114D 005CA620 ?convert2BMP@asn_charstring@JONAH@@QBEHAAVbuffer_t@2@@Z
      12032 114E 005CBE40 ?convert2IA5@asn_charstring@JONAH@@QAEHXZ
      12033 114F 005CCC60 ?convert2IA5@asn_charstring@JONAH@@QBEHAAVbuffer_t@2@@Z
      12034 1150 005CC5F0 ?convert2T61@asn_charstring@JONAH@@QAEHXZ
      12035 1151 005CA3E0 ?convert2T61@asn_charstring@JONAH@@QBEHAAVbuffer_t@2@@Z
      12036 1152 005CC9C0 ?convert2UTF8@asn_charstring@JONAH@@QAEHXZ
      12037 1153 005CD3D0 ?convert2UTF8@asn_charstring@JONAH@@QBEHAAVbuffer_t@2@@Z
      12038 1154 005CC750 ?convert2Univ@asn_charstring@JONAH@@QAEHXZ
      12039 1155 005CD210 ?convert2Univ@asn_charstring@JONAH@@QBEHAAVbuffer_t@2@@Z
      12040 1156 005CC050 ?convert2printable@asn_charstring@JONAH@@QAEHXZ
      12041 1157 005CCD70 ?convert2printable@asn_charstring@JONAH@@QBEHAAVbuffer_t@2@@Z
      12042 1158 005CC320 ?convert2visible@asn_charstring@JONAH@@QAEHXZ
      12043 1159 005CCFC0 ?convert2visible@asn_charstring@JONAH@@QBEHAAVbuffer_t@2@@Z
      12044 115A 0048C850 ?copyFrom@memory_funcs_t@JONAH@@QAEXABV12@@Z
      12045 115B 007A3120 ?curPos@XmlReformatter@@UAEKXZ
      12046 115C 00494BF0 ?decode_value@?$asn_implicit@V?$asn_sequenceof@VGeneralName@JONAH@@@JONAH@@$01$00@JONAH@@UAEHAAVr_buffer_t@2@I@Z
      12047 115D 00494BF0 ?decode_value@?$asn_implicit@V?$asn_sequenceof@VGeneralName@JONAH@@@JONAH@@$01$01@JONAH@@UAEHAAVr_buffer_t@2@I@Z
      12048 115E 00494BF0 ?decode_value@?$asn_implicit@V?$asn_sequenceof@VGeneralName@JONAH@@@JONAH@@$01$0A@@JONAH@@UAEHAAVr_buffer_t@2@I@Z
      12049 115F 00494BF0 ?decode_value@?$asn_implicit@V?$asn_sequenceof@VGeneralSubtree@JONAH@@@JONAH@@$01$00@JONAH@@UAEHAAVr_buffer_t@2@I@Z
      12050 1160 00494BF0 ?decode_value@?$asn_implicit@V?$asn_sequenceof@VGeneralSubtree@JONAH@@@JONAH@@$01$0A@@JONAH@@UAEHAAVr_buffer_t@2@I@Z
      12051 1161 00494BF0 ?decode_value@?$asn_implicit@VAlgorithmIdentifier@JONAH@@$01$00@JONAH@@UAEHAAVr_buffer_t@2@I@Z
      12052 1162 00494BF0 ?decode_value@?$asn_implicit@VAlgorithmIdentifier@JONAH@@$01$01@JONAH@@UAEHAAVr_buffer_t@2@I@Z
      12053 1163 00494BF0 ?decode_value@?$asn_implicit@VAlgorithmIdentifier@JONAH@@$01$02@JONAH@@UAEHAAVr_buffer_t@2@I@Z
      12054 1164 00494BF0 ?decode_value@?$asn_implicit@VAlgorithmIdentifier@JONAH@@$01$0A@@JONAH@@UAEHAAVr_buffer_t@2@I@Z
      12055 1165 00494BF0 ?decode_value@?$asn_implicit@VAttributes@JONAH@@$01$00@JONAH@@UAEHAAVr_buffer_t@2@I@Z
      12056 1166 00494BF0 ?decode_value@?$asn_implicit@VAttributes@JONAH@@$01$0A@@JONAH@@UAEHAAVr_buffer_t@2@I@Z
      12057 1167 00494BF0 ?decode_value@?$asn_implicit@VCertRevocationLists@JONAH@@$01$00@JONAH@@UAEHAAVr_buffer_t@2@I@Z
      12058 1168 00494BF0 ?decode_value@?$asn_implicit@VEDIPartyName@JONAH@@$01$04@JONAH@@UAEHAAVr_buffer_t@2@I@Z
      12059 1169 00494BF0 ?decode_value@?$asn_implicit@VExtendedCertsAndCertificates@JONAH@@$01$0A@@JONAH@@UAEHAAVr_buffer_t@2@I@Z
      12060 116A 00494BF0 ?decode_value@?$asn_implicit@VOptionalValidity@JONAH@@$01$03@JONAH@@UAEHAAVr_buffer_t@2@I@Z
      12061 116B 00494BF0 ?decode_value@?$asn_implicit@VPOPOSigningKey@JONAH@@$01$00@JONAH@@UAEHAAVr_buffer_t@2@I@Z
      12062 116C 00494BF0 ?decode_value@?$asn_implicit@VPOPOSigningKeyInput@JONAH@@$01$0A@@JONAH@@UAEHAAVr_buffer_t@2@I@Z
      12063 116D 00494BF0 ?decode_value@?$asn_implicit@VReasonFlags@JONAH@@$01$00@JONAH@@UAEHAAVr_buffer_t@2@I@Z
      12064 116E 00494BF0 ?decode_value@?$asn_implicit@VReasonFlags@JONAH@@$01$02@JONAH@@UAEHAAVr_buffer_t@2@I@Z
      12065 116F 00494BF0 ?decode_value@?$asn_implicit@VSubjectPublicKeyInfo@JONAH@@$01$05@JONAH@@UAEHAAVr_buffer_t@2@I@Z
      12066 1170 00494BF0 ?decode_value@?$asn_implicit@Vasn_RDN@JONAH@@$01$00@JONAH@@UAEHAAVr_buffer_t@2@I@Z
      12067 1171 00494BF0 ?decode_value@?$asn_implicit@Vasn_bitstring@JONAH@@$01$00@JONAH@@UAEHAAVr_buffer_t@2@I@Z
      12068 1172 00494BF0 ?decode_value@?$asn_implicit@Vasn_bitstring@JONAH@@$01$01@JONAH@@UAEHAAVr_buffer_t@2@I@Z
      12069 1173 00494BF0 ?decode_value@?$asn_implicit@Vasn_bitstring@JONAH@@$01$06@JONAH@@UAEHAAVr_buffer_t@2@I@Z
      12070 1174 00494BF0 ?decode_value@?$asn_implicit@Vasn_bitstring@JONAH@@$01$07@JONAH@@UAEHAAVr_buffer_t@2@I@Z
      12071 1175 00494BF0 ?decode_value@?$asn_implicit@Vasn_boolean@JONAH@@$01$00@JONAH@@UAEHAAVr_buffer_t@2@I@Z
      12072 1176 00494BF0 ?decode_value@?$asn_implicit@Vasn_boolean@JONAH@@$01$01@JONAH@@UAEHAAVr_buffer_t@2@I@Z
      12073 1177 00494BF0 ?decode_value@?$asn_implicit@Vasn_boolean@JONAH@@$01$03@JONAH@@UAEHAAVr_buffer_t@2@I@Z
      12074 1178 00494BF0 ?decode_value@?$asn_implicit@Vasn_generalizedtime@JONAH@@$01$00@JONAH@@UAEHAAVr_buffer_t@2@I@Z
      12075 1179 00494BF0 ?decode_value@?$asn_implicit@Vasn_generalizedtime@JONAH@@$01$0A@@JONAH@@UAEHAAVr_buffer_t@2@I@Z
      12076 117A 00494BF0 ?decode_value@?$asn_implicit@Vasn_ia5String@JONAH@@$01$00@JONAH@@UAEHAAVr_buffer_t@2@I@Z
      12077 117B 00494BF0 ?decode_value@?$asn_implicit@Vasn_ia5String@JONAH@@$01$01@JONAH@@UAEHAAVr_buffer_t@2@I@Z
      12078 117C 00494BF0 ?decode_value@?$asn_implicit@Vasn_ia5String@JONAH@@$01$05@JONAH@@UAEHAAVr_buffer_t@2@I@Z
      12079 117D 00494BF0 ?decode_value@?$asn_implicit@Vasn_integer@JONAH@@$01$00@JONAH@@UAEHAAVr_buffer_t@2@I@Z
      12080 117E 00494BF0 ?decode_value@?$asn_implicit@Vasn_integer@JONAH@@$01$01@JONAH@@UAEHAAVr_buffer_t@2@I@Z
      12081 117F 00494BF0 ?decode_value@?$asn_implicit@Vasn_integer@JONAH@@$01$0A@@JONAH@@UAEHAAVr_buffer_t@2@I@Z
      12082 1180 00494BF0 ?decode_value@?$asn_implicit@Vasn_null@JONAH@@$01$0A@@JONAH@@UAEHAAVr_buffer_t@2@I@Z
      12083 1181 00494BF0 ?decode_value@?$asn_implicit@Vasn_octetstring@JONAH@@$01$03@JONAH@@UAEHAAVr_buffer_t@2@I@Z
      12084 1182 00494BF0 ?decode_value@?$asn_implicit@Vasn_octetstring@JONAH@@$01$06@JONAH@@UAEHAAVr_buffer_t@2@I@Z
      12085 1183 00494BF0 ?decode_value@?$asn_implicit@Vasn_octetstring@JONAH@@$01$0A@@JONAH@@UAEHAAVr_buffer_t@2@I@Z
      12086 1184 00494BF0 ?decode_value@?$asn_implicit@Vasn_oid@JONAH@@$01$07@JONAH@@UAEHAAVr_buffer_t@2@I@Z
      12087 1185 00494BF0 ?decode_value@?$asn_implicit@Vx509_Extensions@JONAH@@$01$08@JONAH@@UAEHAAVr_buffer_t@2@I@Z
      12088 1186 00584460 ?decode_value@?$asn_sequenceof@VAttributeTypeAndValue@JONAH@@@JONAH@@UAEHAAVr_buffer_t@2@I@Z
      12089 1187 0059CE40 ?decode_value@?$asn_sequenceof@VCertId@JONAH@@@JONAH@@UAEHAAVr_buffer_t@2@I@Z
      12090 1188 005A60A0 ?decode_value@?$asn_sequenceof@VCertReqMsg@JONAH@@@JONAH@@UAEHAAVr_buffer_t@2@I@Z
      12091 1189 0059D800 ?decode_value@?$asn_sequenceof@VCertResponse@JONAH@@@JONAH@@UAEHAAVr_buffer_t@2@I@Z
      12092 118A 00593C50 ?decode_value@?$asn_sequenceof@VCertificateList@JONAH@@@JONAH@@UAEHAAVr_buffer_t@2@I@Z
      12093 118B 005A6390 ?decode_value@?$asn_sequenceof@VCertificateRequest@JONAH@@@JONAH@@UAEHAAVr_buffer_t@2@I@Z
      12094 118C 0059D510 ?decode_value@?$asn_sequenceof@VCertifiedKeyPair@JONAH@@@JONAH@@UAEHAAVr_buffer_t@2@I@Z
      12095 118D 0059D220 ?decode_value@?$asn_sequenceof@VChallenge@JONAH@@@JONAH@@UAEHAAVr_buffer_t@2@I@Z
      12096 118E 004A9D80 ?decode_value@?$asn_sequenceof@VContentInfo@JONAH@@@JONAH@@UAEHAAVr_buffer_t@2@I@Z
      12097 118F 004A8CF0 ?decode_value@?$asn_sequenceof@VGeneralName@JONAH@@@JONAH@@UAEHAAVr_buffer_t@2@I@Z
      12098 1190 004A8FE0 ?decode_value@?$asn_sequenceof@VGeneralSubtree@JONAH@@@JONAH@@UAEHAAVr_buffer_t@2@I@Z
      12099 1191 005A0880 ?decode_value@?$asn_sequenceof@VInfoTypeAndValue@JONAH@@@JONAH@@UAEHAAVr_buffer_t@2@I@Z
      12100 1192 0058B830 ?decode_value@?$asn_sequenceof@VPKIStatusInfo@JONAH@@@JONAH@@UAEHAAVr_buffer_t@2@I@Z
      12101 1193 0049FFA0 ?decode_value@?$asn_sequenceof@VPolicyInformation@JONAH@@@JONAH@@UAEHAAVr_buffer_t@2@I@Z
      12102 1194 00495A10 ?decode_value@?$asn_sequenceof@VPolicyMapping@JONAH@@@JONAH@@UAEHAAVr_buffer_t@2@I@Z
      12103 1195 0049FC20 ?decode_value@?$asn_sequenceof@VPolicyQualifierInfo@JONAH@@@JONAH@@UAEHAAVr_buffer_t@2@I@Z
      12104 1196 004A7430 ?decode_value@?$asn_sequenceof@VPrivateKeyInfo@JONAH@@@JONAH@@UAEHAAVr_buffer_t@2@I@Z
      12105 1197 00497830 ?decode_value@?$asn_sequenceof@VRecipientInfo@JONAH@@@JONAH@@UAEHAAVr_buffer_t@2@I@Z
      12106 1198 0059DAF0 ?decode_value@?$asn_sequenceof@VRevDetails@JONAH@@@JONAH@@UAEHAAVr_buffer_t@2@I@Z
      12107 1199 0059E600 ?decode_value@?$asn_sequenceof@VRevocationRequest@JONAH@@@JONAH@@UAEHAAVr_buffer_t@2@I@Z
      12108 119A 004A0D50 ?decode_value@?$asn_sequenceof@VRevokedCertificate@JONAH@@@JONAH@@UAEHAAVr_buffer_t@2@I@Z
      12109 119B 004A7720 ?decode_value@?$asn_sequenceof@VSafeBag@JONAH@@@JONAH@@UAEHAAVr_buffer_t@2@I@Z
      12110 119C 0059CB50 ?decode_value@?$asn_sequenceof@VSinglePubInfo@JONAH@@@JONAH@@UAEHAAVr_buffer_t@2@I@Z
      12111 119D 0049E410 ?decode_value@?$asn_sequenceof@Vasn_RDN@JONAH@@@JONAH@@UAEHAAVr_buffer_t@2@I@Z
      12112 119E 00582E80 ?decode_value@?$asn_sequenceof@Vasn_UTF8String@JONAH@@@JONAH@@UAEHAAVr_buffer_t@2@I@Z
      12113 119F 00495220 ?decode_value@?$asn_sequenceof@Vasn_integer@JONAH@@@JONAH@@UAEHAAVr_buffer_t@2@I@Z
      12114 11A0 00494420 ?decode_value@?$asn_sequenceof@Vx509_Extension@JONAH@@@JONAH@@UAEHAAVr_buffer_t@2@I@Z
      12115 11A1 004A69A0 ?decode_value@?$asn_sequenceof@Vx509_certificate@JONAH@@@JONAH@@UAEHAAVr_buffer_t@2@I@Z
      12116 11A2 00497E60 ?decode_value@?$asn_setof@VAlgorithmIdentifier@JONAH@@@JONAH@@UAEHAAVr_buffer_t@2@I@Z
      12117 11A3 005850A0 ?decode_value@?$asn_setof@VAliasWithTag@JONAH@@@JONAH@@UAEHAAVr_buffer_t@2@I@Z
      12118 11A4 00497470 ?decode_value@?$asn_setof@VAttribute@JONAH@@@JONAH@@UAEHAAVr_buffer_t@2@I@Z
      12119 11A5 004A7130 ?decode_value@?$asn_setof@VCertificateList@JONAH@@@JONAH@@UAEHAAVr_buffer_t@2@I@Z
      12120 11A6 004A66B0 ?decode_value@?$asn_setof@VHostIdMappingValue@JONAH@@@JONAH@@UAEHAAVr_buffer_t@2@I@Z
      12121 11A7 004A6B50 ?decode_value@?$asn_setof@VSignerInfo@JONAH@@@JONAH@@UAEHAAVr_buffer_t@2@I@Z
      12122 11A8 00493DF0 ?decode_value@?$asn_setof@Vasn_AVA@JONAH@@@JONAH@@UAEHAAVr_buffer_t@2@I@Z
      12123 11A9 00496E20 ?decode_value@?$asn_setof@Vasn_octetstring@JONAH@@@JONAH@@UAEHAAVr_buffer_t@2@I@Z
      12124 11AA 004A6E40 ?decode_value@?$asn_setof@Vx509_certificate@JONAH@@@JONAH@@UAEHAAVr_buffer_t@2@I@Z
      12125 11AB 005C57A0 ?decode_value@asn_UTCtime@JONAH@@UAEHAAVr_buffer_t@2@I@Z
      12126 11AC 005C0E50 ?decode_value@asn_any@JONAH@@UAEHAAVr_buffer_t@2@I@Z
      12127 11AD 005C4AB0 ?decode_value@asn_bitstring@JONAH@@UAEHAAVr_buffer_t@2@I@Z
      12128 11AE 005BFD80 ?decode_value@asn_boolean@JONAH@@UAEHAAVr_buffer_t@2@I@Z
      12129 11AF 005C0940 ?decode_value@asn_choice@JONAH@@UAEHAAVr_buffer_t@2@I@Z
      12130 11B0 005C58B0 ?decode_value@asn_generalizedtime@JONAH@@UAEHAAVr_buffer_t@2@I@Z
      12131 11B1 005C2FA0 ?decode_value@asn_integer@JONAH@@UAEHAAVr_buffer_t@2@I@Z
      12132 11B2 006C5370 ?decode_value@asn_nothing@JONAH@@UAEHAAVr_buffer_t@2@I@Z
      12133 11B3 005C0060 ?decode_value@asn_null@JONAH@@UAEHAAVr_buffer_t@2@I@Z
      12134 11B4 005C5170 ?decode_value@asn_octetstring@JONAH@@UAEHAAVr_buffer_t@2@I@Z
      12135 11B5 005C3A90 ?decode_value@asn_oid@JONAH@@UAEHAAVr_buffer_t@2@I@Z
      12136 11B6 005C3E00 ?decode_value@asn_sequence@JONAH@@UAEHAAVr_buffer_t@2@I@Z
      12137 11B7 005C3F20 ?decode_value@asn_sorted@JONAH@@UAEHAAVr_buffer_t@2@I@Z
      12138 11B8 0049FDD0 ?delete_child@?$asn_sequenceof@VAttributeTypeAndValue@JONAH@@@JONAH@@UAEHI@Z
      12139 11B9 0049FDD0 ?delete_child@?$asn_sequenceof@VCertId@JONAH@@@JONAH@@UAEHI@Z
      12140 11BA 0049FDD0 ?delete_child@?$asn_sequenceof@VCertReqMsg@JONAH@@@JONAH@@UAEHI@Z
      12141 11BB 0049FDD0 ?delete_child@?$asn_sequenceof@VCertResponse@JONAH@@@JONAH@@UAEHI@Z
      12142 11BC 0049FDD0 ?delete_child@?$asn_sequenceof@VCertificateList@JONAH@@@JONAH@@UAEHI@Z
      12143 11BD 0049FDD0 ?delete_child@?$asn_sequenceof@VCertificateRequest@JONAH@@@JONAH@@UAEHI@Z
      12144 11BE 0049FDD0 ?delete_child@?$asn_sequenceof@VCertifiedKeyPair@JONAH@@@JONAH@@UAEHI@Z
      12145 11BF 0049FDD0 ?delete_child@?$asn_sequenceof@VChallenge@JONAH@@@JONAH@@UAEHI@Z
      12146 11C0 0049FDD0 ?delete_child@?$asn_sequenceof@VContentInfo@JONAH@@@JONAH@@UAEHI@Z
      12147 11C1 0049FDD0 ?delete_child@?$asn_sequenceof@VGeneralName@JONAH@@@JONAH@@UAEHI@Z
      12148 11C2 0049FDD0 ?delete_child@?$asn_sequenceof@VGeneralSubtree@JONAH@@@JONAH@@UAEHI@Z
      12149 11C3 0049FDD0 ?delete_child@?$asn_sequenceof@VInfoTypeAndValue@JONAH@@@JONAH@@UAEHI@Z
      12150 11C4 0049FDD0 ?delete_child@?$asn_sequenceof@VPKIStatusInfo@JONAH@@@JONAH@@UAEHI@Z
      12151 11C5 0049FDD0 ?delete_child@?$asn_sequenceof@VPolicyInformation@JONAH@@@JONAH@@UAEHI@Z
      12152 11C6 0049FDD0 ?delete_child@?$asn_sequenceof@VPolicyMapping@JONAH@@@JONAH@@UAEHI@Z
      12153 11C7 0049FDD0 ?delete_child@?$asn_sequenceof@VPolicyQualifierInfo@JONAH@@@JONAH@@UAEHI@Z
      12154 11C8 0049FDD0 ?delete_child@?$asn_sequenceof@VPrivateKeyInfo@JONAH@@@JONAH@@UAEHI@Z
      12155 11C9 0049FDD0 ?delete_child@?$asn_sequenceof@VRecipientInfo@JONAH@@@JONAH@@UAEHI@Z
      12156 11CA 0049FDD0 ?delete_child@?$asn_sequenceof@VRevDetails@JONAH@@@JONAH@@UAEHI@Z
      12157 11CB 0049FDD0 ?delete_child@?$asn_sequenceof@VRevocationRequest@JONAH@@@JONAH@@UAEHI@Z
      12158 11CC 0049FDD0 ?delete_child@?$asn_sequenceof@VRevokedCertificate@JONAH@@@JONAH@@UAEHI@Z
      12159 11CD 0049FDD0 ?delete_child@?$asn_sequenceof@VSafeBag@JONAH@@@JONAH@@UAEHI@Z
      12160 11CE 0049FDD0 ?delete_child@?$asn_sequenceof@VSinglePubInfo@JONAH@@@JONAH@@UAEHI@Z
      12161 11CF 0049FDD0 ?delete_child@?$asn_sequenceof@Vasn_RDN@JONAH@@@JONAH@@UAEHI@Z
      12162 11D0 0049FDD0 ?delete_child@?$asn_sequenceof@Vasn_UTF8String@JONAH@@@JONAH@@UAEHI@Z
      12163 11D1 0049FDD0 ?delete_child@?$asn_sequenceof@Vasn_integer@JONAH@@@JONAH@@UAEHI@Z
      12164 11D2 0049FDD0 ?delete_child@?$asn_sequenceof@Vx509_Extension@JONAH@@@JONAH@@UAEHI@Z
      12165 11D3 0049FDD0 ?delete_child@?$asn_sequenceof@Vx509_certificate@JONAH@@@JONAH@@UAEHI@Z
      12166 11D4 0049E380 ?delete_child@?$asn_setof@VAlgorithmIdentifier@JONAH@@@JONAH@@UAEHI@Z
      12167 11D5 0049E380 ?delete_child@?$asn_setof@VAliasWithTag@JONAH@@@JONAH@@UAEHI@Z
      12168 11D6 0049E380 ?delete_child@?$asn_setof@VAttribute@JONAH@@@JONAH@@UAEHI@Z
      12169 11D7 0049E380 ?delete_child@?$asn_setof@VCertificateList@JONAH@@@JONAH@@UAEHI@Z
      12170 11D8 0049E380 ?delete_child@?$asn_setof@VHostIdMappingValue@JONAH@@@JONAH@@UAEHI@Z
      12171 11D9 0049E380 ?delete_child@?$asn_setof@VSignerInfo@JONAH@@@JONAH@@UAEHI@Z
      12172 11DA 0049E380 ?delete_child@?$asn_setof@Vasn_AVA@JONAH@@@JONAH@@UAEHI@Z
      12173 11DB 0049E380 ?delete_child@?$asn_setof@Vasn_octetstring@JONAH@@@JONAH@@UAEHI@Z
      12174 11DC 0049E380 ?delete_child@?$asn_setof@Vx509_certificate@JONAH@@@JONAH@@UAEHI@Z
      12175 11DD 005C1D00 ?detach@buffer_t@JONAH@@QAEXAAPAEAAI@Z
      12176 11DE 005D6BB0 ?digittest@JONAH@@YAGAAEEDAAVbuffer_t@1@AA_N@Z
      12177 11DF 005C3910 ?display@asn_composite@JONAH@@UBEHAAVbuffer_t@2@@Z
      12178 11E0 005C32C0 ?display@asn_object@JONAH@@UBEHAAVbuffer_t@2@@Z
      12179 11E1 005C35D0 ?display@asn_oid@JONAH@@UBEHAAVbuffer_t@2@@Z
      12180 11E2 005D7AB0 ?displayIPaddress@JONAH@@YAGABVasn_octetstring@1@AAVbuffer_t@1@@Z
      12181 11E3 005C36F0 ?display_name_printable@asn_oid@JONAH@@UBEHAAVbuffer_t@2@@Z
      12182 11E4 005C34A0 ?display_printable@asn_oid@JONAH@@UBEHAAVbuffer_t@2@@Z
      12183 11E5 005C20C0 ?display_state_flags@asn_choice@JONAH@@UBEHAAVbuffer_t@2@H@Z
      12184 11E6 005C2060 ?display_state_flags@asn_composite@JONAH@@UBEHAAVbuffer_t@2@H@Z
      12185 11E7 005BDDF0 ?display_state_flags@asn_object@JONAH@@UBEHAAVbuffer_t@2@H@Z
      12186 11E8 005BE190 ?empty@asn_object@JONAH@@UAEHXZ
      12187 11E9 00497E00 ?emptyi@?$asn_sequenceof@VAttributeTypeAndValue@JONAH@@@JONAH@@MAEHXZ
      12188 11EA 00497E00 ?emptyi@?$asn_sequenceof@VCertId@JONAH@@@JONAH@@MAEHXZ
      12189 11EB 00497E00 ?emptyi@?$asn_sequenceof@VCertReqMsg@JONAH@@@JONAH@@MAEHXZ
      12190 11EC 00497E00 ?emptyi@?$asn_sequenceof@VCertResponse@JONAH@@@JONAH@@MAEHXZ
      12191 11ED 00497E00 ?emptyi@?$asn_sequenceof@VCertificateList@JONAH@@@JONAH@@MAEHXZ
      12192 11EE 00497E00 ?emptyi@?$asn_sequenceof@VCertificateRequest@JONAH@@@JONAH@@MAEHXZ
      12193 11EF 00497E00 ?emptyi@?$asn_sequenceof@VCertifiedKeyPair@JONAH@@@JONAH@@MAEHXZ
      12194 11F0 00497E00 ?emptyi@?$asn_sequenceof@VChallenge@JONAH@@@JONAH@@MAEHXZ
      12195 11F1 00497E00 ?emptyi@?$asn_sequenceof@VContentInfo@JONAH@@@JONAH@@MAEHXZ
      12196 11F2 00497E00 ?emptyi@?$asn_sequenceof@VGeneralName@JONAH@@@JONAH@@MAEHXZ
      12197 11F3 00497E00 ?emptyi@?$asn_sequenceof@VGeneralSubtree@JONAH@@@JONAH@@MAEHXZ
      12198 11F4 00497E00 ?emptyi@?$asn_sequenceof@VInfoTypeAndValue@JONAH@@@JONAH@@MAEHXZ
      12199 11F5 00497E00 ?emptyi@?$asn_sequenceof@VPKIStatusInfo@JONAH@@@JONAH@@MAEHXZ
      12200 11F6 00497E00 ?emptyi@?$asn_sequenceof@VPolicyInformation@JONAH@@@JONAH@@MAEHXZ
      12201 11F7 00497E00 ?emptyi@?$asn_sequenceof@VPolicyMapping@JONAH@@@JONAH@@MAEHXZ
      12202 11F8 00497E00 ?emptyi@?$asn_sequenceof@VPolicyQualifierInfo@JONAH@@@JONAH@@MAEHXZ
      12203 11F9 00497E00 ?emptyi@?$asn_sequenceof@VPrivateKeyInfo@JONAH@@@JONAH@@MAEHXZ
      12204 11FA 00497E00 ?emptyi@?$asn_sequenceof@VRecipientInfo@JONAH@@@JONAH@@MAEHXZ
      12205 11FB 00497E00 ?emptyi@?$asn_sequenceof@VRevDetails@JONAH@@@JONAH@@MAEHXZ
      12206 11FC 00497E00 ?emptyi@?$asn_sequenceof@VRevocationRequest@JONAH@@@JONAH@@MAEHXZ
      12207 11FD 00497E00 ?emptyi@?$asn_sequenceof@VRevokedCertificate@JONAH@@@JONAH@@MAEHXZ
      12208 11FE 00497E00 ?emptyi@?$asn_sequenceof@VSafeBag@JONAH@@@JONAH@@MAEHXZ
      12209 11FF 00497E00 ?emptyi@?$asn_sequenceof@VSinglePubInfo@JONAH@@@JONAH@@MAEHXZ
      12210 1200 00497E00 ?emptyi@?$asn_sequenceof@Vasn_RDN@JONAH@@@JONAH@@MAEHXZ
      12211 1201 00497E00 ?emptyi@?$asn_sequenceof@Vasn_UTF8String@JONAH@@@JONAH@@MAEHXZ
      12212 1202 00497E00 ?emptyi@?$asn_sequenceof@Vasn_integer@JONAH@@@JONAH@@MAEHXZ
      12213 1203 00497E00 ?emptyi@?$asn_sequenceof@Vx509_Extension@JONAH@@@JONAH@@MAEHXZ
      12214 1204 00497E00 ?emptyi@?$asn_sequenceof@Vx509_certificate@JONAH@@@JONAH@@MAEHXZ
      12215 1205 00497E00 ?emptyi@?$asn_setof@VAlgorithmIdentifier@JONAH@@@JONAH@@MAEHXZ
      12216 1206 00497E00 ?emptyi@?$asn_setof@VAliasWithTag@JONAH@@@JONAH@@MAEHXZ
      12217 1207 00497E00 ?emptyi@?$asn_setof@VAttribute@JONAH@@@JONAH@@MAEHXZ
      12218 1208 00497E00 ?emptyi@?$asn_setof@VCertificateList@JONAH@@@JONAH@@MAEHXZ
      12219 1209 00497E00 ?emptyi@?$asn_setof@VHostIdMappingValue@JONAH@@@JONAH@@MAEHXZ
      12220 120A 00497E00 ?emptyi@?$asn_setof@VSignerInfo@JONAH@@@JONAH@@MAEHXZ
      12221 120B 00497E00 ?emptyi@?$asn_setof@Vasn_AVA@JONAH@@@JONAH@@MAEHXZ
      12222 120C 00497E00 ?emptyi@?$asn_setof@Vasn_octetstring@JONAH@@@JONAH@@MAEHXZ
      12223 120D 00497E00 ?emptyi@?$asn_setof@Vx509_certificate@JONAH@@@JONAH@@MAEHXZ
      12224 120E 005BF0A0 ?emptyi@asn_composite@JONAH@@MAEHXZ
      12225 120F 001ACEA0 ?emptyi@asn_object@JONAH@@MAEHXZ
      12226 1210 005C0090 ?emptyi@asn_oid@JONAH@@MAEHXZ
      12227 1211 00495150 ?encode_value@?$asn_implicit@V?$asn_sequenceof@VGeneralName@JONAH@@@JONAH@@$01$00@JONAH@@UBEHAAVbuffer_t@2@@Z
      12228 1212 00495150 ?encode_value@?$asn_implicit@V?$asn_sequenceof@VGeneralName@JONAH@@@JONAH@@$01$01@JONAH@@UBEHAAVbuffer_t@2@@Z
      12229 1213 00495150 ?encode_value@?$asn_implicit@V?$asn_sequenceof@VGeneralName@JONAH@@@JONAH@@$01$0A@@JONAH@@UBEHAAVbuffer_t@2@@Z
      12230 1214 00495150 ?encode_value@?$asn_implicit@V?$asn_sequenceof@VGeneralSubtree@JONAH@@@JONAH@@$01$00@JONAH@@UBEHAAVbuffer_t@2@@Z
      12231 1215 00495150 ?encode_value@?$asn_implicit@V?$asn_sequenceof@VGeneralSubtree@JONAH@@@JONAH@@$01$0A@@JONAH@@UBEHAAVbuffer_t@2@@Z
      12232 1216 00495150 ?encode_value@?$asn_implicit@VAlgorithmIdentifier@JONAH@@$01$00@JONAH@@UBEHAAVbuffer_t@2@@Z
      12233 1217 00495150 ?encode_value@?$asn_implicit@VAlgorithmIdentifier@JONAH@@$01$01@JONAH@@UBEHAAVbuffer_t@2@@Z
      12234 1218 00495150 ?encode_value@?$asn_implicit@VAlgorithmIdentifier@JONAH@@$01$02@JONAH@@UBEHAAVbuffer_t@2@@Z
      12235 1219 00495150 ?encode_value@?$asn_implicit@VAlgorithmIdentifier@JONAH@@$01$0A@@JONAH@@UBEHAAVbuffer_t@2@@Z
      12236 121A 00495150 ?encode_value@?$asn_implicit@VAttributes@JONAH@@$01$00@JONAH@@UBEHAAVbuffer_t@2@@Z
      12237 121B 00495150 ?encode_value@?$asn_implicit@VAttributes@JONAH@@$01$0A@@JONAH@@UBEHAAVbuffer_t@2@@Z
      12238 121C 00495150 ?encode_value@?$asn_implicit@VCertRevocationLists@JONAH@@$01$00@JONAH@@UBEHAAVbuffer_t@2@@Z
      12239 121D 00495150 ?encode_value@?$asn_implicit@VEDIPartyName@JONAH@@$01$04@JONAH@@UBEHAAVbuffer_t@2@@Z
      12240 121E 00495150 ?encode_value@?$asn_implicit@VExtendedCertsAndCertificates@JONAH@@$01$0A@@JONAH@@UBEHAAVbuffer_t@2@@Z
      12241 121F 00495150 ?encode_value@?$asn_implicit@VOptionalValidity@JONAH@@$01$03@JONAH@@UBEHAAVbuffer_t@2@@Z
      12242 1220 00495150 ?encode_value@?$asn_implicit@VPOPOSigningKey@JONAH@@$01$00@JONAH@@UBEHAAVbuffer_t@2@@Z
      12243 1221 00495150 ?encode_value@?$asn_implicit@VPOPOSigningKeyInput@JONAH@@$01$0A@@JONAH@@UBEHAAVbuffer_t@2@@Z
      12244 1222 00495150 ?encode_value@?$asn_implicit@VReasonFlags@JONAH@@$01$00@JONAH@@UBEHAAVbuffer_t@2@@Z
      12245 1223 00495150 ?encode_value@?$asn_implicit@VReasonFlags@JONAH@@$01$02@JONAH@@UBEHAAVbuffer_t@2@@Z
      12246 1224 00495150 ?encode_value@?$asn_implicit@VSubjectPublicKeyInfo@JONAH@@$01$05@JONAH@@UBEHAAVbuffer_t@2@@Z
      12247 1225 00495150 ?encode_value@?$asn_implicit@Vasn_RDN@JONAH@@$01$00@JONAH@@UBEHAAVbuffer_t@2@@Z
      12248 1226 00495150 ?encode_value@?$asn_implicit@Vasn_bitstring@JONAH@@$01$00@JONAH@@UBEHAAVbuffer_t@2@@Z
      12249 1227 00495150 ?encode_value@?$asn_implicit@Vasn_bitstring@JONAH@@$01$01@JONAH@@UBEHAAVbuffer_t@2@@Z
      12250 1228 00495150 ?encode_value@?$asn_implicit@Vasn_bitstring@JONAH@@$01$06@JONAH@@UBEHAAVbuffer_t@2@@Z
      12251 1229 00495150 ?encode_value@?$asn_implicit@Vasn_bitstring@JONAH@@$01$07@JONAH@@UBEHAAVbuffer_t@2@@Z
      12252 122A 00495150 ?encode_value@?$asn_implicit@Vasn_boolean@JONAH@@$01$00@JONAH@@UBEHAAVbuffer_t@2@@Z
      12253 122B 00495150 ?encode_value@?$asn_implicit@Vasn_boolean@JONAH@@$01$01@JONAH@@UBEHAAVbuffer_t@2@@Z
      12254 122C 00495150 ?encode_value@?$asn_implicit@Vasn_boolean@JONAH@@$01$03@JONAH@@UBEHAAVbuffer_t@2@@Z
      12255 122D 00495150 ?encode_value@?$asn_implicit@Vasn_generalizedtime@JONAH@@$01$00@JONAH@@UBEHAAVbuffer_t@2@@Z
      12256 122E 00495150 ?encode_value@?$asn_implicit@Vasn_generalizedtime@JONAH@@$01$0A@@JONAH@@UBEHAAVbuffer_t@2@@Z
      12257 122F 00495150 ?encode_value@?$asn_implicit@Vasn_ia5String@JONAH@@$01$00@JONAH@@UBEHAAVbuffer_t@2@@Z
      12258 1230 00495150 ?encode_value@?$asn_implicit@Vasn_ia5String@JONAH@@$01$01@JONAH@@UBEHAAVbuffer_t@2@@Z
      12259 1231 00495150 ?encode_value@?$asn_implicit@Vasn_ia5String@JONAH@@$01$05@JONAH@@UBEHAAVbuffer_t@2@@Z
      12260 1232 00495150 ?encode_value@?$asn_implicit@Vasn_integer@JONAH@@$01$00@JONAH@@UBEHAAVbuffer_t@2@@Z
      12261 1233 00495150 ?encode_value@?$asn_implicit@Vasn_integer@JONAH@@$01$01@JONAH@@UBEHAAVbuffer_t@2@@Z
      12262 1234 00495150 ?encode_value@?$asn_implicit@Vasn_integer@JONAH@@$01$0A@@JONAH@@UBEHAAVbuffer_t@2@@Z
      12263 1235 00495150 ?encode_value@?$asn_implicit@Vasn_null@JONAH@@$01$0A@@JONAH@@UBEHAAVbuffer_t@2@@Z
      12264 1236 00495150 ?encode_value@?$asn_implicit@Vasn_octetstring@JONAH@@$01$03@JONAH@@UBEHAAVbuffer_t@2@@Z
      12265 1237 00495150 ?encode_value@?$asn_implicit@Vasn_octetstring@JONAH@@$01$06@JONAH@@UBEHAAVbuffer_t@2@@Z
      12266 1238 00495150 ?encode_value@?$asn_implicit@Vasn_octetstring@JONAH@@$01$0A@@JONAH@@UBEHAAVbuffer_t@2@@Z
      12267 1239 00495150 ?encode_value@?$asn_implicit@Vasn_oid@JONAH@@$01$07@JONAH@@UBEHAAVbuffer_t@2@@Z
      12268 123A 00495150 ?encode_value@?$asn_implicit@Vx509_Extensions@JONAH@@$01$08@JONAH@@UBEHAAVbuffer_t@2@@Z
      12269 123B 005C0F00 ?encode_value@asn_any@JONAH@@UBEHAAVbuffer_t@2@@Z
      12270 123C 005BF460 ?encode_value@asn_bitstring@JONAH@@UBEHAAVbuffer_t@2@@Z
      12271 123D 005BFDD0 ?encode_value@asn_boolean@JONAH@@UBEHAAVbuffer_t@2@@Z
      12272 123E 005C0990 ?encode_value@asn_choice@JONAH@@UBEHAAVbuffer_t@2@@Z
      12273 123F 005BECE0 ?encode_value@asn_integer@JONAH@@UBEHAAVbuffer_t@2@@Z
      12274 1240 008D8AA0 ?encode_value@asn_nothing@JONAH@@UBEHAAVbuffer_t@2@@Z
      12275 1241 008D8AA0 ?encode_value@asn_null@JONAH@@UBEHAAVbuffer_t@2@@Z
      12276 1242 005BFEE0 ?encode_value@asn_octetstring@JONAH@@UBEHAAVbuffer_t@2@@Z
      12277 1243 005C0210 ?encode_value@asn_oid@JONAH@@UBEHAAVbuffer_t@2@@Z
      12278 1244 005C06A0 ?encode_value@asn_sequence@JONAH@@UBEHAAVbuffer_t@2@@Z
      12279 1245 005C06F0 ?encode_value@asn_sorted@JONAH@@UBEHAAVbuffer_t@2@@Z
      12280 1246 00582E40 ?encoding_constructed_permitted@?$asn_implicit@V?$asn_sequenceof@VGeneralName@JONAH@@@JONAH@@$01$00@JONAH@@UBE_NXZ
      12281 1247 00582E40 ?encoding_constructed_permitted@?$asn_implicit@V?$asn_sequenceof@VGeneralName@JONAH@@@JONAH@@$01$01@JONAH@@UBE_NXZ
      12282 1248 00582E40 ?encoding_constructed_permitted@?$asn_implicit@V?$asn_sequenceof@VGeneralName@JONAH@@@JONAH@@$01$0A@@JONAH@@UBE_NXZ
      12283 1249 00582E40 ?encoding_constructed_permitted@?$asn_implicit@V?$asn_sequenceof@VGeneralSubtree@JONAH@@@JONAH@@$01$00@JONAH@@UBE_NXZ
      12284 124A 00582E40 ?encoding_constructed_permitted@?$asn_implicit@V?$asn_sequenceof@VGeneralSubtree@JONAH@@@JONAH@@$01$0A@@JONAH@@UBE_NXZ
      12285 124B 00582E40 ?encoding_constructed_permitted@?$asn_implicit@VAlgorithmIdentifier@JONAH@@$01$00@JONAH@@UBE_NXZ
      12286 124C 00582E40 ?encoding_constructed_permitted@?$asn_implicit@VAlgorithmIdentifier@JONAH@@$01$01@JONAH@@UBE_NXZ
      12287 124D 00582E40 ?encoding_constructed_permitted@?$asn_implicit@VAlgorithmIdentifier@JONAH@@$01$02@JONAH@@UBE_NXZ
      12288 124E 00582E40 ?encoding_constructed_permitted@?$asn_implicit@VAlgorithmIdentifier@JONAH@@$01$0A@@JONAH@@UBE_NXZ
      12289 124F 00582E40 ?encoding_constructed_permitted@?$asn_implicit@VAttributes@JONAH@@$01$00@JONAH@@UBE_NXZ
      12290 1250 00582E40 ?encoding_constructed_permitted@?$asn_implicit@VAttributes@JONAH@@$01$0A@@JONAH@@UBE_NXZ
      12291 1251 00582E40 ?encoding_constructed_permitted@?$asn_implicit@VCertRevocationLists@JONAH@@$01$00@JONAH@@UBE_NXZ
      12292 1252 00582E40 ?encoding_constructed_permitted@?$asn_implicit@VEDIPartyName@JONAH@@$01$04@JONAH@@UBE_NXZ
      12293 1253 00582E40 ?encoding_constructed_permitted@?$asn_implicit@VExtendedCertsAndCertificates@JONAH@@$01$0A@@JONAH@@UBE_NXZ
      12294 1254 00582E40 ?encoding_constructed_permitted@?$asn_implicit@VOptionalValidity@JONAH@@$01$03@JONAH@@UBE_NXZ
      12295 1255 00582E40 ?encoding_constructed_permitted@?$asn_implicit@VPOPOSigningKey@JONAH@@$01$00@JONAH@@UBE_NXZ
      12296 1256 00582E40 ?encoding_constructed_permitted@?$asn_implicit@VPOPOSigningKeyInput@JONAH@@$01$0A@@JONAH@@UBE_NXZ
      12297 1257 00582E40 ?encoding_constructed_permitted@?$asn_implicit@VReasonFlags@JONAH@@$01$00@JONAH@@UBE_NXZ
      12298 1258 00582E40 ?encoding_constructed_permitted@?$asn_implicit@VReasonFlags@JONAH@@$01$02@JONAH@@UBE_NXZ
      12299 1259 00582E40 ?encoding_constructed_permitted@?$asn_implicit@VSubjectPublicKeyInfo@JONAH@@$01$05@JONAH@@UBE_NXZ
      12300 125A 00582E40 ?encoding_constructed_permitted@?$asn_implicit@Vasn_RDN@JONAH@@$01$00@JONAH@@UBE_NXZ
      12301 125B 00582E40 ?encoding_constructed_permitted@?$asn_implicit@Vasn_bitstring@JONAH@@$01$00@JONAH@@UBE_NXZ
      12302 125C 00582E40 ?encoding_constructed_permitted@?$asn_implicit@Vasn_bitstring@JONAH@@$01$01@JONAH@@UBE_NXZ
      12303 125D 00582E40 ?encoding_constructed_permitted@?$asn_implicit@Vasn_bitstring@JONAH@@$01$06@JONAH@@UBE_NXZ
      12304 125E 00582E40 ?encoding_constructed_permitted@?$asn_implicit@Vasn_bitstring@JONAH@@$01$07@JONAH@@UBE_NXZ
      12305 125F 00582E40 ?encoding_constructed_permitted@?$asn_implicit@Vasn_boolean@JONAH@@$01$00@JONAH@@UBE_NXZ
      12306 1260 00582E40 ?encoding_constructed_permitted@?$asn_implicit@Vasn_boolean@JONAH@@$01$01@JONAH@@UBE_NXZ
      12307 1261 00582E40 ?encoding_constructed_permitted@?$asn_implicit@Vasn_boolean@JONAH@@$01$03@JONAH@@UBE_NXZ
      12308 1262 00582E40 ?encoding_constructed_permitted@?$asn_implicit@Vasn_generalizedtime@JONAH@@$01$00@JONAH@@UBE_NXZ
      12309 1263 00582E40 ?encoding_constructed_permitted@?$asn_implicit@Vasn_generalizedtime@JONAH@@$01$0A@@JONAH@@UBE_NXZ
      12310 1264 00582E40 ?encoding_constructed_permitted@?$asn_implicit@Vasn_ia5String@JONAH@@$01$00@JONAH@@UBE_NXZ
      12311 1265 00582E40 ?encoding_constructed_permitted@?$asn_implicit@Vasn_ia5String@JONAH@@$01$01@JONAH@@UBE_NXZ
      12312 1266 00582E40 ?encoding_constructed_permitted@?$asn_implicit@Vasn_ia5String@JONAH@@$01$05@JONAH@@UBE_NXZ
      12313 1267 00582E40 ?encoding_constructed_permitted@?$asn_implicit@Vasn_integer@JONAH@@$01$00@JONAH@@UBE_NXZ
      12314 1268 00582E40 ?encoding_constructed_permitted@?$asn_implicit@Vasn_integer@JONAH@@$01$01@JONAH@@UBE_NXZ
      12315 1269 00582E40 ?encoding_constructed_permitted@?$asn_implicit@Vasn_integer@JONAH@@$01$0A@@JONAH@@UBE_NXZ
      12316 126A 00582E40 ?encoding_constructed_permitted@?$asn_implicit@Vasn_null@JONAH@@$01$0A@@JONAH@@UBE_NXZ
      12317 126B 00582E40 ?encoding_constructed_permitted@?$asn_implicit@Vasn_octetstring@JONAH@@$01$03@JONAH@@UBE_NXZ
      12318 126C 00582E40 ?encoding_constructed_permitted@?$asn_implicit@Vasn_octetstring@JONAH@@$01$06@JONAH@@UBE_NXZ
      12319 126D 00582E40 ?encoding_constructed_permitted@?$asn_implicit@Vasn_octetstring@JONAH@@$01$0A@@JONAH@@UBE_NXZ
      12320 126E 00582E40 ?encoding_constructed_permitted@?$asn_implicit@Vasn_oid@JONAH@@$01$07@JONAH@@UBE_NXZ
      12321 126F 00582E40 ?encoding_constructed_permitted@?$asn_implicit@Vx509_Extensions@JONAH@@$01$08@JONAH@@UBE_NXZ
      12322 1270 0048CA80 ?encoding_constructed_permitted@asn_object@JONAH@@UBE_NXZ
      12323 1271 00496BF0 ?encoding_indefinite_permitted@?$asn_implicit@V?$asn_sequenceof@VGeneralName@JONAH@@@JONAH@@$01$00@JONAH@@UBE_NXZ
      12324 1272 00496BF0 ?encoding_indefinite_permitted@?$asn_implicit@V?$asn_sequenceof@VGeneralName@JONAH@@@JONAH@@$01$01@JONAH@@UBE_NXZ
      12325 1273 00496BF0 ?encoding_indefinite_permitted@?$asn_implicit@V?$asn_sequenceof@VGeneralName@JONAH@@@JONAH@@$01$0A@@JONAH@@UBE_NXZ
      12326 1274 00496BF0 ?encoding_indefinite_permitted@?$asn_implicit@V?$asn_sequenceof@VGeneralSubtree@JONAH@@@JONAH@@$01$00@JONAH@@UBE_NXZ
      12327 1275 00496BF0 ?encoding_indefinite_permitted@?$asn_implicit@V?$asn_sequenceof@VGeneralSubtree@JONAH@@@JONAH@@$01$0A@@JONAH@@UBE_NXZ
      12328 1276 00496BF0 ?encoding_indefinite_permitted@?$asn_implicit@VAlgorithmIdentifier@JONAH@@$01$00@JONAH@@UBE_NXZ
      12329 1277 00496BF0 ?encoding_indefinite_permitted@?$asn_implicit@VAlgorithmIdentifier@JONAH@@$01$01@JONAH@@UBE_NXZ
      12330 1278 00496BF0 ?encoding_indefinite_permitted@?$asn_implicit@VAlgorithmIdentifier@JONAH@@$01$02@JONAH@@UBE_NXZ
      12331 1279 00496BF0 ?encoding_indefinite_permitted@?$asn_implicit@VAlgorithmIdentifier@JONAH@@$01$0A@@JONAH@@UBE_NXZ
      12332 127A 00496BF0 ?encoding_indefinite_permitted@?$asn_implicit@VAttributes@JONAH@@$01$00@JONAH@@UBE_NXZ
      12333 127B 00496BF0 ?encoding_indefinite_permitted@?$asn_implicit@VAttributes@JONAH@@$01$0A@@JONAH@@UBE_NXZ
      12334 127C 00496BF0 ?encoding_indefinite_permitted@?$asn_implicit@VCertRevocationLists@JONAH@@$01$00@JONAH@@UBE_NXZ
      12335 127D 00496BF0 ?encoding_indefinite_permitted@?$asn_implicit@VEDIPartyName@JONAH@@$01$04@JONAH@@UBE_NXZ
      12336 127E 00496BF0 ?encoding_indefinite_permitted@?$asn_implicit@VExtendedCertsAndCertificates@JONAH@@$01$0A@@JONAH@@UBE_NXZ
      12337 127F 00496BF0 ?encoding_indefinite_permitted@?$asn_implicit@VOptionalValidity@JONAH@@$01$03@JONAH@@UBE_NXZ
      12338 1280 00496BF0 ?encoding_indefinite_permitted@?$asn_implicit@VPOPOSigningKey@JONAH@@$01$00@JONAH@@UBE_NXZ
      12339 1281 00496BF0 ?encoding_indefinite_permitted@?$asn_implicit@VPOPOSigningKeyInput@JONAH@@$01$0A@@JONAH@@UBE_NXZ
      12340 1282 00496BF0 ?encoding_indefinite_permitted@?$asn_implicit@VReasonFlags@JONAH@@$01$00@JONAH@@UBE_NXZ
      12341 1283 00496BF0 ?encoding_indefinite_permitted@?$asn_implicit@VReasonFlags@JONAH@@$01$02@JONAH@@UBE_NXZ
      12342 1284 00496BF0 ?encoding_indefinite_permitted@?$asn_implicit@VSubjectPublicKeyInfo@JONAH@@$01$05@JONAH@@UBE_NXZ
      12343 1285 00496BF0 ?encoding_indefinite_permitted@?$asn_implicit@Vasn_RDN@JONAH@@$01$00@JONAH@@UBE_NXZ
      12344 1286 00496BF0 ?encoding_indefinite_permitted@?$asn_implicit@Vasn_bitstring@JONAH@@$01$00@JONAH@@UBE_NXZ
      12345 1287 00496BF0 ?encoding_indefinite_permitted@?$asn_implicit@Vasn_bitstring@JONAH@@$01$01@JONAH@@UBE_NXZ
      12346 1288 00496BF0 ?encoding_indefinite_permitted@?$asn_implicit@Vasn_bitstring@JONAH@@$01$06@JONAH@@UBE_NXZ
      12347 1289 00496BF0 ?encoding_indefinite_permitted@?$asn_implicit@Vasn_bitstring@JONAH@@$01$07@JONAH@@UBE_NXZ
      12348 128A 00496BF0 ?encoding_indefinite_permitted@?$asn_implicit@Vasn_boolean@JONAH@@$01$00@JONAH@@UBE_NXZ
      12349 128B 00496BF0 ?encoding_indefinite_permitted@?$asn_implicit@Vasn_boolean@JONAH@@$01$01@JONAH@@UBE_NXZ
      12350 128C 00496BF0 ?encoding_indefinite_permitted@?$asn_implicit@Vasn_boolean@JONAH@@$01$03@JONAH@@UBE_NXZ
      12351 128D 00496BF0 ?encoding_indefinite_permitted@?$asn_implicit@Vasn_generalizedtime@JONAH@@$01$00@JONAH@@UBE_NXZ
      12352 128E 00496BF0 ?encoding_indefinite_permitted@?$asn_implicit@Vasn_generalizedtime@JONAH@@$01$0A@@JONAH@@UBE_NXZ
      12353 128F 00496BF0 ?encoding_indefinite_permitted@?$asn_implicit@Vasn_ia5String@JONAH@@$01$00@JONAH@@UBE_NXZ
      12354 1290 00496BF0 ?encoding_indefinite_permitted@?$asn_implicit@Vasn_ia5String@JONAH@@$01$01@JONAH@@UBE_NXZ
      12355 1291 00496BF0 ?encoding_indefinite_permitted@?$asn_implicit@Vasn_ia5String@JONAH@@$01$05@JONAH@@UBE_NXZ
      12356 1292 00496BF0 ?encoding_indefinite_permitted@?$asn_implicit@Vasn_integer@JONAH@@$01$00@JONAH@@UBE_NXZ
      12357 1293 00496BF0 ?encoding_indefinite_permitted@?$asn_implicit@Vasn_integer@JONAH@@$01$01@JONAH@@UBE_NXZ
      12358 1294 00496BF0 ?encoding_indefinite_permitted@?$asn_implicit@Vasn_integer@JONAH@@$01$0A@@JONAH@@UBE_NXZ
      12359 1295 00496BF0 ?encoding_indefinite_permitted@?$asn_implicit@Vasn_null@JONAH@@$01$0A@@JONAH@@UBE_NXZ
      12360 1296 00496BF0 ?encoding_indefinite_permitted@?$asn_implicit@Vasn_octetstring@JONAH@@$01$03@JONAH@@UBE_NXZ
      12361 1297 00496BF0 ?encoding_indefinite_permitted@?$asn_implicit@Vasn_octetstring@JONAH@@$01$06@JONAH@@UBE_NXZ
      12362 1298 00496BF0 ?encoding_indefinite_permitted@?$asn_implicit@Vasn_octetstring@JONAH@@$01$0A@@JONAH@@UBE_NXZ
      12363 1299 00496BF0 ?encoding_indefinite_permitted@?$asn_implicit@Vasn_oid@JONAH@@$01$07@JONAH@@UBE_NXZ
      12364 129A 00496BF0 ?encoding_indefinite_permitted@?$asn_implicit@Vx509_Extensions@JONAH@@$01$08@JONAH@@UBE_NXZ
      12365 129B 0048CA90 ?encoding_indefinite_permitted@asn_object@JONAH@@UBE_NXZ
      12366 129C 00494D20 ?encoding_primitive_permitted@?$asn_implicit@V?$asn_sequenceof@VGeneralName@JONAH@@@JONAH@@$01$00@JONAH@@UBE_NXZ
      12367 129D 00494D20 ?encoding_primitive_permitted@?$asn_implicit@V?$asn_sequenceof@VGeneralName@JONAH@@@JONAH@@$01$01@JONAH@@UBE_NXZ
      12368 129E 00494D20 ?encoding_primitive_permitted@?$asn_implicit@V?$asn_sequenceof@VGeneralName@JONAH@@@JONAH@@$01$0A@@JONAH@@UBE_NXZ
      12369 129F 00494D20 ?encoding_primitive_permitted@?$asn_implicit@V?$asn_sequenceof@VGeneralSubtree@JONAH@@@JONAH@@$01$00@JONAH@@UBE_NXZ
      12370 12A0 00494D20 ?encoding_primitive_permitted@?$asn_implicit@V?$asn_sequenceof@VGeneralSubtree@JONAH@@@JONAH@@$01$0A@@JONAH@@UBE_NXZ
      12371 12A1 00494D20 ?encoding_primitive_permitted@?$asn_implicit@VAlgorithmIdentifier@JONAH@@$01$00@JONAH@@UBE_NXZ
      12372 12A2 00494D20 ?encoding_primitive_permitted@?$asn_implicit@VAlgorithmIdentifier@JONAH@@$01$01@JONAH@@UBE_NXZ
      12373 12A3 00494D20 ?encoding_primitive_permitted@?$asn_implicit@VAlgorithmIdentifier@JONAH@@$01$02@JONAH@@UBE_NXZ
      12374 12A4 00494D20 ?encoding_primitive_permitted@?$asn_implicit@VAlgorithmIdentifier@JONAH@@$01$0A@@JONAH@@UBE_NXZ
      12375 12A5 00494D20 ?encoding_primitive_permitted@?$asn_implicit@VAttributes@JONAH@@$01$00@JONAH@@UBE_NXZ
      12376 12A6 00494D20 ?encoding_primitive_permitted@?$asn_implicit@VAttributes@JONAH@@$01$0A@@JONAH@@UBE_NXZ
      12377 12A7 00494D20 ?encoding_primitive_permitted@?$asn_implicit@VCertRevocationLists@JONAH@@$01$00@JONAH@@UBE_NXZ
      12378 12A8 00494D20 ?encoding_primitive_permitted@?$asn_implicit@VEDIPartyName@JONAH@@$01$04@JONAH@@UBE_NXZ
      12379 12A9 00494D20 ?encoding_primitive_permitted@?$asn_implicit@VExtendedCertsAndCertificates@JONAH@@$01$0A@@JONAH@@UBE_NXZ
      12380 12AA 00494D20 ?encoding_primitive_permitted@?$asn_implicit@VOptionalValidity@JONAH@@$01$03@JONAH@@UBE_NXZ
      12381 12AB 00494D20 ?encoding_primitive_permitted@?$asn_implicit@VPOPOSigningKey@JONAH@@$01$00@JONAH@@UBE_NXZ
      12382 12AC 00494D20 ?encoding_primitive_permitted@?$asn_implicit@VPOPOSigningKeyInput@JONAH@@$01$0A@@JONAH@@UBE_NXZ
      12383 12AD 00494D20 ?encoding_primitive_permitted@?$asn_implicit@VReasonFlags@JONAH@@$01$00@JONAH@@UBE_NXZ
      12384 12AE 00494D20 ?encoding_primitive_permitted@?$asn_implicit@VReasonFlags@JONAH@@$01$02@JONAH@@UBE_NXZ
      12385 12AF 00494D20 ?encoding_primitive_permitted@?$asn_implicit@VSubjectPublicKeyInfo@JONAH@@$01$05@JONAH@@UBE_NXZ
      12386 12B0 00494D20 ?encoding_primitive_permitted@?$asn_implicit@Vasn_RDN@JONAH@@$01$00@JONAH@@UBE_NXZ
      12387 12B1 00494D20 ?encoding_primitive_permitted@?$asn_implicit@Vasn_bitstring@JONAH@@$01$00@JONAH@@UBE_NXZ
      12388 12B2 00494D20 ?encoding_primitive_permitted@?$asn_implicit@Vasn_bitstring@JONAH@@$01$01@JONAH@@UBE_NXZ
      12389 12B3 00494D20 ?encoding_primitive_permitted@?$asn_implicit@Vasn_bitstring@JONAH@@$01$06@JONAH@@UBE_NXZ
      12390 12B4 00494D20 ?encoding_primitive_permitted@?$asn_implicit@Vasn_bitstring@JONAH@@$01$07@JONAH@@UBE_NXZ
      12391 12B5 00494D20 ?encoding_primitive_permitted@?$asn_implicit@Vasn_boolean@JONAH@@$01$00@JONAH@@UBE_NXZ
      12392 12B6 00494D20 ?encoding_primitive_permitted@?$asn_implicit@Vasn_boolean@JONAH@@$01$01@JONAH@@UBE_NXZ
      12393 12B7 00494D20 ?encoding_primitive_permitted@?$asn_implicit@Vasn_boolean@JONAH@@$01$03@JONAH@@UBE_NXZ
      12394 12B8 00494D20 ?encoding_primitive_permitted@?$asn_implicit@Vasn_generalizedtime@JONAH@@$01$00@JONAH@@UBE_NXZ
      12395 12B9 00494D20 ?encoding_primitive_permitted@?$asn_implicit@Vasn_generalizedtime@JONAH@@$01$0A@@JONAH@@UBE_NXZ
      12396 12BA 00494D20 ?encoding_primitive_permitted@?$asn_implicit@Vasn_ia5String@JONAH@@$01$00@JONAH@@UBE_NXZ
      12397 12BB 00494D20 ?encoding_primitive_permitted@?$asn_implicit@Vasn_ia5String@JONAH@@$01$01@JONAH@@UBE_NXZ
      12398 12BC 00494D20 ?encoding_primitive_permitted@?$asn_implicit@Vasn_ia5String@JONAH@@$01$05@JONAH@@UBE_NXZ
      12399 12BD 00494D20 ?encoding_primitive_permitted@?$asn_implicit@Vasn_integer@JONAH@@$01$00@JONAH@@UBE_NXZ
      12400 12BE 00494D20 ?encoding_primitive_permitted@?$asn_implicit@Vasn_integer@JONAH@@$01$01@JONAH@@UBE_NXZ
      12401 12BF 00494D20 ?encoding_primitive_permitted@?$asn_implicit@Vasn_integer@JONAH@@$01$0A@@JONAH@@UBE_NXZ
      12402 12C0 00494D20 ?encoding_primitive_permitted@?$asn_implicit@Vasn_null@JONAH@@$01$0A@@JONAH@@UBE_NXZ
      12403 12C1 00494D20 ?encoding_primitive_permitted@?$asn_implicit@Vasn_octetstring@JONAH@@$01$03@JONAH@@UBE_NXZ
      12404 12C2 00494D20 ?encoding_primitive_permitted@?$asn_implicit@Vasn_octetstring@JONAH@@$01$06@JONAH@@UBE_NXZ
      12405 12C3 00494D20 ?encoding_primitive_permitted@?$asn_implicit@Vasn_octetstring@JONAH@@$01$0A@@JONAH@@UBE_NXZ
      12406 12C4 00494D20 ?encoding_primitive_permitted@?$asn_implicit@Vasn_oid@JONAH@@$01$07@JONAH@@UBE_NXZ
      12407 12C5 00494D20 ?encoding_primitive_permitted@?$asn_implicit@Vx509_Extensions@JONAH@@$01$08@JONAH@@UBE_NXZ
      12408 12C6 0048CA70 ?encoding_primitive_permitted@asn_object@JONAH@@UBE_NXZ
      12409 12C7 005BCDC0 ?enter@jonah_base_class@JONAH@@AAEXXZ
      12410 12C8 005BCDD0 ?exit@jonah_base_class@JONAH@@AAEXXZ
      12411 12C9 005C5A00 ?extend@bigUInt@@AAEIK@Z
      12412 12CA 005BDAC0 ?extend@buffer_t@JONAH@@QAEHI@Z
      12413 12CB 005D3820 ?extract_certs_and_keys@PFX@JONAH@@QAEIPAEAAVr_buffer_t@2@P6AHPAX2H2H@Z2P6AH22HH2H@Z2@Z
      12414 12CC 005BCE90 ?free@memory_funcs_t@JONAH@@QAEXPAX@Z
      12415 12CD 005D9360 ?gen2utc@@YA?AUutcDateTime@@ABVasn_generalizedtime@JONAH@@@Z
      12416 12CE 007DA1E0 ?getDay@CTimeDate@@QAEHXZ
      12417 12CF 007DA2E0 ?getDayOfWeek@CTimeDate@@QAEHXZ
      12418 12D0 007DA570 ?getDurationInMinutes@CTimeDate@@QAEJABV1@@Z
      12419 12D1 007DA550 ?getDurationInSeconds@CTimeDate@@QAEJABV1@@Z
      12420 12D2 007A31C0 ?getEncodingAttribute@XmlReformatter@@QAEPBDXZ
      12421 12D3 003C6BA0 ?getErrorWasLogged@XmlLog@@UAEHXZ
      12422 12D4 007DA220 ?getHour@CTimeDate@@QAEHXZ
      12423 12D5 006CDAB0 ?getInputUsesSingleCharset@XmlReformatter@@QAEHXZ
      12424 12D6 0110A920 ?getInputXmlDeclCharset@XmlReformatter@@QAEPBDXZ
      12425 12D7 007A2670 ?getLMBCSLogComment@XmlLog@@UAEGPAK@Z
      12426 12D8 007A2700 ?getLMBCSLogText@XmlLog@@UAEGPAK@Z
      12427 12D9 007DA260 ?getMinute@CTimeDate@@QAEHXZ
      12428 12DA 007DA1A0 ?getMonth@CTimeDate@@QAEHXZ
      12429 12DB 007A3190 ?getOutputUsesSingleCharset@XmlReformatter@@QAEHXZ
      12430 12DC 007A3180 ?getOutputXmlDeclCharset@XmlReformatter@@QAEPBDXZ
      12431 12DD 007DA2A0 ?getSecond@CTimeDate@@QAEHXZ
      12432 12DE 007A31D0 ?getStandaloneAttribute@XmlReformatter@@QAEPBDXZ
      12433 12DF 007A31B0 ?getVersionAttribute@XmlReformatter@@QAEPBDXZ
      12434 12E0 007DA160 ?getYear@CTimeDate@@QAEHXZ
      12435 12E1 0048EBC0 ?get_RdnBigEndian@asn_x500name@JONAH@@QBE_NXZ
      12436 12E2 0048EB70 ?get_attr_value_separator@asn_x500name@JONAH@@QBEEXZ
      12437 12E3 0048EB60 ?get_ava_separator@asn_x500name@JONAH@@QBEEXZ
      12438 12E4 005BFBF0 ?get_bit@asn_namedbits@JONAH@@QBEIIAA_N@Z
      12439 12E5 005D1BE0 ?get_certs@PFX@JONAH@@QAEIAAVCertList@2@@Z
      12440 12E6 00494830 ?get_child@?$asn_sequenceof@VAttributeTypeAndValue@JONAH@@@JONAH@@QBEPAVAttributeTypeAndValue@2@I@Z
      12441 12E7 00494830 ?get_child@?$asn_sequenceof@VCertId@JONAH@@@JONAH@@QBEPAVCertId@2@I@Z
      12442 12E8 00494830 ?get_child@?$asn_sequenceof@VCertReqMsg@JONAH@@@JONAH@@QBEPAVCertReqMsg@2@I@Z
      12443 12E9 00494830 ?get_child@?$asn_sequenceof@VCertResponse@JONAH@@@JONAH@@QBEPAVCertResponse@2@I@Z
      12444 12EA 00494830 ?get_child@?$asn_sequenceof@VCertificateList@JONAH@@@JONAH@@QBEPAVCertificateList@2@I@Z
      12445 12EB 00494830 ?get_child@?$asn_sequenceof@VCertificateRequest@JONAH@@@JONAH@@QBEPAVCertificateRequest@2@I@Z
      12446 12EC 00494830 ?get_child@?$asn_sequenceof@VCertifiedKeyPair@JONAH@@@JONAH@@QBEPAVCertifiedKeyPair@2@I@Z
      12447 12ED 00494830 ?get_child@?$asn_sequenceof@VChallenge@JONAH@@@JONAH@@QBEPAVChallenge@2@I@Z
      12448 12EE 00494830 ?get_child@?$asn_sequenceof@VContentInfo@JONAH@@@JONAH@@QBEPAVContentInfo@2@I@Z
      12449 12EF 00494830 ?get_child@?$asn_sequenceof@VGeneralName@JONAH@@@JONAH@@QBEPAVGeneralName@2@I@Z
      12450 12F0 00494830 ?get_child@?$asn_sequenceof@VGeneralSubtree@JONAH@@@JONAH@@QBEPAVGeneralSubtree@2@I@Z
      12451 12F1 00494830 ?get_child@?$asn_sequenceof@VInfoTypeAndValue@JONAH@@@JONAH@@QBEPAVInfoTypeAndValue@2@I@Z
      12452 12F2 00494830 ?get_child@?$asn_sequenceof@VPKIStatusInfo@JONAH@@@JONAH@@QBEPAVPKIStatusInfo@2@I@Z
      12453 12F3 00494830 ?get_child@?$asn_sequenceof@VPolicyInformation@JONAH@@@JONAH@@QBEPAVPolicyInformation@2@I@Z
      12454 12F4 00494830 ?get_child@?$asn_sequenceof@VPolicyMapping@JONAH@@@JONAH@@QBEPAVPolicyMapping@2@I@Z
      12455 12F5 00494830 ?get_child@?$asn_sequenceof@VPolicyQualifierInfo@JONAH@@@JONAH@@QBEPAVPolicyQualifierInfo@2@I@Z
      12456 12F6 00494830 ?get_child@?$asn_sequenceof@VPrivateKeyInfo@JONAH@@@JONAH@@QBEPAVPrivateKeyInfo@2@I@Z
      12457 12F7 00494830 ?get_child@?$asn_sequenceof@VRecipientInfo@JONAH@@@JONAH@@QBEPAVRecipientInfo@2@I@Z
      12458 12F8 00494830 ?get_child@?$asn_sequenceof@VRevDetails@JONAH@@@JONAH@@QBEPAVRevDetails@2@I@Z
      12459 12F9 00494830 ?get_child@?$asn_sequenceof@VRevocationRequest@JONAH@@@JONAH@@QBEPAVRevocationRequest@2@I@Z
      12460 12FA 00494830 ?get_child@?$asn_sequenceof@VRevokedCertificate@JONAH@@@JONAH@@QBEPAVRevokedCertificate@2@I@Z
      12461 12FB 00494830 ?get_child@?$asn_sequenceof@VSafeBag@JONAH@@@JONAH@@QBEPAVSafeBag@2@I@Z
      12462 12FC 00494830 ?get_child@?$asn_sequenceof@VSinglePubInfo@JONAH@@@JONAH@@QBEPAVSinglePubInfo@2@I@Z
      12463 12FD 00494830 ?get_child@?$asn_sequenceof@Vasn_RDN@JONAH@@@JONAH@@QBEPAVasn_RDN@2@I@Z
      12464 12FE 00494830 ?get_child@?$asn_sequenceof@Vasn_UTF8String@JONAH@@@JONAH@@QBEPAVasn_UTF8String@2@I@Z
      12465 12FF 00494830 ?get_child@?$asn_sequenceof@Vasn_integer@JONAH@@@JONAH@@QBEPAVasn_integer@2@I@Z
      12466 1300 00494830 ?get_child@?$asn_sequenceof@Vx509_Extension@JONAH@@@JONAH@@QBEPAVx509_Extension@2@I@Z
      12467 1301 00494830 ?get_child@?$asn_sequenceof@Vx509_certificate@JONAH@@@JONAH@@QBEPAVx509_certificate@2@I@Z
      12468 1302 00494830 ?get_child@?$asn_setof@VAlgorithmIdentifier@JONAH@@@JONAH@@QBEPAVAlgorithmIdentifier@2@I@Z
      12469 1303 00494830 ?get_child@?$asn_setof@VAliasWithTag@JONAH@@@JONAH@@QBEPAVAliasWithTag@2@I@Z
      12470 1304 00494830 ?get_child@?$asn_setof@VAttribute@JONAH@@@JONAH@@QBEPAVAttribute@2@I@Z
      12471 1305 00494830 ?get_child@?$asn_setof@VCertificateList@JONAH@@@JONAH@@QBEPAVCertificateList@2@I@Z
      12472 1306 00494830 ?get_child@?$asn_setof@VHostIdMappingValue@JONAH@@@JONAH@@QBEPAVHostIdMappingValue@2@I@Z
      12473 1307 00494830 ?get_child@?$asn_setof@VSignerInfo@JONAH@@@JONAH@@QBEPAVSignerInfo@2@I@Z
      12474 1308 00494830 ?get_child@?$asn_setof@Vasn_AVA@JONAH@@@JONAH@@QBEPAVasn_AVA@2@I@Z
      12475 1309 00494830 ?get_child@?$asn_setof@Vasn_octetstring@JONAH@@@JONAH@@QBEPAVasn_octetstring@2@I@Z
      12476 130A 00494830 ?get_child@?$asn_setof@Vx509_certificate@JONAH@@@JONAH@@QBEPAVx509_certificate@2@I@Z
      12477 130B 005C3140 ?get_child@asn_composite@JONAH@@QBEPAVasn_object@2@I@Z
      12478 130C 00498450 ?get_child_count@?$asn_explicit@V?$asn_sequenceof@VCertificateRequest@JONAH@@@JONAH@@$01$0A@@JONAH@@UBEHXZ
      12479 130D 00498450 ?get_child_count@?$asn_explicit@V?$asn_sequenceof@VRevocationRequest@JONAH@@@JONAH@@$01$00@JONAH@@UBEHXZ
      12480 130E 00498450 ?get_child_count@?$asn_explicit@V?$asn_setof@VAliasWithTag@JONAH@@@JONAH@@$01$00@JONAH@@UBEHXZ
      12481 130F 00498450 ?get_child_count@?$asn_explicit@VAlgorithmIdentifier@JONAH@@$01$00@JONAH@@UBEHXZ
      12482 1310 00498450 ?get_child_count@?$asn_explicit@VAlgorithmIdentifier@JONAH@@$01$0A@@JONAH@@UBEHXZ
      12483 1311 00498450 ?get_child_count@?$asn_explicit@VCAKeyUpdAnnContent@JONAH@@$01$0P@@JONAH@@UBEHXZ
      12484 1312 00498450 ?get_child_count@?$asn_explicit@VCALdapPostInfo@JONAH@@$01$0A@@JONAH@@UBEHXZ
      12485 1313 00498450 ?get_child_count@?$asn_explicit@VCRLAnnContent@JONAH@@$01$00@JONAH@@UBEHXZ
      12486 1314 00498450 ?get_child_count@?$asn_explicit@VCRLAnnContent@JONAH@@$01$0BC@@JONAH@@UBEHXZ
      12487 1315 00498450 ?get_child_count@?$asn_explicit@VCertId@JONAH@@$01$00@JONAH@@UBEHXZ
      12488 1316 00498450 ?get_child_count@?$asn_explicit@VCertIds@JONAH@@$01$0A@@JONAH@@UBEHXZ
      12489 1317 00498450 ?get_child_count@?$asn_explicit@VCertRepMessage@JONAH@@$01$00@JONAH@@UBEHXZ
      12490 1318 00498450 ?get_child_count@?$asn_explicit@VCertRepMessage@JONAH@@$01$02@JONAH@@UBEHXZ
      12491 1319 00498450 ?get_child_count@?$asn_explicit@VCertRepMessage@JONAH@@$01$07@JONAH@@UBEHXZ
      12492 131A 00498450 ?get_child_count@?$asn_explicit@VCertRepMessage@JONAH@@$01$0O@@JONAH@@UBEHXZ
      12493 131B 00498450 ?get_child_count@?$asn_explicit@VCertReqMessages@JONAH@@$01$01@JONAH@@UBEHXZ
      12494 131C 00498450 ?get_child_count@?$asn_explicit@VCertReqMessages@JONAH@@$01$06@JONAH@@UBEHXZ
      12495 131D 00498450 ?get_child_count@?$asn_explicit@VCertReqMessages@JONAH@@$01$08@JONAH@@UBEHXZ
      12496 131E 00498450 ?get_child_count@?$asn_explicit@VCertReqMessages@JONAH@@$01$0A@@JONAH@@UBEHXZ
      12497 131F 00498450 ?get_child_count@?$asn_explicit@VCertReqMessages@JONAH@@$01$0N@@JONAH@@UBEHXZ
      12498 1320 00498450 ?get_child_count@?$asn_explicit@VCertificates@JONAH@@$01$00@JONAH@@UBEHXZ
      12499 1321 00498450 ?get_child_count@?$asn_explicit@VCertificationRequest@JONAH@@$01$03@JONAH@@UBEHXZ
      12500 1322 00498450 ?get_child_count@?$asn_explicit@VCertifiedKeyPairs@JONAH@@$01$01@JONAH@@UBEHXZ
      12501 1323 00498450 ?get_child_count@?$asn_explicit@VContent@JONAH@@$01$0A@@JONAH@@UBEHXZ
      12502 1324 00498450 ?get_child_count@?$asn_explicit@VDistributionPointName@JONAH@@$01$0A@@JONAH@@UBEHXZ
      12503 1325 00498450 ?get_child_count@?$asn_explicit@VEncryptedKey@JONAH@@$01$0A@@JONAH@@UBEHXZ
      12504 1326 00498450 ?get_child_count@?$asn_explicit@VEncryptedValue@JONAH@@$01$00@JONAH@@UBEHXZ
      12505 1327 00498450 ?get_child_count@?$asn_explicit@VEncryptedValue@JONAH@@$01$0A@@JONAH@@UBEHXZ
      12506 1328 00498450 ?get_child_count@?$asn_explicit@VEnvelopedData@JONAH@@$01$0A@@JONAH@@UBEHXZ
      12507 1329 00498450 ?get_child_count@?$asn_explicit@VErrorMsgContent@JONAH@@$01$0BH@@JONAH@@UBEHXZ
      12508 132A 00498450 ?get_child_count@?$asn_explicit@VGeneralName@JONAH@@$01$0A@@JONAH@@UBEHXZ
      12509 132B 00498450 ?get_child_count@?$asn_explicit@VInfoTypesAndValues@JONAH@@$01$07@JONAH@@UBEHXZ
      12510 132C 00498450 ?get_child_count@?$asn_explicit@VInfoTypesAndValues@JONAH@@$01$0BF@@JONAH@@UBEHXZ
      12511 132D 00498450 ?get_child_count@?$asn_explicit@VInfoTypesAndValues@JONAH@@$01$0BG@@JONAH@@UBEHXZ
      12512 132E 00498450 ?get_child_count@?$asn_explicit@VJonahTime@JONAH@@$01$00@JONAH@@UBEHXZ
      12513 132F 00498450 ?get_child_count@?$asn_explicit@VJonahTime@JONAH@@$01$0A@@JONAH@@UBEHXZ
      12514 1330 00498450 ?get_child_count@?$asn_explicit@VKeyRecRepContent@JONAH@@$01$09@JONAH@@UBEHXZ
      12515 1331 00498450 ?get_child_count@?$asn_explicit@VNotesLicenseExt@JONAH@@$01$00@JONAH@@UBEHXZ
      12516 1332 00498450 ?get_child_count@?$asn_explicit@VPKIFreeText@JONAH@@$01$06@JONAH@@UBEHXZ
      12517 1333 00498450 ?get_child_count@?$asn_explicit@VPKIPublicationInfo@JONAH@@$01$00@JONAH@@UBEHXZ
      12518 1334 00498450 ?get_child_count@?$asn_explicit@VPOPODecKeyChallContent@JONAH@@$01$04@JONAH@@UBEHXZ
      12519 1335 00498450 ?get_child_count@?$asn_explicit@VPOPODecKeyRespContent@JONAH@@$01$05@JONAH@@UBEHXZ
      12520 1336 00498450 ?get_child_count@?$asn_explicit@VPOPOPrivKey@JONAH@@$01$01@JONAH@@UBEHXZ
      12521 1337 00498450 ?get_child_count@?$asn_explicit@VPOPOPrivKey@JONAH@@$01$02@JONAH@@UBEHXZ
      12522 1338 00498450 ?get_child_count@?$asn_explicit@VRACCertPkiConfirmWarp@JONAH@@$01$02@JONAH@@UBEHXZ
      12523 1339 00498450 ?get_child_count@?$asn_explicit@VRACCertWarp@JONAH@@$01$00@JONAH@@UBEHXZ
      12524 133A 00498450 ?get_child_count@?$asn_explicit@VRevAnnContent@JONAH@@$01$0BB@@JONAH@@UBEHXZ
      12525 133B 00498450 ?get_child_count@?$asn_explicit@VRevRepContent@JONAH@@$01$0M@@JONAH@@UBEHXZ
      12526 133C 00498450 ?get_child_count@?$asn_explicit@VRevReqContent@JONAH@@$01$0L@@JONAH@@UBEHXZ
      12527 133D 00498450 ?get_child_count@?$asn_explicit@VSignedContent@JONAH@@$01$0A@@JONAH@@UBEHXZ
      12528 133E 00498450 ?get_child_count@?$asn_explicit@VSubsequentMessage@JONAH@@$01$00@JONAH@@UBEHXZ
      12529 133F 00498450 ?get_child_count@?$asn_explicit@Vasn_UTF8String@JONAH@@$01$02@JONAH@@UBEHXZ
      12530 1340 00498450 ?get_child_count@?$asn_explicit@Vasn_UTF8String@JONAH@@$01$0A@@JONAH@@UBEHXZ
      12531 1341 00498450 ?get_child_count@?$asn_explicit@Vasn_any@JONAH@@$01$01@JONAH@@UBEHXZ
      12532 1342 00498450 ?get_child_count@?$asn_explicit@Vasn_any@JONAH@@$01$03@JONAH@@UBEHXZ
      12533 1343 00498450 ?get_child_count@?$asn_explicit@Vasn_any@JONAH@@$01$0A@@JONAH@@UBEHXZ
      12534 1344 00498450 ?get_child_count@?$asn_explicit@Vasn_any@JONAH@@$01$0BE@@JONAH@@UBEHXZ
      12535 1345 00498450 ?get_child_count@?$asn_explicit@Vasn_bitstring@JONAH@@$01$01@JONAH@@UBEHXZ
      12536 1346 00498450 ?get_child_count@?$asn_explicit@Vasn_bitstring@JONAH@@$01$0A@@JONAH@@UBEHXZ
      12537 1347 00498450 ?get_child_count@?$asn_explicit@Vasn_boolean@JONAH@@$01$00@JONAH@@UBEHXZ
      12538 1348 00498450 ?get_child_count@?$asn_explicit@Vasn_boolean@JONAH@@$01$01@JONAH@@UBEHXZ
      12539 1349 00498450 ?get_child_count@?$asn_explicit@Vasn_boolean@JONAH@@$01$0A@@JONAH@@UBEHXZ
      12540 134A 00498450 ?get_child_count@?$asn_explicit@Vasn_directoryString@JONAH@@$01$00@JONAH@@UBEHXZ
      12541 134B 00498450 ?get_child_count@?$asn_explicit@Vasn_directoryString@JONAH@@$01$0A@@JONAH@@UBEHXZ
      12542 134C 00498450 ?get_child_count@?$asn_explicit@Vasn_generalizedtime@JONAH@@$01$0A@@JONAH@@UBEHXZ
      12543 134D 00498450 ?get_child_count@?$asn_explicit@Vasn_ia5String@JONAH@@$01$0A@@JONAH@@UBEHXZ
      12544 134E 00498450 ?get_child_count@?$asn_explicit@Vasn_integer@JONAH@@$01$0A@@JONAH@@UBEHXZ
      12545 134F 00498450 ?get_child_count@?$asn_explicit@Vasn_null@JONAH@@$01$0BD@@JONAH@@UBEHXZ
      12546 1350 00498450 ?get_child_count@?$asn_explicit@Vasn_octetstring@JONAH@@$01$00@JONAH@@UBEHXZ
      12547 1351 00498450 ?get_child_count@?$asn_explicit@Vasn_octetstring@JONAH@@$01$01@JONAH@@UBEHXZ
      12548 1352 00498450 ?get_child_count@?$asn_explicit@Vasn_octetstring@JONAH@@$01$02@JONAH@@UBEHXZ
      12549 1353 00498450 ?get_child_count@?$asn_explicit@Vasn_octetstring@JONAH@@$01$03@JONAH@@UBEHXZ
      12550 1354 00498450 ?get_child_count@?$asn_explicit@Vasn_octetstring@JONAH@@$01$04@JONAH@@UBEHXZ
      12551 1355 00498450 ?get_child_count@?$asn_explicit@Vasn_octetstring@JONAH@@$01$05@JONAH@@UBEHXZ
      12552 1356 00498450 ?get_child_count@?$asn_explicit@Vasn_octetstring@JONAH@@$01$0A@@JONAH@@UBEHXZ
      12553 1357 00498450 ?get_child_count@?$asn_explicit@Vasn_x500name@JONAH@@$01$02@JONAH@@UBEHXZ
      12554 1358 00498450 ?get_child_count@?$asn_explicit@Vasn_x500name@JONAH@@$01$03@JONAH@@UBEHXZ
      12555 1359 00498450 ?get_child_count@?$asn_explicit@Vasn_x500name@JONAH@@$01$04@JONAH@@UBEHXZ
      12556 135A 00498450 ?get_child_count@?$asn_explicit@Vx509_Extensions@JONAH@@$01$02@JONAH@@UBEHXZ
      12557 135B 00498450 ?get_child_count@?$asn_explicit@Vx509_Extensions@JONAH@@$01$0A@@JONAH@@UBEHXZ
      12558 135C 00498450 ?get_child_count@?$asn_explicit@Vx509_certificate@JONAH@@$01$0A@@JONAH@@UBEHXZ
      12559 135D 00498450 ?get_child_count@?$asn_explicit@Vx509_certificate@JONAH@@$01$0BA@@JONAH@@UBEHXZ
      12560 135E 00498450 ?get_child_count@?$asn_implicit@V?$asn_sequenceof@VGeneralName@JONAH@@@JONAH@@$01$00@JONAH@@UBEHXZ
      12561 135F 00498450 ?get_child_count@?$asn_implicit@V?$asn_sequenceof@VGeneralName@JONAH@@@JONAH@@$01$01@JONAH@@UBEHXZ
      12562 1360 00498450 ?get_child_count@?$asn_implicit@V?$asn_sequenceof@VGeneralName@JONAH@@@JONAH@@$01$0A@@JONAH@@UBEHXZ
      12563 1361 00498450 ?get_child_count@?$asn_implicit@V?$asn_sequenceof@VGeneralSubtree@JONAH@@@JONAH@@$01$00@JONAH@@UBEHXZ
      12564 1362 00498450 ?get_child_count@?$asn_implicit@V?$asn_sequenceof@VGeneralSubtree@JONAH@@@JONAH@@$01$0A@@JONAH@@UBEHXZ
      12565 1363 00498450 ?get_child_count@?$asn_implicit@VAlgorithmIdentifier@JONAH@@$01$00@JONAH@@UBEHXZ
      12566 1364 00498450 ?get_child_count@?$asn_implicit@VAlgorithmIdentifier@JONAH@@$01$01@JONAH@@UBEHXZ
      12567 1365 00498450 ?get_child_count@?$asn_implicit@VAlgorithmIdentifier@JONAH@@$01$02@JONAH@@UBEHXZ
      12568 1366 00498450 ?get_child_count@?$asn_implicit@VAlgorithmIdentifier@JONAH@@$01$0A@@JONAH@@UBEHXZ
      12569 1367 00498450 ?get_child_count@?$asn_implicit@VAttributes@JONAH@@$01$00@JONAH@@UBEHXZ
      12570 1368 00498450 ?get_child_count@?$asn_implicit@VAttributes@JONAH@@$01$0A@@JONAH@@UBEHXZ
      12571 1369 00498450 ?get_child_count@?$asn_implicit@VCertRevocationLists@JONAH@@$01$00@JONAH@@UBEHXZ
      12572 136A 00498450 ?get_child_count@?$asn_implicit@VEDIPartyName@JONAH@@$01$04@JONAH@@UBEHXZ
      12573 136B 00498450 ?get_child_count@?$asn_implicit@VExtendedCertsAndCertificates@JONAH@@$01$0A@@JONAH@@UBEHXZ
      12574 136C 00498450 ?get_child_count@?$asn_implicit@VOptionalValidity@JONAH@@$01$03@JONAH@@UBEHXZ
      12575 136D 00498450 ?get_child_count@?$asn_implicit@VPOPOSigningKey@JONAH@@$01$00@JONAH@@UBEHXZ
      12576 136E 00498450 ?get_child_count@?$asn_implicit@VPOPOSigningKeyInput@JONAH@@$01$0A@@JONAH@@UBEHXZ
      12577 136F 00498450 ?get_child_count@?$asn_implicit@VReasonFlags@JONAH@@$01$00@JONAH@@UBEHXZ
      12578 1370 00498450 ?get_child_count@?$asn_implicit@VReasonFlags@JONAH@@$01$02@JONAH@@UBEHXZ
      12579 1371 00498450 ?get_child_count@?$asn_implicit@VSubjectPublicKeyInfo@JONAH@@$01$05@JONAH@@UBEHXZ
      12580 1372 00498450 ?get_child_count@?$asn_implicit@Vasn_RDN@JONAH@@$01$00@JONAH@@UBEHXZ
      12581 1373 00498450 ?get_child_count@?$asn_implicit@Vasn_bitstring@JONAH@@$01$00@JONAH@@UBEHXZ
      12582 1374 00498450 ?get_child_count@?$asn_implicit@Vasn_bitstring@JONAH@@$01$01@JONAH@@UBEHXZ
      12583 1375 00498450 ?get_child_count@?$asn_implicit@Vasn_bitstring@JONAH@@$01$06@JONAH@@UBEHXZ
      12584 1376 00498450 ?get_child_count@?$asn_implicit@Vasn_bitstring@JONAH@@$01$07@JONAH@@UBEHXZ
      12585 1377 00498450 ?get_child_count@?$asn_implicit@Vasn_boolean@JONAH@@$01$00@JONAH@@UBEHXZ
      12586 1378 00498450 ?get_child_count@?$asn_implicit@Vasn_boolean@JONAH@@$01$01@JONAH@@UBEHXZ
      12587 1379 00498450 ?get_child_count@?$asn_implicit@Vasn_boolean@JONAH@@$01$03@JONAH@@UBEHXZ
      12588 137A 00498450 ?get_child_count@?$asn_implicit@Vasn_generalizedtime@JONAH@@$01$00@JONAH@@UBEHXZ
      12589 137B 00498450 ?get_child_count@?$asn_implicit@Vasn_generalizedtime@JONAH@@$01$0A@@JONAH@@UBEHXZ
      12590 137C 00498450 ?get_child_count@?$asn_implicit@Vasn_ia5String@JONAH@@$01$00@JONAH@@UBEHXZ
      12591 137D 00498450 ?get_child_count@?$asn_implicit@Vasn_ia5String@JONAH@@$01$01@JONAH@@UBEHXZ
      12592 137E 00498450 ?get_child_count@?$asn_implicit@Vasn_ia5String@JONAH@@$01$05@JONAH@@UBEHXZ
      12593 137F 00498450 ?get_child_count@?$asn_implicit@Vasn_integer@JONAH@@$01$00@JONAH@@UBEHXZ
      12594 1380 00498450 ?get_child_count@?$asn_implicit@Vasn_integer@JONAH@@$01$01@JONAH@@UBEHXZ
      12595 1381 00498450 ?get_child_count@?$asn_implicit@Vasn_integer@JONAH@@$01$0A@@JONAH@@UBEHXZ
      12596 1382 00498450 ?get_child_count@?$asn_implicit@Vasn_null@JONAH@@$01$0A@@JONAH@@UBEHXZ
      12597 1383 00498450 ?get_child_count@?$asn_implicit@Vasn_octetstring@JONAH@@$01$03@JONAH@@UBEHXZ
      12598 1384 00498450 ?get_child_count@?$asn_implicit@Vasn_octetstring@JONAH@@$01$06@JONAH@@UBEHXZ
      12599 1385 00498450 ?get_child_count@?$asn_implicit@Vasn_octetstring@JONAH@@$01$0A@@JONAH@@UBEHXZ
      12600 1386 00498450 ?get_child_count@?$asn_implicit@Vasn_oid@JONAH@@$01$07@JONAH@@UBEHXZ
      12601 1387 00498450 ?get_child_count@?$asn_implicit@Vx509_Extensions@JONAH@@$01$08@JONAH@@UBEHXZ
      12602 1388 0048CBD0 ?get_child_count@asn_composite@JONAH@@UBEHXZ
      12603 1389 0048CA00 ?get_child_count@asn_object@JONAH@@UBEHXZ
      12604 138A 00498220 ?get_child_sorted@?$asn_setof@VAlgorithmIdentifier@JONAH@@@JONAH@@QBEPAVAlgorithmIdentifier@2@I@Z
      12605 138B 00498220 ?get_child_sorted@?$asn_setof@VAliasWithTag@JONAH@@@JONAH@@QBEPAVAliasWithTag@2@I@Z
      12606 138C 00498220 ?get_child_sorted@?$asn_setof@VAttribute@JONAH@@@JONAH@@QBEPAVAttribute@2@I@Z
      12607 138D 00498220 ?get_child_sorted@?$asn_setof@VCertificateList@JONAH@@@JONAH@@QBEPAVCertificateList@2@I@Z
      12608 138E 00498220 ?get_child_sorted@?$asn_setof@VHostIdMappingValue@JONAH@@@JONAH@@QBEPAVHostIdMappingValue@2@I@Z
      12609 138F 00498220 ?get_child_sorted@?$asn_setof@VSignerInfo@JONAH@@@JONAH@@QBEPAVSignerInfo@2@I@Z
      12610 1390 00498220 ?get_child_sorted@?$asn_setof@Vasn_AVA@JONAH@@@JONAH@@QBEPAVasn_AVA@2@I@Z
      12611 1391 00498220 ?get_child_sorted@?$asn_setof@Vasn_octetstring@JONAH@@@JONAH@@QBEPAVasn_octetstring@2@I@Z
      12612 1392 00498220 ?get_child_sorted@?$asn_setof@Vx509_certificate@JONAH@@@JONAH@@QBEPAVx509_certificate@2@I@Z
      12613 1393 005BEC70 ?get_class@asn_object@JONAH@@QBEHXZ
      12614 1394 0048EBA0 ?get_close_quote_mark@asn_x500name@JONAH@@QBEEXZ
      12615 1395 005C7440 ?get_codeset@asn_charstring@JONAH@@UBEIXZ
      12616 1396 00495200 ?get_default_value@?$asn_explicit@V?$asn_sequenceof@VCertificateRequest@JONAH@@@JONAH@@$01$0A@@JONAH@@UBEPAVasn_object@2@XZ
      12617 1397 00495200 ?get_default_value@?$asn_explicit@V?$asn_sequenceof@VRevocationRequest@JONAH@@@JONAH@@$01$00@JONAH@@UBEPAVasn_object@2@XZ
      12618 1398 00495200 ?get_default_value@?$asn_explicit@V?$asn_setof@VAliasWithTag@JONAH@@@JONAH@@$01$00@JONAH@@UBEPAVasn_object@2@XZ
      12619 1399 00495200 ?get_default_value@?$asn_explicit@VAlgorithmIdentifier@JONAH@@$01$00@JONAH@@UBEPAVasn_object@2@XZ
      12620 139A 00495200 ?get_default_value@?$asn_explicit@VAlgorithmIdentifier@JONAH@@$01$0A@@JONAH@@UBEPAVasn_object@2@XZ
      12621 139B 00495200 ?get_default_value@?$asn_explicit@VCAKeyUpdAnnContent@JONAH@@$01$0P@@JONAH@@UBEPAVasn_object@2@XZ
      12622 139C 00495200 ?get_default_value@?$asn_explicit@VCALdapPostInfo@JONAH@@$01$0A@@JONAH@@UBEPAVasn_object@2@XZ
      12623 139D 00495200 ?get_default_value@?$asn_explicit@VCRLAnnContent@JONAH@@$01$00@JONAH@@UBEPAVasn_object@2@XZ
      12624 139E 00495200 ?get_default_value@?$asn_explicit@VCRLAnnContent@JONAH@@$01$0BC@@JONAH@@UBEPAVasn_object@2@XZ
      12625 139F 00495200 ?get_default_value@?$asn_explicit@VCertId@JONAH@@$01$00@JONAH@@UBEPAVasn_object@2@XZ
      12626 13A0 00495200 ?get_default_value@?$asn_explicit@VCertIds@JONAH@@$01$0A@@JONAH@@UBEPAVasn_object@2@XZ
      12627 13A1 00495200 ?get_default_value@?$asn_explicit@VCertRepMessage@JONAH@@$01$00@JONAH@@UBEPAVasn_object@2@XZ
      12628 13A2 00495200 ?get_default_value@?$asn_explicit@VCertRepMessage@JONAH@@$01$02@JONAH@@UBEPAVasn_object@2@XZ
      12629 13A3 00495200 ?get_default_value@?$asn_explicit@VCertRepMessage@JONAH@@$01$07@JONAH@@UBEPAVasn_object@2@XZ
      12630 13A4 00495200 ?get_default_value@?$asn_explicit@VCertRepMessage@JONAH@@$01$0O@@JONAH@@UBEPAVasn_object@2@XZ
      12631 13A5 00495200 ?get_default_value@?$asn_explicit@VCertReqMessages@JONAH@@$01$01@JONAH@@UBEPAVasn_object@2@XZ
      12632 13A6 00495200 ?get_default_value@?$asn_explicit@VCertReqMessages@JONAH@@$01$06@JONAH@@UBEPAVasn_object@2@XZ
      12633 13A7 00495200 ?get_default_value@?$asn_explicit@VCertReqMessages@JONAH@@$01$08@JONAH@@UBEPAVasn_object@2@XZ
      12634 13A8 00495200 ?get_default_value@?$asn_explicit@VCertReqMessages@JONAH@@$01$0A@@JONAH@@UBEPAVasn_object@2@XZ
      12635 13A9 00495200 ?get_default_value@?$asn_explicit@VCertReqMessages@JONAH@@$01$0N@@JONAH@@UBEPAVasn_object@2@XZ
      12636 13AA 00495200 ?get_default_value@?$asn_explicit@VCertificates@JONAH@@$01$00@JONAH@@UBEPAVasn_object@2@XZ
      12637 13AB 00495200 ?get_default_value@?$asn_explicit@VCertificationRequest@JONAH@@$01$03@JONAH@@UBEPAVasn_object@2@XZ
      12638 13AC 00495200 ?get_default_value@?$asn_explicit@VCertifiedKeyPairs@JONAH@@$01$01@JONAH@@UBEPAVasn_object@2@XZ
      12639 13AD 00495200 ?get_default_value@?$asn_explicit@VContent@JONAH@@$01$0A@@JONAH@@UBEPAVasn_object@2@XZ
      12640 13AE 00495200 ?get_default_value@?$asn_explicit@VDistributionPointName@JONAH@@$01$0A@@JONAH@@UBEPAVasn_object@2@XZ
      12641 13AF 00495200 ?get_default_value@?$asn_explicit@VEncryptedKey@JONAH@@$01$0A@@JONAH@@UBEPAVasn_object@2@XZ
      12642 13B0 00495200 ?get_default_value@?$asn_explicit@VEncryptedValue@JONAH@@$01$00@JONAH@@UBEPAVasn_object@2@XZ
      12643 13B1 00495200 ?get_default_value@?$asn_explicit@VEncryptedValue@JONAH@@$01$0A@@JONAH@@UBEPAVasn_object@2@XZ
      12644 13B2 00495200 ?get_default_value@?$asn_explicit@VEnvelopedData@JONAH@@$01$0A@@JONAH@@UBEPAVasn_object@2@XZ
      12645 13B3 00495200 ?get_default_value@?$asn_explicit@VErrorMsgContent@JONAH@@$01$0BH@@JONAH@@UBEPAVasn_object@2@XZ
      12646 13B4 00495200 ?get_default_value@?$asn_explicit@VGeneralName@JONAH@@$01$0A@@JONAH@@UBEPAVasn_object@2@XZ
      12647 13B5 00495200 ?get_default_value@?$asn_explicit@VInfoTypesAndValues@JONAH@@$01$07@JONAH@@UBEPAVasn_object@2@XZ
      12648 13B6 00495200 ?get_default_value@?$asn_explicit@VInfoTypesAndValues@JONAH@@$01$0BF@@JONAH@@UBEPAVasn_object@2@XZ
      12649 13B7 00495200 ?get_default_value@?$asn_explicit@VInfoTypesAndValues@JONAH@@$01$0BG@@JONAH@@UBEPAVasn_object@2@XZ
      12650 13B8 00495200 ?get_default_value@?$asn_explicit@VJonahTime@JONAH@@$01$00@JONAH@@UBEPAVasn_object@2@XZ
      12651 13B9 00495200 ?get_default_value@?$asn_explicit@VJonahTime@JONAH@@$01$0A@@JONAH@@UBEPAVasn_object@2@XZ
      12652 13BA 00495200 ?get_default_value@?$asn_explicit@VKeyRecRepContent@JONAH@@$01$09@JONAH@@UBEPAVasn_object@2@XZ
      12653 13BB 00495200 ?get_default_value@?$asn_explicit@VNotesLicenseExt@JONAH@@$01$00@JONAH@@UBEPAVasn_object@2@XZ
      12654 13BC 00495200 ?get_default_value@?$asn_explicit@VPKIFreeText@JONAH@@$01$06@JONAH@@UBEPAVasn_object@2@XZ
      12655 13BD 00495200 ?get_default_value@?$asn_explicit@VPKIPublicationInfo@JONAH@@$01$00@JONAH@@UBEPAVasn_object@2@XZ
      12656 13BE 00495200 ?get_default_value@?$asn_explicit@VPOPODecKeyChallContent@JONAH@@$01$04@JONAH@@UBEPAVasn_object@2@XZ
      12657 13BF 00495200 ?get_default_value@?$asn_explicit@VPOPODecKeyRespContent@JONAH@@$01$05@JONAH@@UBEPAVasn_object@2@XZ
      12658 13C0 00495200 ?get_default_value@?$asn_explicit@VPOPOPrivKey@JONAH@@$01$01@JONAH@@UBEPAVasn_object@2@XZ
      12659 13C1 00495200 ?get_default_value@?$asn_explicit@VPOPOPrivKey@JONAH@@$01$02@JONAH@@UBEPAVasn_object@2@XZ
      12660 13C2 00495200 ?get_default_value@?$asn_explicit@VRACCertPkiConfirmWarp@JONAH@@$01$02@JONAH@@UBEPAVasn_object@2@XZ
      12661 13C3 00495200 ?get_default_value@?$asn_explicit@VRACCertWarp@JONAH@@$01$00@JONAH@@UBEPAVasn_object@2@XZ
      12662 13C4 00495200 ?get_default_value@?$asn_explicit@VRevAnnContent@JONAH@@$01$0BB@@JONAH@@UBEPAVasn_object@2@XZ
      12663 13C5 00495200 ?get_default_value@?$asn_explicit@VRevRepContent@JONAH@@$01$0M@@JONAH@@UBEPAVasn_object@2@XZ
      12664 13C6 00495200 ?get_default_value@?$asn_explicit@VRevReqContent@JONAH@@$01$0L@@JONAH@@UBEPAVasn_object@2@XZ
      12665 13C7 00495200 ?get_default_value@?$asn_explicit@VSignedContent@JONAH@@$01$0A@@JONAH@@UBEPAVasn_object@2@XZ
      12666 13C8 00495200 ?get_default_value@?$asn_explicit@VSubsequentMessage@JONAH@@$01$00@JONAH@@UBEPAVasn_object@2@XZ
      12667 13C9 00495200 ?get_default_value@?$asn_explicit@Vasn_UTF8String@JONAH@@$01$02@JONAH@@UBEPAVasn_object@2@XZ
      12668 13CA 00495200 ?get_default_value@?$asn_explicit@Vasn_UTF8String@JONAH@@$01$0A@@JONAH@@UBEPAVasn_object@2@XZ
      12669 13CB 00495200 ?get_default_value@?$asn_explicit@Vasn_any@JONAH@@$01$01@JONAH@@UBEPAVasn_object@2@XZ
      12670 13CC 00495200 ?get_default_value@?$asn_explicit@Vasn_any@JONAH@@$01$03@JONAH@@UBEPAVasn_object@2@XZ
      12671 13CD 00495200 ?get_default_value@?$asn_explicit@Vasn_any@JONAH@@$01$0A@@JONAH@@UBEPAVasn_object@2@XZ
      12672 13CE 00495200 ?get_default_value@?$asn_explicit@Vasn_any@JONAH@@$01$0BE@@JONAH@@UBEPAVasn_object@2@XZ
      12673 13CF 00495200 ?get_default_value@?$asn_explicit@Vasn_bitstring@JONAH@@$01$01@JONAH@@UBEPAVasn_object@2@XZ
      12674 13D0 00495200 ?get_default_value@?$asn_explicit@Vasn_bitstring@JONAH@@$01$0A@@JONAH@@UBEPAVasn_object@2@XZ
      12675 13D1 00495200 ?get_default_value@?$asn_explicit@Vasn_boolean@JONAH@@$01$00@JONAH@@UBEPAVasn_object@2@XZ
      12676 13D2 00495200 ?get_default_value@?$asn_explicit@Vasn_boolean@JONAH@@$01$01@JONAH@@UBEPAVasn_object@2@XZ
      12677 13D3 00495200 ?get_default_value@?$asn_explicit@Vasn_boolean@JONAH@@$01$0A@@JONAH@@UBEPAVasn_object@2@XZ
      12678 13D4 00495200 ?get_default_value@?$asn_explicit@Vasn_directoryString@JONAH@@$01$00@JONAH@@UBEPAVasn_object@2@XZ
      12679 13D5 00495200 ?get_default_value@?$asn_explicit@Vasn_directoryString@JONAH@@$01$0A@@JONAH@@UBEPAVasn_object@2@XZ
      12680 13D6 00495200 ?get_default_value@?$asn_explicit@Vasn_generalizedtime@JONAH@@$01$0A@@JONAH@@UBEPAVasn_object@2@XZ
      12681 13D7 00495200 ?get_default_value@?$asn_explicit@Vasn_ia5String@JONAH@@$01$0A@@JONAH@@UBEPAVasn_object@2@XZ
      12682 13D8 00495200 ?get_default_value@?$asn_explicit@Vasn_integer@JONAH@@$01$0A@@JONAH@@UBEPAVasn_object@2@XZ
      12683 13D9 00495200 ?get_default_value@?$asn_explicit@Vasn_null@JONAH@@$01$0BD@@JONAH@@UBEPAVasn_object@2@XZ
      12684 13DA 00495200 ?get_default_value@?$asn_explicit@Vasn_octetstring@JONAH@@$01$00@JONAH@@UBEPAVasn_object@2@XZ
      12685 13DB 00495200 ?get_default_value@?$asn_explicit@Vasn_octetstring@JONAH@@$01$01@JONAH@@UBEPAVasn_object@2@XZ
      12686 13DC 00495200 ?get_default_value@?$asn_explicit@Vasn_octetstring@JONAH@@$01$02@JONAH@@UBEPAVasn_object@2@XZ
      12687 13DD 00495200 ?get_default_value@?$asn_explicit@Vasn_octetstring@JONAH@@$01$03@JONAH@@UBEPAVasn_object@2@XZ
      12688 13DE 00495200 ?get_default_value@?$asn_explicit@Vasn_octetstring@JONAH@@$01$04@JONAH@@UBEPAVasn_object@2@XZ
      12689 13DF 00495200 ?get_default_value@?$asn_explicit@Vasn_octetstring@JONAH@@$01$05@JONAH@@UBEPAVasn_object@2@XZ
      12690 13E0 00495200 ?get_default_value@?$asn_explicit@Vasn_octetstring@JONAH@@$01$0A@@JONAH@@UBEPAVasn_object@2@XZ
      12691 13E1 00495200 ?get_default_value@?$asn_explicit@Vasn_x500name@JONAH@@$01$02@JONAH@@UBEPAVasn_object@2@XZ
      12692 13E2 00495200 ?get_default_value@?$asn_explicit@Vasn_x500name@JONAH@@$01$03@JONAH@@UBEPAVasn_object@2@XZ
      12693 13E3 00495200 ?get_default_value@?$asn_explicit@Vasn_x500name@JONAH@@$01$04@JONAH@@UBEPAVasn_object@2@XZ
      12694 13E4 00495200 ?get_default_value@?$asn_explicit@Vx509_Extensions@JONAH@@$01$02@JONAH@@UBEPAVasn_object@2@XZ
      12695 13E5 00495200 ?get_default_value@?$asn_explicit@Vx509_Extensions@JONAH@@$01$0A@@JONAH@@UBEPAVasn_object@2@XZ
      12696 13E6 00495200 ?get_default_value@?$asn_explicit@Vx509_certificate@JONAH@@$01$0A@@JONAH@@UBEPAVasn_object@2@XZ
      12697 13E7 00495200 ?get_default_value@?$asn_explicit@Vx509_certificate@JONAH@@$01$0BA@@JONAH@@UBEPAVasn_object@2@XZ
      12698 13E8 00495200 ?get_default_value@?$asn_implicit@V?$asn_sequenceof@VGeneralName@JONAH@@@JONAH@@$01$00@JONAH@@UBEPAVasn_object@2@XZ
      12699 13E9 00495200 ?get_default_value@?$asn_implicit@V?$asn_sequenceof@VGeneralName@JONAH@@@JONAH@@$01$01@JONAH@@UBEPAVasn_object@2@XZ
      12700 13EA 00495200 ?get_default_value@?$asn_implicit@V?$asn_sequenceof@VGeneralName@JONAH@@@JONAH@@$01$0A@@JONAH@@UBEPAVasn_object@2@XZ
      12701 13EB 00495200 ?get_default_value@?$asn_implicit@V?$asn_sequenceof@VGeneralSubtree@JONAH@@@JONAH@@$01$00@JONAH@@UBEPAVasn_object@2@XZ
      12702 13EC 00495200 ?get_default_value@?$asn_implicit@V?$asn_sequenceof@VGeneralSubtree@JONAH@@@JONAH@@$01$0A@@JONAH@@UBEPAVasn_object@2@XZ
      12703 13ED 00495200 ?get_default_value@?$asn_implicit@VAlgorithmIdentifier@JONAH@@$01$00@JONAH@@UBEPAVasn_object@2@XZ
      12704 13EE 00495200 ?get_default_value@?$asn_implicit@VAlgorithmIdentifier@JONAH@@$01$01@JONAH@@UBEPAVasn_object@2@XZ
      12705 13EF 00495200 ?get_default_value@?$asn_implicit@VAlgorithmIdentifier@JONAH@@$01$02@JONAH@@UBEPAVasn_object@2@XZ
      12706 13F0 00495200 ?get_default_value@?$asn_implicit@VAlgorithmIdentifier@JONAH@@$01$0A@@JONAH@@UBEPAVasn_object@2@XZ
      12707 13F1 00495200 ?get_default_value@?$asn_implicit@VAttributes@JONAH@@$01$00@JONAH@@UBEPAVasn_object@2@XZ
      12708 13F2 00495200 ?get_default_value@?$asn_implicit@VAttributes@JONAH@@$01$0A@@JONAH@@UBEPAVasn_object@2@XZ
      12709 13F3 00495200 ?get_default_value@?$asn_implicit@VCertRevocationLists@JONAH@@$01$00@JONAH@@UBEPAVasn_object@2@XZ
      12710 13F4 00495200 ?get_default_value@?$asn_implicit@VEDIPartyName@JONAH@@$01$04@JONAH@@UBEPAVasn_object@2@XZ
      12711 13F5 00495200 ?get_default_value@?$asn_implicit@VExtendedCertsAndCertificates@JONAH@@$01$0A@@JONAH@@UBEPAVasn_object@2@XZ
      12712 13F6 00495200 ?get_default_value@?$asn_implicit@VOptionalValidity@JONAH@@$01$03@JONAH@@UBEPAVasn_object@2@XZ
      12713 13F7 00495200 ?get_default_value@?$asn_implicit@VPOPOSigningKey@JONAH@@$01$00@JONAH@@UBEPAVasn_object@2@XZ
      12714 13F8 00495200 ?get_default_value@?$asn_implicit@VPOPOSigningKeyInput@JONAH@@$01$0A@@JONAH@@UBEPAVasn_object@2@XZ
      12715 13F9 00495200 ?get_default_value@?$asn_implicit@VReasonFlags@JONAH@@$01$00@JONAH@@UBEPAVasn_object@2@XZ
      12716 13FA 00495200 ?get_default_value@?$asn_implicit@VReasonFlags@JONAH@@$01$02@JONAH@@UBEPAVasn_object@2@XZ
      12717 13FB 00495200 ?get_default_value@?$asn_implicit@VSubjectPublicKeyInfo@JONAH@@$01$05@JONAH@@UBEPAVasn_object@2@XZ
      12718 13FC 00495200 ?get_default_value@?$asn_implicit@Vasn_RDN@JONAH@@$01$00@JONAH@@UBEPAVasn_object@2@XZ
      12719 13FD 00495200 ?get_default_value@?$asn_implicit@Vasn_bitstring@JONAH@@$01$00@JONAH@@UBEPAVasn_object@2@XZ
      12720 13FE 00495200 ?get_default_value@?$asn_implicit@Vasn_bitstring@JONAH@@$01$01@JONAH@@UBEPAVasn_object@2@XZ
      12721 13FF 00495200 ?get_default_value@?$asn_implicit@Vasn_bitstring@JONAH@@$01$06@JONAH@@UBEPAVasn_object@2@XZ
      12722 1400 00495200 ?get_default_value@?$asn_implicit@Vasn_bitstring@JONAH@@$01$07@JONAH@@UBEPAVasn_object@2@XZ
      12723 1401 00495200 ?get_default_value@?$asn_implicit@Vasn_boolean@JONAH@@$01$00@JONAH@@UBEPAVasn_object@2@XZ
      12724 1402 00495200 ?get_default_value@?$asn_implicit@Vasn_boolean@JONAH@@$01$01@JONAH@@UBEPAVasn_object@2@XZ
      12725 1403 00495200 ?get_default_value@?$asn_implicit@Vasn_boolean@JONAH@@$01$03@JONAH@@UBEPAVasn_object@2@XZ
      12726 1404 00495200 ?get_default_value@?$asn_implicit@Vasn_generalizedtime@JONAH@@$01$00@JONAH@@UBEPAVasn_object@2@XZ
      12727 1405 00495200 ?get_default_value@?$asn_implicit@Vasn_generalizedtime@JONAH@@$01$0A@@JONAH@@UBEPAVasn_object@2@XZ
      12728 1406 00495200 ?get_default_value@?$asn_implicit@Vasn_ia5String@JONAH@@$01$00@JONAH@@UBEPAVasn_object@2@XZ
      12729 1407 00495200 ?get_default_value@?$asn_implicit@Vasn_ia5String@JONAH@@$01$01@JONAH@@UBEPAVasn_object@2@XZ
      12730 1408 00495200 ?get_default_value@?$asn_implicit@Vasn_ia5String@JONAH@@$01$05@JONAH@@UBEPAVasn_object@2@XZ
      12731 1409 00495200 ?get_default_value@?$asn_implicit@Vasn_integer@JONAH@@$01$00@JONAH@@UBEPAVasn_object@2@XZ
      12732 140A 00495200 ?get_default_value@?$asn_implicit@Vasn_integer@JONAH@@$01$01@JONAH@@UBEPAVasn_object@2@XZ
      12733 140B 00495200 ?get_default_value@?$asn_implicit@Vasn_integer@JONAH@@$01$0A@@JONAH@@UBEPAVasn_object@2@XZ
      12734 140C 00495200 ?get_default_value@?$asn_implicit@Vasn_null@JONAH@@$01$0A@@JONAH@@UBEPAVasn_object@2@XZ
      12735 140D 00495200 ?get_default_value@?$asn_implicit@Vasn_octetstring@JONAH@@$01$03@JONAH@@UBEPAVasn_object@2@XZ
      12736 140E 00495200 ?get_default_value@?$asn_implicit@Vasn_octetstring@JONAH@@$01$06@JONAH@@UBEPAVasn_object@2@XZ
      12737 140F 00495200 ?get_default_value@?$asn_implicit@Vasn_octetstring@JONAH@@$01$0A@@JONAH@@UBEPAVasn_object@2@XZ
      12738 1410 00495200 ?get_default_value@?$asn_implicit@Vasn_oid@JONAH@@$01$07@JONAH@@UBEPAVasn_object@2@XZ
      12739 1411 00495200 ?get_default_value@?$asn_implicit@Vx509_Extensions@JONAH@@$01$08@JONAH@@UBEPAVasn_object@2@XZ
      12740 1412 005BE1C0 ?get_default_value@asn_object@JONAH@@UBEPAV12@XZ
      12741 1413 005BF340 ?get_empty_permitted@asn_composite@JONAH@@UAE_NXZ
      12742 1414 005BEB10 ?get_encoding@asn_object@JONAH@@MBEHAAVbuffer_t@2@@Z
      12743 1415 005BEA70 ?get_encoding@asn_object@JONAH@@MBEHXZ
      12744 1416 005D1C80 ?get_keys@PFX@JONAH@@QAEIAAVKeyList@2@@Z
      12745 1417 0048EBD0 ?get_leadingRdnSeparator@asn_x500name@JONAH@@QBE_NXZ
      12746 1418 0048EBB0 ?get_oid_subident_separator@asn_x500name@JONAH@@QBEEXZ
      12747 1419 0048EB90 ?get_open_quote_mark@asn_x500name@JONAH@@QBEEXZ
      12748 141A 005BE1D0 ?get_parent@asn_object@JONAH@@QAEPBV12@XZ
      12749 141B 008D8AA0 ?get_parent@asn_x500name@JONAH@@QAEHAAV12@@Z
      12750 141C 0048EB80 ?get_quote_mark@asn_x500name@JONAH@@QBEEXZ
      12751 141D 0048EB50 ?get_rdn_separator@asn_x500name@JONAH@@QBEEXZ
      12752 141E 005BEC80 ?get_tag@asn_object@JONAH@@QBEIXZ
      12753 141F 00580240 ?get_value@Action@JONAH@@UAEHAAW4pubaction_t@2@@Z
      12754 1420 00581210 ?get_value@CaLdapPostType@JONAH@@UAEHAAW4capub_t@2@@Z
      12755 1421 005C67B0 ?get_value@JonahTime@JONAH@@QBEHAAUtagTIMEDATE@@@Z
      12756 1422 005C6A70 ?get_value@JonahTime@JONAH@@QBEHAAUutcDateTime@@@Z
      12757 1423 005C7290 ?get_value@JonahTime@JONAH@@QBEHAAV12@@Z
      12758 1424 005C69E0 ?get_value@JonahTime@JONAH@@QBEHAAVasn_generalizedtime@2@@Z
      12759 1425 00580B90 ?get_value@PKIStatus@JONAH@@UAEHAAW4pkistatus_t@2@@Z
      12760 1426 00580470 ?get_value@PubMethod@JONAH@@UAEHAAW4pubmethod_t@2@@Z
      12761 1427 00490520 ?get_value@ReasonFlags@JONAH@@UBEHAAJ@Z
      12762 1428 00580240 ?get_value@SubsequentMessage@JONAH@@UAEHAAW4submsg_t@2@@Z
      12763 1429 0048EED0 ?get_value@Version@JONAH@@UBEHAAW4x509_version_t@2@@Z
      12764 142A 0048FA10 ?get_value@XKeyUsage@JONAH@@UBEHAAJ@Z
      12765 142B 005C0F80 ?get_value@asn_UTCtime@JONAH@@QBEHAAI00000AAH1@Z
      12766 142C 005C0C30 ?get_value@asn_any@JONAH@@QBEHAAPAEAAI@Z
      12767 142D 005BF4F0 ?get_value@asn_bitstring@JONAH@@QBEHAAPAEAAI@Z
      12768 142E 005BFE50 ?get_value@asn_boolean@JONAH@@QBEHAA_N@Z
      12769 142F 005C0FD0 ?get_value@asn_generalizedtime@JONAH@@QBEHAAI000000AAH1@Z
      12770 1430 005BED30 ?get_value@asn_integer@JONAH@@QBEHAAJ@Z
      12771 1431 005BEF60 ?get_value@asn_integer@JONAH@@QBEHAAPAEAAI@Z
      12772 1432 005C4A30 ?get_value@asn_integer@JONAH@@QBEHAAV12@@Z
      12773 1433 005BFF50 ?get_value@asn_octetstring@JONAH@@QBEHAAPAEAAI@Z
      12774 1434 005C05A0 ?get_value@asn_oid@JONAH@@QBEHAAPAKAAI@Z
      12775 1435 005C5640 ?get_value@asn_oid@JONAH@@QBEHAAV12@@Z
      12776 1436 005C0540 ?get_value@asn_oid@JONAH@@QBEHAAVbuffer_t@2@@Z
      12777 1437 005B8C10 ?get_value_BMP@asn_AVA@JONAH@@QBEHAAVbuffer_t@2@@Z
      12778 1438 005B9610 ?get_value_BMP@asn_RDN@JONAH@@QBEHAAVbuffer_t@2@@Z
      12779 1439 005CB700 ?get_value_BMP@asn_charstring@JONAH@@UBEHAAVbuffer_t@2@@Z
      12780 143A 005BA820 ?get_value_BMP@asn_x500name@JONAH@@QBEHAAVbuffer_t@2@@Z
      12781 143B 005CD5E0 ?get_value_C@asn_charstring@JONAH@@UBEHAAVbuffer_t@2@D@Z
      12782 143C 005B8A30 ?get_value_IA5@asn_AVA@JONAH@@QBEHAAVbuffer_t@2@@Z
      12783 143D 005B94D0 ?get_value_IA5@asn_RDN@JONAH@@QBEHAAVbuffer_t@2@@Z
      12784 143E 005CD640 ?get_value_IA5@asn_charstring@JONAH@@UBEHAAVbuffer_t@2@@Z
      12785 143F 005BA600 ?get_value_IA5@asn_x500name@JONAH@@QBEHAAVbuffer_t@2@@Z
      12786 1440 005CB600 ?get_value_T61@asn_charstring@JONAH@@UBEHAAVbuffer_t@2@@Z
      12787 1441 005B8B20 ?get_value_UTF8@asn_AVA@JONAH@@QBEHAAVbuffer_t@2@@Z
      12788 1442 005B9570 ?get_value_UTF8@asn_RDN@JONAH@@QBEHAAVbuffer_t@2@@Z
      12789 1443 005CD680 ?get_value_UTF8@asn_charstring@JONAH@@UBEHAAVbuffer_t@2@@Z
      12790 1444 005BA710 ?get_value_UTF8@asn_x500name@JONAH@@QBEHAAVbuffer_t@2@@Z
      12791 1445 005B8DB0 ?get_value_Univ@asn_AVA@JONAH@@QBEHAAVbuffer_t@2@@Z
      12792 1446 005B96B0 ?get_value_Univ@asn_RDN@JONAH@@QBEHAAVbuffer_t@2@@Z
      12793 1447 005CD670 ?get_value_Univ@asn_charstring@JONAH@@UBEHAAVbuffer_t@2@@Z
      12794 1448 005BA950 ?get_value_Univ@asn_x500name@JONAH@@QBEHAAVbuffer_t@2@@Z
      12795 1449 005C6320 ?get_value_bigendian@bigUInt@@QBEIAAPAEAAI@Z
      12796 144A 005CD650 ?get_value_printable@asn_charstring@JONAH@@UBEHAAVbuffer_t@2@@Z
      12797 144B 005CD660 ?get_value_visible@asn_charstring@JONAH@@UBEHAAVbuffer_t@2@@Z
      12798 144C 010E6DF0 ?ijava_serverACLCheckAccessByName@@YGEPAUJNIEnv_@@PAV_jclass@@PAV_jstring@@H@Z
      12799 144D 005C5F20 ?inc@bigUInt@@QAEIXZ
      12800 144E 00316770 ?initialize@CCSMeeting@@QAGXXZ
      12801 144F 005BE680 ?invalidate_encoding@asn_object@JONAH@@MBEXXZ
      12802 1450 005C0D90 ?invalidate_value@asn_any@JONAH@@MAEXW4invalidate_t@2@@Z
      12803 1451 005BF120 ?invalidate_value@asn_composite@JONAH@@MAEXW4invalidate_t@2@@Z
      12804 1452 005BE6A0 ?invalidate_value@asn_object@JONAH@@MAEXW4invalidate_t@2@@Z
      12805 1453 005C06E0 ?invalidate_value@asn_sorted@JONAH@@MAEXW4invalidate_t@2@@Z
      12806 1454 005BCCE0 ?isSecret@JONAH@@YA_NW4security_t@1@@Z
      12807 1455 005CBD70 ?isURIReserved@JONAH@@YA_NE@Z
      12808 1456 00495130 ?is_constructed@?$asn_implicit@V?$asn_sequenceof@VGeneralName@JONAH@@@JONAH@@$01$00@JONAH@@UBE_NXZ
      12809 1457 00495130 ?is_constructed@?$asn_implicit@V?$asn_sequenceof@VGeneralName@JONAH@@@JONAH@@$01$01@JONAH@@UBE_NXZ
      12810 1458 00495130 ?is_constructed@?$asn_implicit@V?$asn_sequenceof@VGeneralName@JONAH@@@JONAH@@$01$0A@@JONAH@@UBE_NXZ
      12811 1459 00495130 ?is_constructed@?$asn_implicit@V?$asn_sequenceof@VGeneralSubtree@JONAH@@@JONAH@@$01$00@JONAH@@UBE_NXZ
      12812 145A 00495130 ?is_constructed@?$asn_implicit@V?$asn_sequenceof@VGeneralSubtree@JONAH@@@JONAH@@$01$0A@@JONAH@@UBE_NXZ
      12813 145B 00495130 ?is_constructed@?$asn_implicit@VAlgorithmIdentifier@JONAH@@$01$00@JONAH@@UBE_NXZ
      12814 145C 00495130 ?is_constructed@?$asn_implicit@VAlgorithmIdentifier@JONAH@@$01$01@JONAH@@UBE_NXZ
      12815 145D 00495130 ?is_constructed@?$asn_implicit@VAlgorithmIdentifier@JONAH@@$01$02@JONAH@@UBE_NXZ
      12816 145E 00495130 ?is_constructed@?$asn_implicit@VAlgorithmIdentifier@JONAH@@$01$0A@@JONAH@@UBE_NXZ
      12817 145F 00495130 ?is_constructed@?$asn_implicit@VAttributes@JONAH@@$01$00@JONAH@@UBE_NXZ
      12818 1460 00495130 ?is_constructed@?$asn_implicit@VAttributes@JONAH@@$01$0A@@JONAH@@UBE_NXZ
      12819 1461 00495130 ?is_constructed@?$asn_implicit@VCertRevocationLists@JONAH@@$01$00@JONAH@@UBE_NXZ
      12820 1462 00495130 ?is_constructed@?$asn_implicit@VEDIPartyName@JONAH@@$01$04@JONAH@@UBE_NXZ
      12821 1463 00495130 ?is_constructed@?$asn_implicit@VExtendedCertsAndCertificates@JONAH@@$01$0A@@JONAH@@UBE_NXZ
      12822 1464 00495130 ?is_constructed@?$asn_implicit@VOptionalValidity@JONAH@@$01$03@JONAH@@UBE_NXZ
      12823 1465 00495130 ?is_constructed@?$asn_implicit@VPOPOSigningKey@JONAH@@$01$00@JONAH@@UBE_NXZ
      12824 1466 00495130 ?is_constructed@?$asn_implicit@VPOPOSigningKeyInput@JONAH@@$01$0A@@JONAH@@UBE_NXZ
      12825 1467 00495130 ?is_constructed@?$asn_implicit@VReasonFlags@JONAH@@$01$00@JONAH@@UBE_NXZ
      12826 1468 00495130 ?is_constructed@?$asn_implicit@VReasonFlags@JONAH@@$01$02@JONAH@@UBE_NXZ
      12827 1469 00495130 ?is_constructed@?$asn_implicit@VSubjectPublicKeyInfo@JONAH@@$01$05@JONAH@@UBE_NXZ
      12828 146A 00495130 ?is_constructed@?$asn_implicit@Vasn_RDN@JONAH@@$01$00@JONAH@@UBE_NXZ
      12829 146B 00495130 ?is_constructed@?$asn_implicit@Vasn_bitstring@JONAH@@$01$00@JONAH@@UBE_NXZ
      12830 146C 00495130 ?is_constructed@?$asn_implicit@Vasn_bitstring@JONAH@@$01$01@JONAH@@UBE_NXZ
      12831 146D 00495130 ?is_constructed@?$asn_implicit@Vasn_bitstring@JONAH@@$01$06@JONAH@@UBE_NXZ
      12832 146E 00495130 ?is_constructed@?$asn_implicit@Vasn_bitstring@JONAH@@$01$07@JONAH@@UBE_NXZ
      12833 146F 00495130 ?is_constructed@?$asn_implicit@Vasn_boolean@JONAH@@$01$00@JONAH@@UBE_NXZ
      12834 1470 00495130 ?is_constructed@?$asn_implicit@Vasn_boolean@JONAH@@$01$01@JONAH@@UBE_NXZ
      12835 1471 00495130 ?is_constructed@?$asn_implicit@Vasn_boolean@JONAH@@$01$03@JONAH@@UBE_NXZ
      12836 1472 00495130 ?is_constructed@?$asn_implicit@Vasn_generalizedtime@JONAH@@$01$00@JONAH@@UBE_NXZ
      12837 1473 00495130 ?is_constructed@?$asn_implicit@Vasn_generalizedtime@JONAH@@$01$0A@@JONAH@@UBE_NXZ
      12838 1474 00495130 ?is_constructed@?$asn_implicit@Vasn_ia5String@JONAH@@$01$00@JONAH@@UBE_NXZ
      12839 1475 00495130 ?is_constructed@?$asn_implicit@Vasn_ia5String@JONAH@@$01$01@JONAH@@UBE_NXZ
      12840 1476 00495130 ?is_constructed@?$asn_implicit@Vasn_ia5String@JONAH@@$01$05@JONAH@@UBE_NXZ
      12841 1477 00495130 ?is_constructed@?$asn_implicit@Vasn_integer@JONAH@@$01$00@JONAH@@UBE_NXZ
      12842 1478 00495130 ?is_constructed@?$asn_implicit@Vasn_integer@JONAH@@$01$01@JONAH@@UBE_NXZ
      12843 1479 00495130 ?is_constructed@?$asn_implicit@Vasn_integer@JONAH@@$01$0A@@JONAH@@UBE_NXZ
      12844 147A 00495130 ?is_constructed@?$asn_implicit@Vasn_null@JONAH@@$01$0A@@JONAH@@UBE_NXZ
      12845 147B 00495130 ?is_constructed@?$asn_implicit@Vasn_octetstring@JONAH@@$01$03@JONAH@@UBE_NXZ
      12846 147C 00495130 ?is_constructed@?$asn_implicit@Vasn_octetstring@JONAH@@$01$06@JONAH@@UBE_NXZ
      12847 147D 00495130 ?is_constructed@?$asn_implicit@Vasn_octetstring@JONAH@@$01$0A@@JONAH@@UBE_NXZ
      12848 147E 00495130 ?is_constructed@?$asn_implicit@Vasn_oid@JONAH@@$01$07@JONAH@@UBE_NXZ
      12849 147F 00495130 ?is_constructed@?$asn_implicit@Vx509_Extensions@JONAH@@$01$08@JONAH@@UBE_NXZ
      12850 1480 0048CAA0 ?is_constructed@asn_object@JONAH@@UBE_NXZ
      12851 1481 005849F0 ?is_default_value@?$asn_explicit@V?$asn_sequenceof@VCertificateRequest@JONAH@@@JONAH@@$01$0A@@JONAH@@UBE_NXZ
      12852 1482 005849F0 ?is_default_value@?$asn_explicit@V?$asn_sequenceof@VRevocationRequest@JONAH@@@JONAH@@$01$00@JONAH@@UBE_NXZ
      12853 1483 005849F0 ?is_default_value@?$asn_explicit@V?$asn_setof@VAliasWithTag@JONAH@@@JONAH@@$01$00@JONAH@@UBE_NXZ
      12854 1484 005849F0 ?is_default_value@?$asn_explicit@VAlgorithmIdentifier@JONAH@@$01$00@JONAH@@UBE_NXZ
      12855 1485 005849F0 ?is_default_value@?$asn_explicit@VAlgorithmIdentifier@JONAH@@$01$0A@@JONAH@@UBE_NXZ
      12856 1486 005849F0 ?is_default_value@?$asn_explicit@VCAKeyUpdAnnContent@JONAH@@$01$0P@@JONAH@@UBE_NXZ
      12857 1487 005849F0 ?is_default_value@?$asn_explicit@VCALdapPostInfo@JONAH@@$01$0A@@JONAH@@UBE_NXZ
      12858 1488 005849F0 ?is_default_value@?$asn_explicit@VCRLAnnContent@JONAH@@$01$00@JONAH@@UBE_NXZ
      12859 1489 005849F0 ?is_default_value@?$asn_explicit@VCRLAnnContent@JONAH@@$01$0BC@@JONAH@@UBE_NXZ
      12860 148A 005849F0 ?is_default_value@?$asn_explicit@VCertId@JONAH@@$01$00@JONAH@@UBE_NXZ
      12861 148B 005849F0 ?is_default_value@?$asn_explicit@VCertIds@JONAH@@$01$0A@@JONAH@@UBE_NXZ
      12862 148C 005849F0 ?is_default_value@?$asn_explicit@VCertRepMessage@JONAH@@$01$00@JONAH@@UBE_NXZ
      12863 148D 005849F0 ?is_default_value@?$asn_explicit@VCertRepMessage@JONAH@@$01$02@JONAH@@UBE_NXZ
      12864 148E 005849F0 ?is_default_value@?$asn_explicit@VCertRepMessage@JONAH@@$01$07@JONAH@@UBE_NXZ
      12865 148F 005849F0 ?is_default_value@?$asn_explicit@VCertRepMessage@JONAH@@$01$0O@@JONAH@@UBE_NXZ
      12866 1490 005849F0 ?is_default_value@?$asn_explicit@VCertReqMessages@JONAH@@$01$01@JONAH@@UBE_NXZ
      12867 1491 005849F0 ?is_default_value@?$asn_explicit@VCertReqMessages@JONAH@@$01$06@JONAH@@UBE_NXZ
      12868 1492 005849F0 ?is_default_value@?$asn_explicit@VCertReqMessages@JONAH@@$01$08@JONAH@@UBE_NXZ
      12869 1493 005849F0 ?is_default_value@?$asn_explicit@VCertReqMessages@JONAH@@$01$0A@@JONAH@@UBE_NXZ
      12870 1494 005849F0 ?is_default_value@?$asn_explicit@VCertReqMessages@JONAH@@$01$0N@@JONAH@@UBE_NXZ
      12871 1495 005849F0 ?is_default_value@?$asn_explicit@VCertificates@JONAH@@$01$00@JONAH@@UBE_NXZ
      12872 1496 005849F0 ?is_default_value@?$asn_explicit@VCertificationRequest@JONAH@@$01$03@JONAH@@UBE_NXZ
      12873 1497 005849F0 ?is_default_value@?$asn_explicit@VCertifiedKeyPairs@JONAH@@$01$01@JONAH@@UBE_NXZ
      12874 1498 005849F0 ?is_default_value@?$asn_explicit@VContent@JONAH@@$01$0A@@JONAH@@UBE_NXZ
      12875 1499 005849F0 ?is_default_value@?$asn_explicit@VDistributionPointName@JONAH@@$01$0A@@JONAH@@UBE_NXZ
      12876 149A 005849F0 ?is_default_value@?$asn_explicit@VEncryptedKey@JONAH@@$01$0A@@JONAH@@UBE_NXZ
      12877 149B 005849F0 ?is_default_value@?$asn_explicit@VEncryptedValue@JONAH@@$01$00@JONAH@@UBE_NXZ
      12878 149C 005849F0 ?is_default_value@?$asn_explicit@VEncryptedValue@JONAH@@$01$0A@@JONAH@@UBE_NXZ
      12879 149D 005849F0 ?is_default_value@?$asn_explicit@VEnvelopedData@JONAH@@$01$0A@@JONAH@@UBE_NXZ
      12880 149E 005849F0 ?is_default_value@?$asn_explicit@VErrorMsgContent@JONAH@@$01$0BH@@JONAH@@UBE_NXZ
      12881 149F 005849F0 ?is_default_value@?$asn_explicit@VGeneralName@JONAH@@$01$0A@@JONAH@@UBE_NXZ
      12882 14A0 005849F0 ?is_default_value@?$asn_explicit@VInfoTypesAndValues@JONAH@@$01$07@JONAH@@UBE_NXZ
      12883 14A1 005849F0 ?is_default_value@?$asn_explicit@VInfoTypesAndValues@JONAH@@$01$0BF@@JONAH@@UBE_NXZ
      12884 14A2 005849F0 ?is_default_value@?$asn_explicit@VInfoTypesAndValues@JONAH@@$01$0BG@@JONAH@@UBE_NXZ
      12885 14A3 005849F0 ?is_default_value@?$asn_explicit@VJonahTime@JONAH@@$01$00@JONAH@@UBE_NXZ
      12886 14A4 005849F0 ?is_default_value@?$asn_explicit@VJonahTime@JONAH@@$01$0A@@JONAH@@UBE_NXZ
      12887 14A5 005849F0 ?is_default_value@?$asn_explicit@VKeyRecRepContent@JONAH@@$01$09@JONAH@@UBE_NXZ
      12888 14A6 005849F0 ?is_default_value@?$asn_explicit@VNotesLicenseExt@JONAH@@$01$00@JONAH@@UBE_NXZ
      12889 14A7 005849F0 ?is_default_value@?$asn_explicit@VPKIFreeText@JONAH@@$01$06@JONAH@@UBE_NXZ
      12890 14A8 005849F0 ?is_default_value@?$asn_explicit@VPKIPublicationInfo@JONAH@@$01$00@JONAH@@UBE_NXZ
      12891 14A9 005849F0 ?is_default_value@?$asn_explicit@VPOPODecKeyChallContent@JONAH@@$01$04@JONAH@@UBE_NXZ
      12892 14AA 005849F0 ?is_default_value@?$asn_explicit@VPOPODecKeyRespContent@JONAH@@$01$05@JONAH@@UBE_NXZ
      12893 14AB 005849F0 ?is_default_value@?$asn_explicit@VPOPOPrivKey@JONAH@@$01$01@JONAH@@UBE_NXZ
      12894 14AC 005849F0 ?is_default_value@?$asn_explicit@VPOPOPrivKey@JONAH@@$01$02@JONAH@@UBE_NXZ
      12895 14AD 005849F0 ?is_default_value@?$asn_explicit@VRACCertPkiConfirmWarp@JONAH@@$01$02@JONAH@@UBE_NXZ
      12896 14AE 005849F0 ?is_default_value@?$asn_explicit@VRACCertWarp@JONAH@@$01$00@JONAH@@UBE_NXZ
      12897 14AF 005849F0 ?is_default_value@?$asn_explicit@VRevAnnContent@JONAH@@$01$0BB@@JONAH@@UBE_NXZ
      12898 14B0 005849F0 ?is_default_value@?$asn_explicit@VRevRepContent@JONAH@@$01$0M@@JONAH@@UBE_NXZ
      12899 14B1 005849F0 ?is_default_value@?$asn_explicit@VRevReqContent@JONAH@@$01$0L@@JONAH@@UBE_NXZ
      12900 14B2 005849F0 ?is_default_value@?$asn_explicit@VSignedContent@JONAH@@$01$0A@@JONAH@@UBE_NXZ
      12901 14B3 005849F0 ?is_default_value@?$asn_explicit@VSubsequentMessage@JONAH@@$01$00@JONAH@@UBE_NXZ
      12902 14B4 005849F0 ?is_default_value@?$asn_explicit@Vasn_UTF8String@JONAH@@$01$02@JONAH@@UBE_NXZ
      12903 14B5 005849F0 ?is_default_value@?$asn_explicit@Vasn_UTF8String@JONAH@@$01$0A@@JONAH@@UBE_NXZ
      12904 14B6 005849F0 ?is_default_value@?$asn_explicit@Vasn_any@JONAH@@$01$01@JONAH@@UBE_NXZ
      12905 14B7 005849F0 ?is_default_value@?$asn_explicit@Vasn_any@JONAH@@$01$03@JONAH@@UBE_NXZ
      12906 14B8 005849F0 ?is_default_value@?$asn_explicit@Vasn_any@JONAH@@$01$0A@@JONAH@@UBE_NXZ
      12907 14B9 005849F0 ?is_default_value@?$asn_explicit@Vasn_any@JONAH@@$01$0BE@@JONAH@@UBE_NXZ
      12908 14BA 005849F0 ?is_default_value@?$asn_explicit@Vasn_bitstring@JONAH@@$01$01@JONAH@@UBE_NXZ
      12909 14BB 005849F0 ?is_default_value@?$asn_explicit@Vasn_bitstring@JONAH@@$01$0A@@JONAH@@UBE_NXZ
      12910 14BC 005849F0 ?is_default_value@?$asn_explicit@Vasn_boolean@JONAH@@$01$00@JONAH@@UBE_NXZ
      12911 14BD 005849F0 ?is_default_value@?$asn_explicit@Vasn_boolean@JONAH@@$01$01@JONAH@@UBE_NXZ
      12912 14BE 005849F0 ?is_default_value@?$asn_explicit@Vasn_boolean@JONAH@@$01$0A@@JONAH@@UBE_NXZ
      12913 14BF 005849F0 ?is_default_value@?$asn_explicit@Vasn_directoryString@JONAH@@$01$00@JONAH@@UBE_NXZ
      12914 14C0 005849F0 ?is_default_value@?$asn_explicit@Vasn_directoryString@JONAH@@$01$0A@@JONAH@@UBE_NXZ
      12915 14C1 005849F0 ?is_default_value@?$asn_explicit@Vasn_generalizedtime@JONAH@@$01$0A@@JONAH@@UBE_NXZ
      12916 14C2 005849F0 ?is_default_value@?$asn_explicit@Vasn_ia5String@JONAH@@$01$0A@@JONAH@@UBE_NXZ
      12917 14C3 005849F0 ?is_default_value@?$asn_explicit@Vasn_integer@JONAH@@$01$0A@@JONAH@@UBE_NXZ
      12918 14C4 005849F0 ?is_default_value@?$asn_explicit@Vasn_null@JONAH@@$01$0BD@@JONAH@@UBE_NXZ
      12919 14C5 005849F0 ?is_default_value@?$asn_explicit@Vasn_octetstring@JONAH@@$01$00@JONAH@@UBE_NXZ
      12920 14C6 005849F0 ?is_default_value@?$asn_explicit@Vasn_octetstring@JONAH@@$01$01@JONAH@@UBE_NXZ
      12921 14C7 005849F0 ?is_default_value@?$asn_explicit@Vasn_octetstring@JONAH@@$01$02@JONAH@@UBE_NXZ
      12922 14C8 005849F0 ?is_default_value@?$asn_explicit@Vasn_octetstring@JONAH@@$01$03@JONAH@@UBE_NXZ
      12923 14C9 005849F0 ?is_default_value@?$asn_explicit@Vasn_octetstring@JONAH@@$01$04@JONAH@@UBE_NXZ
      12924 14CA 005849F0 ?is_default_value@?$asn_explicit@Vasn_octetstring@JONAH@@$01$05@JONAH@@UBE_NXZ
      12925 14CB 005849F0 ?is_default_value@?$asn_explicit@Vasn_octetstring@JONAH@@$01$0A@@JONAH@@UBE_NXZ
      12926 14CC 005849F0 ?is_default_value@?$asn_explicit@Vasn_x500name@JONAH@@$01$02@JONAH@@UBE_NXZ
      12927 14CD 005849F0 ?is_default_value@?$asn_explicit@Vasn_x500name@JONAH@@$01$03@JONAH@@UBE_NXZ
      12928 14CE 005849F0 ?is_default_value@?$asn_explicit@Vasn_x500name@JONAH@@$01$04@JONAH@@UBE_NXZ
      12929 14CF 005849F0 ?is_default_value@?$asn_explicit@Vx509_Extensions@JONAH@@$01$02@JONAH@@UBE_NXZ
      12930 14D0 005849F0 ?is_default_value@?$asn_explicit@Vx509_Extensions@JONAH@@$01$0A@@JONAH@@UBE_NXZ
      12931 14D1 005849F0 ?is_default_value@?$asn_explicit@Vx509_certificate@JONAH@@$01$0A@@JONAH@@UBE_NXZ
      12932 14D2 005849F0 ?is_default_value@?$asn_explicit@Vx509_certificate@JONAH@@$01$0BA@@JONAH@@UBE_NXZ
      12933 14D3 005849F0 ?is_default_value@?$asn_implicit@V?$asn_sequenceof@VGeneralName@JONAH@@@JONAH@@$01$00@JONAH@@UBE_NXZ
      12934 14D4 005849F0 ?is_default_value@?$asn_implicit@V?$asn_sequenceof@VGeneralName@JONAH@@@JONAH@@$01$01@JONAH@@UBE_NXZ
      12935 14D5 005849F0 ?is_default_value@?$asn_implicit@V?$asn_sequenceof@VGeneralName@JONAH@@@JONAH@@$01$0A@@JONAH@@UBE_NXZ
      12936 14D6 005849F0 ?is_default_value@?$asn_implicit@V?$asn_sequenceof@VGeneralSubtree@JONAH@@@JONAH@@$01$00@JONAH@@UBE_NXZ
      12937 14D7 005849F0 ?is_default_value@?$asn_implicit@V?$asn_sequenceof@VGeneralSubtree@JONAH@@@JONAH@@$01$0A@@JONAH@@UBE_NXZ
      12938 14D8 005849F0 ?is_default_value@?$asn_implicit@VAlgorithmIdentifier@JONAH@@$01$00@JONAH@@UBE_NXZ
      12939 14D9 005849F0 ?is_default_value@?$asn_implicit@VAlgorithmIdentifier@JONAH@@$01$01@JONAH@@UBE_NXZ
      12940 14DA 005849F0 ?is_default_value@?$asn_implicit@VAlgorithmIdentifier@JONAH@@$01$02@JONAH@@UBE_NXZ
      12941 14DB 005849F0 ?is_default_value@?$asn_implicit@VAlgorithmIdentifier@JONAH@@$01$0A@@JONAH@@UBE_NXZ
      12942 14DC 005849F0 ?is_default_value@?$asn_implicit@VAttributes@JONAH@@$01$00@JONAH@@UBE_NXZ
      12943 14DD 005849F0 ?is_default_value@?$asn_implicit@VAttributes@JONAH@@$01$0A@@JONAH@@UBE_NXZ
      12944 14DE 005849F0 ?is_default_value@?$asn_implicit@VCertRevocationLists@JONAH@@$01$00@JONAH@@UBE_NXZ
      12945 14DF 005849F0 ?is_default_value@?$asn_implicit@VEDIPartyName@JONAH@@$01$04@JONAH@@UBE_NXZ
      12946 14E0 005849F0 ?is_default_value@?$asn_implicit@VExtendedCertsAndCertificates@JONAH@@$01$0A@@JONAH@@UBE_NXZ
      12947 14E1 005849F0 ?is_default_value@?$asn_implicit@VOptionalValidity@JONAH@@$01$03@JONAH@@UBE_NXZ
      12948 14E2 005849F0 ?is_default_value@?$asn_implicit@VPOPOSigningKey@JONAH@@$01$00@JONAH@@UBE_NXZ
      12949 14E3 005849F0 ?is_default_value@?$asn_implicit@VPOPOSigningKeyInput@JONAH@@$01$0A@@JONAH@@UBE_NXZ
      12950 14E4 005849F0 ?is_default_value@?$asn_implicit@VReasonFlags@JONAH@@$01$00@JONAH@@UBE_NXZ
      12951 14E5 005849F0 ?is_default_value@?$asn_implicit@VReasonFlags@JONAH@@$01$02@JONAH@@UBE_NXZ
      12952 14E6 005849F0 ?is_default_value@?$asn_implicit@VSubjectPublicKeyInfo@JONAH@@$01$05@JONAH@@UBE_NXZ
      12953 14E7 005849F0 ?is_default_value@?$asn_implicit@Vasn_RDN@JONAH@@$01$00@JONAH@@UBE_NXZ
      12954 14E8 005849F0 ?is_default_value@?$asn_implicit@Vasn_bitstring@JONAH@@$01$00@JONAH@@UBE_NXZ
      12955 14E9 005849F0 ?is_default_value@?$asn_implicit@Vasn_bitstring@JONAH@@$01$01@JONAH@@UBE_NXZ
      12956 14EA 005849F0 ?is_default_value@?$asn_implicit@Vasn_bitstring@JONAH@@$01$06@JONAH@@UBE_NXZ
      12957 14EB 005849F0 ?is_default_value@?$asn_implicit@Vasn_bitstring@JONAH@@$01$07@JONAH@@UBE_NXZ
      12958 14EC 005849F0 ?is_default_value@?$asn_implicit@Vasn_boolean@JONAH@@$01$00@JONAH@@UBE_NXZ
      12959 14ED 005849F0 ?is_default_value@?$asn_implicit@Vasn_boolean@JONAH@@$01$01@JONAH@@UBE_NXZ
      12960 14EE 005849F0 ?is_default_value@?$asn_implicit@Vasn_boolean@JONAH@@$01$03@JONAH@@UBE_NXZ
      12961 14EF 005849F0 ?is_default_value@?$asn_implicit@Vasn_generalizedtime@JONAH@@$01$00@JONAH@@UBE_NXZ
      12962 14F0 005849F0 ?is_default_value@?$asn_implicit@Vasn_generalizedtime@JONAH@@$01$0A@@JONAH@@UBE_NXZ
      12963 14F1 005849F0 ?is_default_value@?$asn_implicit@Vasn_ia5String@JONAH@@$01$00@JONAH@@UBE_NXZ
      12964 14F2 005849F0 ?is_default_value@?$asn_implicit@Vasn_ia5String@JONAH@@$01$01@JONAH@@UBE_NXZ
      12965 14F3 005849F0 ?is_default_value@?$asn_implicit@Vasn_ia5String@JONAH@@$01$05@JONAH@@UBE_NXZ
      12966 14F4 005849F0 ?is_default_value@?$asn_implicit@Vasn_integer@JONAH@@$01$00@JONAH@@UBE_NXZ
      12967 14F5 005849F0 ?is_default_value@?$asn_implicit@Vasn_integer@JONAH@@$01$01@JONAH@@UBE_NXZ
      12968 14F6 005849F0 ?is_default_value@?$asn_implicit@Vasn_integer@JONAH@@$01$0A@@JONAH@@UBE_NXZ
      12969 14F7 005849F0 ?is_default_value@?$asn_implicit@Vasn_null@JONAH@@$01$0A@@JONAH@@UBE_NXZ
      12970 14F8 005849F0 ?is_default_value@?$asn_implicit@Vasn_octetstring@JONAH@@$01$03@JONAH@@UBE_NXZ
      12971 14F9 005849F0 ?is_default_value@?$asn_implicit@Vasn_octetstring@JONAH@@$01$06@JONAH@@UBE_NXZ
      12972 14FA 005849F0 ?is_default_value@?$asn_implicit@Vasn_octetstring@JONAH@@$01$0A@@JONAH@@UBE_NXZ
      12973 14FB 005849F0 ?is_default_value@?$asn_implicit@Vasn_oid@JONAH@@$01$07@JONAH@@UBE_NXZ
      12974 14FC 005849F0 ?is_default_value@?$asn_implicit@Vx509_Extensions@JONAH@@$01$08@JONAH@@UBE_NXZ
      12975 14FD 005C2EA0 ?is_default_value@asn_object@JONAH@@UBE_NXZ
      12976 14FE 00494950 ?is_defaultable@?$asn_explicit@V?$asn_sequenceof@VCertificateRequest@JONAH@@@JONAH@@$01$0A@@JONAH@@UBE_NXZ
      12977 14FF 00494950 ?is_defaultable@?$asn_explicit@V?$asn_sequenceof@VRevocationRequest@JONAH@@@JONAH@@$01$00@JONAH@@UBE_NXZ
      12978 1500 00494950 ?is_defaultable@?$asn_explicit@V?$asn_setof@VAliasWithTag@JONAH@@@JONAH@@$01$00@JONAH@@UBE_NXZ
      12979 1501 00494950 ?is_defaultable@?$asn_explicit@VAlgorithmIdentifier@JONAH@@$01$00@JONAH@@UBE_NXZ
      12980 1502 00494950 ?is_defaultable@?$asn_explicit@VAlgorithmIdentifier@JONAH@@$01$0A@@JONAH@@UBE_NXZ
      12981 1503 00494950 ?is_defaultable@?$asn_explicit@VCAKeyUpdAnnContent@JONAH@@$01$0P@@JONAH@@UBE_NXZ
      12982 1504 00494950 ?is_defaultable@?$asn_explicit@VCALdapPostInfo@JONAH@@$01$0A@@JONAH@@UBE_NXZ
      12983 1505 00494950 ?is_defaultable@?$asn_explicit@VCRLAnnContent@JONAH@@$01$00@JONAH@@UBE_NXZ
      12984 1506 00494950 ?is_defaultable@?$asn_explicit@VCRLAnnContent@JONAH@@$01$0BC@@JONAH@@UBE_NXZ
      12985 1507 00494950 ?is_defaultable@?$asn_explicit@VCertId@JONAH@@$01$00@JONAH@@UBE_NXZ
      12986 1508 00494950 ?is_defaultable@?$asn_explicit@VCertIds@JONAH@@$01$0A@@JONAH@@UBE_NXZ
      12987 1509 00494950 ?is_defaultable@?$asn_explicit@VCertRepMessage@JONAH@@$01$00@JONAH@@UBE_NXZ
      12988 150A 00494950 ?is_defaultable@?$asn_explicit@VCertRepMessage@JONAH@@$01$02@JONAH@@UBE_NXZ
      12989 150B 00494950 ?is_defaultable@?$asn_explicit@VCertRepMessage@JONAH@@$01$07@JONAH@@UBE_NXZ
      12990 150C 00494950 ?is_defaultable@?$asn_explicit@VCertRepMessage@JONAH@@$01$0O@@JONAH@@UBE_NXZ
      12991 150D 00494950 ?is_defaultable@?$asn_explicit@VCertReqMessages@JONAH@@$01$01@JONAH@@UBE_NXZ
      12992 150E 00494950 ?is_defaultable@?$asn_explicit@VCertReqMessages@JONAH@@$01$06@JONAH@@UBE_NXZ
      12993 150F 00494950 ?is_defaultable@?$asn_explicit@VCertReqMessages@JONAH@@$01$08@JONAH@@UBE_NXZ
      12994 1510 00494950 ?is_defaultable@?$asn_explicit@VCertReqMessages@JONAH@@$01$0A@@JONAH@@UBE_NXZ
      12995 1511 00494950 ?is_defaultable@?$asn_explicit@VCertReqMessages@JONAH@@$01$0N@@JONAH@@UBE_NXZ
      12996 1512 00494950 ?is_defaultable@?$asn_explicit@VCertificates@JONAH@@$01$00@JONAH@@UBE_NXZ
      12997 1513 00494950 ?is_defaultable@?$asn_explicit@VCertificationRequest@JONAH@@$01$03@JONAH@@UBE_NXZ
      12998 1514 00494950 ?is_defaultable@?$asn_explicit@VCertifiedKeyPairs@JONAH@@$01$01@JONAH@@UBE_NXZ
      12999 1515 00494950 ?is_defaultable@?$asn_explicit@VContent@JONAH@@$01$0A@@JONAH@@UBE_NXZ
      13000 1516 00494950 ?is_defaultable@?$asn_explicit@VDistributionPointName@JONAH@@$01$0A@@JONAH@@UBE_NXZ
      13001 1517 00494950 ?is_defaultable@?$asn_explicit@VEncryptedKey@JONAH@@$01$0A@@JONAH@@UBE_NXZ
      13002 1518 00494950 ?is_defaultable@?$asn_explicit@VEncryptedValue@JONAH@@$01$00@JONAH@@UBE_NXZ
      13003 1519 00494950 ?is_defaultable@?$asn_explicit@VEncryptedValue@JONAH@@$01$0A@@JONAH@@UBE_NXZ
      13004 151A 00494950 ?is_defaultable@?$asn_explicit@VEnvelopedData@JONAH@@$01$0A@@JONAH@@UBE_NXZ
      13005 151B 00494950 ?is_defaultable@?$asn_explicit@VErrorMsgContent@JONAH@@$01$0BH@@JONAH@@UBE_NXZ
      13006 151C 00494950 ?is_defaultable@?$asn_explicit@VGeneralName@JONAH@@$01$0A@@JONAH@@UBE_NXZ
      13007 151D 00494950 ?is_defaultable@?$asn_explicit@VInfoTypesAndValues@JONAH@@$01$07@JONAH@@UBE_NXZ
      13008 151E 00494950 ?is_defaultable@?$asn_explicit@VInfoTypesAndValues@JONAH@@$01$0BF@@JONAH@@UBE_NXZ
      13009 151F 00494950 ?is_defaultable@?$asn_explicit@VInfoTypesAndValues@JONAH@@$01$0BG@@JONAH@@UBE_NXZ
      13010 1520 00494950 ?is_defaultable@?$asn_explicit@VJonahTime@JONAH@@$01$00@JONAH@@UBE_NXZ
      13011 1521 00494950 ?is_defaultable@?$asn_explicit@VJonahTime@JONAH@@$01$0A@@JONAH@@UBE_NXZ
      13012 1522 00494950 ?is_defaultable@?$asn_explicit@VKeyRecRepContent@JONAH@@$01$09@JONAH@@UBE_NXZ
      13013 1523 00494950 ?is_defaultable@?$asn_explicit@VNotesLicenseExt@JONAH@@$01$00@JONAH@@UBE_NXZ
      13014 1524 00494950 ?is_defaultable@?$asn_explicit@VPKIFreeText@JONAH@@$01$06@JONAH@@UBE_NXZ
      13015 1525 00494950 ?is_defaultable@?$asn_explicit@VPKIPublicationInfo@JONAH@@$01$00@JONAH@@UBE_NXZ
      13016 1526 00494950 ?is_defaultable@?$asn_explicit@VPOPODecKeyChallContent@JONAH@@$01$04@JONAH@@UBE_NXZ
      13017 1527 00494950 ?is_defaultable@?$asn_explicit@VPOPODecKeyRespContent@JONAH@@$01$05@JONAH@@UBE_NXZ
      13018 1528 00494950 ?is_defaultable@?$asn_explicit@VPOPOPrivKey@JONAH@@$01$01@JONAH@@UBE_NXZ
      13019 1529 00494950 ?is_defaultable@?$asn_explicit@VPOPOPrivKey@JONAH@@$01$02@JONAH@@UBE_NXZ
      13020 152A 00494950 ?is_defaultable@?$asn_explicit@VRACCertPkiConfirmWarp@JONAH@@$01$02@JONAH@@UBE_NXZ
      13021 152B 00494950 ?is_defaultable@?$asn_explicit@VRACCertWarp@JONAH@@$01$00@JONAH@@UBE_NXZ
      13022 152C 00494950 ?is_defaultable@?$asn_explicit@VRevAnnContent@JONAH@@$01$0BB@@JONAH@@UBE_NXZ
      13023 152D 00494950 ?is_defaultable@?$asn_explicit@VRevRepContent@JONAH@@$01$0M@@JONAH@@UBE_NXZ
      13024 152E 00494950 ?is_defaultable@?$asn_explicit@VRevReqContent@JONAH@@$01$0L@@JONAH@@UBE_NXZ
      13025 152F 00494950 ?is_defaultable@?$asn_explicit@VSignedContent@JONAH@@$01$0A@@JONAH@@UBE_NXZ
      13026 1530 00494950 ?is_defaultable@?$asn_explicit@VSubsequentMessage@JONAH@@$01$00@JONAH@@UBE_NXZ
      13027 1531 00494950 ?is_defaultable@?$asn_explicit@Vasn_UTF8String@JONAH@@$01$02@JONAH@@UBE_NXZ
      13028 1532 00494950 ?is_defaultable@?$asn_explicit@Vasn_UTF8String@JONAH@@$01$0A@@JONAH@@UBE_NXZ
      13029 1533 00494950 ?is_defaultable@?$asn_explicit@Vasn_any@JONAH@@$01$01@JONAH@@UBE_NXZ
      13030 1534 00494950 ?is_defaultable@?$asn_explicit@Vasn_any@JONAH@@$01$03@JONAH@@UBE_NXZ
      13031 1535 00494950 ?is_defaultable@?$asn_explicit@Vasn_any@JONAH@@$01$0A@@JONAH@@UBE_NXZ
      13032 1536 00494950 ?is_defaultable@?$asn_explicit@Vasn_any@JONAH@@$01$0BE@@JONAH@@UBE_NXZ
      13033 1537 00494950 ?is_defaultable@?$asn_explicit@Vasn_bitstring@JONAH@@$01$01@JONAH@@UBE_NXZ
      13034 1538 00494950 ?is_defaultable@?$asn_explicit@Vasn_bitstring@JONAH@@$01$0A@@JONAH@@UBE_NXZ
      13035 1539 00494950 ?is_defaultable@?$asn_explicit@Vasn_boolean@JONAH@@$01$00@JONAH@@UBE_NXZ
      13036 153A 00494950 ?is_defaultable@?$asn_explicit@Vasn_boolean@JONAH@@$01$01@JONAH@@UBE_NXZ
      13037 153B 00494950 ?is_defaultable@?$asn_explicit@Vasn_boolean@JONAH@@$01$0A@@JONAH@@UBE_NXZ
      13038 153C 00494950 ?is_defaultable@?$asn_explicit@Vasn_directoryString@JONAH@@$01$00@JONAH@@UBE_NXZ
      13039 153D 00494950 ?is_defaultable@?$asn_explicit@Vasn_directoryString@JONAH@@$01$0A@@JONAH@@UBE_NXZ
      13040 153E 00494950 ?is_defaultable@?$asn_explicit@Vasn_generalizedtime@JONAH@@$01$0A@@JONAH@@UBE_NXZ
      13041 153F 00494950 ?is_defaultable@?$asn_explicit@Vasn_ia5String@JONAH@@$01$0A@@JONAH@@UBE_NXZ
      13042 1540 00494950 ?is_defaultable@?$asn_explicit@Vasn_integer@JONAH@@$01$0A@@JONAH@@UBE_NXZ
      13043 1541 00494950 ?is_defaultable@?$asn_explicit@Vasn_null@JONAH@@$01$0BD@@JONAH@@UBE_NXZ
      13044 1542 00494950 ?is_defaultable@?$asn_explicit@Vasn_octetstring@JONAH@@$01$00@JONAH@@UBE_NXZ
      13045 1543 00494950 ?is_defaultable@?$asn_explicit@Vasn_octetstring@JONAH@@$01$01@JONAH@@UBE_NXZ
      13046 1544 00494950 ?is_defaultable@?$asn_explicit@Vasn_octetstring@JONAH@@$01$02@JONAH@@UBE_NXZ
      13047 1545 00494950 ?is_defaultable@?$asn_explicit@Vasn_octetstring@JONAH@@$01$03@JONAH@@UBE_NXZ
      13048 1546 00494950 ?is_defaultable@?$asn_explicit@Vasn_octetstring@JONAH@@$01$04@JONAH@@UBE_NXZ
      13049 1547 00494950 ?is_defaultable@?$asn_explicit@Vasn_octetstring@JONAH@@$01$05@JONAH@@UBE_NXZ
      13050 1548 00494950 ?is_defaultable@?$asn_explicit@Vasn_octetstring@JONAH@@$01$0A@@JONAH@@UBE_NXZ
      13051 1549 00494950 ?is_defaultable@?$asn_explicit@Vasn_x500name@JONAH@@$01$02@JONAH@@UBE_NXZ
      13052 154A 00494950 ?is_defaultable@?$asn_explicit@Vasn_x500name@JONAH@@$01$03@JONAH@@UBE_NXZ
      13053 154B 00494950 ?is_defaultable@?$asn_explicit@Vasn_x500name@JONAH@@$01$04@JONAH@@UBE_NXZ
      13054 154C 00494950 ?is_defaultable@?$asn_explicit@Vx509_Extensions@JONAH@@$01$02@JONAH@@UBE_NXZ
      13055 154D 00494950 ?is_defaultable@?$asn_explicit@Vx509_Extensions@JONAH@@$01$0A@@JONAH@@UBE_NXZ
      13056 154E 00494950 ?is_defaultable@?$asn_explicit@Vx509_certificate@JONAH@@$01$0A@@JONAH@@UBE_NXZ
      13057 154F 00494950 ?is_defaultable@?$asn_explicit@Vx509_certificate@JONAH@@$01$0BA@@JONAH@@UBE_NXZ
      13058 1550 00494950 ?is_defaultable@?$asn_implicit@V?$asn_sequenceof@VGeneralName@JONAH@@@JONAH@@$01$00@JONAH@@UBE_NXZ
      13059 1551 00494950 ?is_defaultable@?$asn_implicit@V?$asn_sequenceof@VGeneralName@JONAH@@@JONAH@@$01$01@JONAH@@UBE_NXZ
      13060 1552 00494950 ?is_defaultable@?$asn_implicit@V?$asn_sequenceof@VGeneralName@JONAH@@@JONAH@@$01$0A@@JONAH@@UBE_NXZ
      13061 1553 00494950 ?is_defaultable@?$asn_implicit@V?$asn_sequenceof@VGeneralSubtree@JONAH@@@JONAH@@$01$00@JONAH@@UBE_NXZ
      13062 1554 00494950 ?is_defaultable@?$asn_implicit@V?$asn_sequenceof@VGeneralSubtree@JONAH@@@JONAH@@$01$0A@@JONAH@@UBE_NXZ
      13063 1555 00494950 ?is_defaultable@?$asn_implicit@VAlgorithmIdentifier@JONAH@@$01$00@JONAH@@UBE_NXZ
      13064 1556 00494950 ?is_defaultable@?$asn_implicit@VAlgorithmIdentifier@JONAH@@$01$01@JONAH@@UBE_NXZ
      13065 1557 00494950 ?is_defaultable@?$asn_implicit@VAlgorithmIdentifier@JONAH@@$01$02@JONAH@@UBE_NXZ
      13066 1558 00494950 ?is_defaultable@?$asn_implicit@VAlgorithmIdentifier@JONAH@@$01$0A@@JONAH@@UBE_NXZ
      13067 1559 00494950 ?is_defaultable@?$asn_implicit@VAttributes@JONAH@@$01$00@JONAH@@UBE_NXZ
      13068 155A 00494950 ?is_defaultable@?$asn_implicit@VAttributes@JONAH@@$01$0A@@JONAH@@UBE_NXZ
      13069 155B 00494950 ?is_defaultable@?$asn_implicit@VCertRevocationLists@JONAH@@$01$00@JONAH@@UBE_NXZ
      13070 155C 00494950 ?is_defaultable@?$asn_implicit@VEDIPartyName@JONAH@@$01$04@JONAH@@UBE_NXZ
      13071 155D 00494950 ?is_defaultable@?$asn_implicit@VExtendedCertsAndCertificates@JONAH@@$01$0A@@JONAH@@UBE_NXZ
      13072 155E 00494950 ?is_defaultable@?$asn_implicit@VOptionalValidity@JONAH@@$01$03@JONAH@@UBE_NXZ
      13073 155F 00494950 ?is_defaultable@?$asn_implicit@VPOPOSigningKey@JONAH@@$01$00@JONAH@@UBE_NXZ
      13074 1560 00494950 ?is_defaultable@?$asn_implicit@VPOPOSigningKeyInput@JONAH@@$01$0A@@JONAH@@UBE_NXZ
      13075 1561 00494950 ?is_defaultable@?$asn_implicit@VReasonFlags@JONAH@@$01$00@JONAH@@UBE_NXZ
      13076 1562 00494950 ?is_defaultable@?$asn_implicit@VReasonFlags@JONAH@@$01$02@JONAH@@UBE_NXZ
      13077 1563 00494950 ?is_defaultable@?$asn_implicit@VSubjectPublicKeyInfo@JONAH@@$01$05@JONAH@@UBE_NXZ
      13078 1564 00494950 ?is_defaultable@?$asn_implicit@Vasn_RDN@JONAH@@$01$00@JONAH@@UBE_NXZ
      13079 1565 00494950 ?is_defaultable@?$asn_implicit@Vasn_bitstring@JONAH@@$01$00@JONAH@@UBE_NXZ
      13080 1566 00494950 ?is_defaultable@?$asn_implicit@Vasn_bitstring@JONAH@@$01$01@JONAH@@UBE_NXZ
      13081 1567 00494950 ?is_defaultable@?$asn_implicit@Vasn_bitstring@JONAH@@$01$06@JONAH@@UBE_NXZ
      13082 1568 00494950 ?is_defaultable@?$asn_implicit@Vasn_bitstring@JONAH@@$01$07@JONAH@@UBE_NXZ
      13083 1569 00494950 ?is_defaultable@?$asn_implicit@Vasn_boolean@JONAH@@$01$00@JONAH@@UBE_NXZ
      13084 156A 00494950 ?is_defaultable@?$asn_implicit@Vasn_boolean@JONAH@@$01$01@JONAH@@UBE_NXZ
      13085 156B 00494950 ?is_defaultable@?$asn_implicit@Vasn_boolean@JONAH@@$01$03@JONAH@@UBE_NXZ
      13086 156C 00494950 ?is_defaultable@?$asn_implicit@Vasn_generalizedtime@JONAH@@$01$00@JONAH@@UBE_NXZ
      13087 156D 00494950 ?is_defaultable@?$asn_implicit@Vasn_generalizedtime@JONAH@@$01$0A@@JONAH@@UBE_NXZ
      13088 156E 00494950 ?is_defaultable@?$asn_implicit@Vasn_ia5String@JONAH@@$01$00@JONAH@@UBE_NXZ
      13089 156F 00494950 ?is_defaultable@?$asn_implicit@Vasn_ia5String@JONAH@@$01$01@JONAH@@UBE_NXZ
      13090 1570 00494950 ?is_defaultable@?$asn_implicit@Vasn_ia5String@JONAH@@$01$05@JONAH@@UBE_NXZ
      13091 1571 00494950 ?is_defaultable@?$asn_implicit@Vasn_integer@JONAH@@$01$00@JONAH@@UBE_NXZ
      13092 1572 00494950 ?is_defaultable@?$asn_implicit@Vasn_integer@JONAH@@$01$01@JONAH@@UBE_NXZ
      13093 1573 00494950 ?is_defaultable@?$asn_implicit@Vasn_integer@JONAH@@$01$0A@@JONAH@@UBE_NXZ
      13094 1574 00494950 ?is_defaultable@?$asn_implicit@Vasn_null@JONAH@@$01$0A@@JONAH@@UBE_NXZ
      13095 1575 00494950 ?is_defaultable@?$asn_implicit@Vasn_octetstring@JONAH@@$01$03@JONAH@@UBE_NXZ
      13096 1576 00494950 ?is_defaultable@?$asn_implicit@Vasn_octetstring@JONAH@@$01$06@JONAH@@UBE_NXZ
      13097 1577 00494950 ?is_defaultable@?$asn_implicit@Vasn_octetstring@JONAH@@$01$0A@@JONAH@@UBE_NXZ
      13098 1578 00494950 ?is_defaultable@?$asn_implicit@Vasn_oid@JONAH@@$01$07@JONAH@@UBE_NXZ
      13099 1579 00494950 ?is_defaultable@?$asn_implicit@Vx509_Extensions@JONAH@@$01$08@JONAH@@UBE_NXZ
      13100 157A 005BE620 ?is_defaultable@asn_object@JONAH@@UBE_NXZ
      13101 157B 005C0900 ?is_encoding_valid@asn_choice@JONAH@@UBE_NXZ
      13102 157C 005BE1E0 ?is_encoding_valid@asn_object@JONAH@@UBE_NXZ
      13103 157D 005C01A0 ?is_equal@asn_oid@JONAH@@QBE_NPBKI@Z
      13104 157E 00582E60 ?is_indefinite_length@?$asn_implicit@V?$asn_sequenceof@VGeneralName@JONAH@@@JONAH@@$01$00@JONAH@@UBE_NXZ
      13105 157F 00582E60 ?is_indefinite_length@?$asn_implicit@V?$asn_sequenceof@VGeneralName@JONAH@@@JONAH@@$01$01@JONAH@@UBE_NXZ
      13106 1580 00582E60 ?is_indefinite_length@?$asn_implicit@V?$asn_sequenceof@VGeneralName@JONAH@@@JONAH@@$01$0A@@JONAH@@UBE_NXZ
      13107 1581 00582E60 ?is_indefinite_length@?$asn_implicit@V?$asn_sequenceof@VGeneralSubtree@JONAH@@@JONAH@@$01$00@JONAH@@UBE_NXZ
      13108 1582 00582E60 ?is_indefinite_length@?$asn_implicit@V?$asn_sequenceof@VGeneralSubtree@JONAH@@@JONAH@@$01$0A@@JONAH@@UBE_NXZ
      13109 1583 00582E60 ?is_indefinite_length@?$asn_implicit@VAlgorithmIdentifier@JONAH@@$01$00@JONAH@@UBE_NXZ
      13110 1584 00582E60 ?is_indefinite_length@?$asn_implicit@VAlgorithmIdentifier@JONAH@@$01$01@JONAH@@UBE_NXZ
      13111 1585 00582E60 ?is_indefinite_length@?$asn_implicit@VAlgorithmIdentifier@JONAH@@$01$02@JONAH@@UBE_NXZ
      13112 1586 00582E60 ?is_indefinite_length@?$asn_implicit@VAlgorithmIdentifier@JONAH@@$01$0A@@JONAH@@UBE_NXZ
      13113 1587 00582E60 ?is_indefinite_length@?$asn_implicit@VAttributes@JONAH@@$01$00@JONAH@@UBE_NXZ
      13114 1588 00582E60 ?is_indefinite_length@?$asn_implicit@VAttributes@JONAH@@$01$0A@@JONAH@@UBE_NXZ
      13115 1589 00582E60 ?is_indefinite_length@?$asn_implicit@VCertRevocationLists@JONAH@@$01$00@JONAH@@UBE_NXZ
      13116 158A 00582E60 ?is_indefinite_length@?$asn_implicit@VEDIPartyName@JONAH@@$01$04@JONAH@@UBE_NXZ
      13117 158B 00582E60 ?is_indefinite_length@?$asn_implicit@VExtendedCertsAndCertificates@JONAH@@$01$0A@@JONAH@@UBE_NXZ
      13118 158C 00582E60 ?is_indefinite_length@?$asn_implicit@VOptionalValidity@JONAH@@$01$03@JONAH@@UBE_NXZ
      13119 158D 00582E60 ?is_indefinite_length@?$asn_implicit@VPOPOSigningKey@JONAH@@$01$00@JONAH@@UBE_NXZ
      13120 158E 00582E60 ?is_indefinite_length@?$asn_implicit@VPOPOSigningKeyInput@JONAH@@$01$0A@@JONAH@@UBE_NXZ
      13121 158F 00582E60 ?is_indefinite_length@?$asn_implicit@VReasonFlags@JONAH@@$01$00@JONAH@@UBE_NXZ
      13122 1590 00582E60 ?is_indefinite_length@?$asn_implicit@VReasonFlags@JONAH@@$01$02@JONAH@@UBE_NXZ
      13123 1591 00582E60 ?is_indefinite_length@?$asn_implicit@VSubjectPublicKeyInfo@JONAH@@$01$05@JONAH@@UBE_NXZ
      13124 1592 00582E60 ?is_indefinite_length@?$asn_implicit@Vasn_RDN@JONAH@@$01$00@JONAH@@UBE_NXZ
      13125 1593 00582E60 ?is_indefinite_length@?$asn_implicit@Vasn_bitstring@JONAH@@$01$00@JONAH@@UBE_NXZ
      13126 1594 00582E60 ?is_indefinite_length@?$asn_implicit@Vasn_bitstring@JONAH@@$01$01@JONAH@@UBE_NXZ
      13127 1595 00582E60 ?is_indefinite_length@?$asn_implicit@Vasn_bitstring@JONAH@@$01$06@JONAH@@UBE_NXZ
      13128 1596 00582E60 ?is_indefinite_length@?$asn_implicit@Vasn_bitstring@JONAH@@$01$07@JONAH@@UBE_NXZ
      13129 1597 00582E60 ?is_indefinite_length@?$asn_implicit@Vasn_boolean@JONAH@@$01$00@JONAH@@UBE_NXZ
      13130 1598 00582E60 ?is_indefinite_length@?$asn_implicit@Vasn_boolean@JONAH@@$01$01@JONAH@@UBE_NXZ
      13131 1599 00582E60 ?is_indefinite_length@?$asn_implicit@Vasn_boolean@JONAH@@$01$03@JONAH@@UBE_NXZ
      13132 159A 00582E60 ?is_indefinite_length@?$asn_implicit@Vasn_generalizedtime@JONAH@@$01$00@JONAH@@UBE_NXZ
      13133 159B 00582E60 ?is_indefinite_length@?$asn_implicit@Vasn_generalizedtime@JONAH@@$01$0A@@JONAH@@UBE_NXZ
      13134 159C 00582E60 ?is_indefinite_length@?$asn_implicit@Vasn_ia5String@JONAH@@$01$00@JONAH@@UBE_NXZ
      13135 159D 00582E60 ?is_indefinite_length@?$asn_implicit@Vasn_ia5String@JONAH@@$01$01@JONAH@@UBE_NXZ
      13136 159E 00582E60 ?is_indefinite_length@?$asn_implicit@Vasn_ia5String@JONAH@@$01$05@JONAH@@UBE_NXZ
      13137 159F 00582E60 ?is_indefinite_length@?$asn_implicit@Vasn_integer@JONAH@@$01$00@JONAH@@UBE_NXZ
      13138 15A0 00582E60 ?is_indefinite_length@?$asn_implicit@Vasn_integer@JONAH@@$01$01@JONAH@@UBE_NXZ
      13139 15A1 00582E60 ?is_indefinite_length@?$asn_implicit@Vasn_integer@JONAH@@$01$0A@@JONAH@@UBE_NXZ
      13140 15A2 00582E60 ?is_indefinite_length@?$asn_implicit@Vasn_null@JONAH@@$01$0A@@JONAH@@UBE_NXZ
      13141 15A3 00582E60 ?is_indefinite_length@?$asn_implicit@Vasn_octetstring@JONAH@@$01$03@JONAH@@UBE_NXZ
      13142 15A4 00582E60 ?is_indefinite_length@?$asn_implicit@Vasn_octetstring@JONAH@@$01$06@JONAH@@UBE_NXZ
      13143 15A5 00582E60 ?is_indefinite_length@?$asn_implicit@Vasn_octetstring@JONAH@@$01$0A@@JONAH@@UBE_NXZ
      13144 15A6 00582E60 ?is_indefinite_length@?$asn_implicit@Vasn_oid@JONAH@@$01$07@JONAH@@UBE_NXZ
      13145 15A7 00582E60 ?is_indefinite_length@?$asn_implicit@Vx509_Extensions@JONAH@@$01$08@JONAH@@UBE_NXZ
      13146 15A8 0048CAB0 ?is_indefinite_length@asn_object@JONAH@@UBE_NXZ
      13147 15A9 005BDA70 ?is_internal@buffer_t@JONAH@@AAE_NXZ
      13148 15AA 00583B10 ?is_optional@?$asn_explicit@V?$asn_sequenceof@VCertificateRequest@JONAH@@@JONAH@@$01$0A@@JONAH@@UBE_NXZ
      13149 15AB 00583B10 ?is_optional@?$asn_explicit@V?$asn_sequenceof@VRevocationRequest@JONAH@@@JONAH@@$01$00@JONAH@@UBE_NXZ
      13150 15AC 00583B10 ?is_optional@?$asn_explicit@V?$asn_setof@VAliasWithTag@JONAH@@@JONAH@@$01$00@JONAH@@UBE_NXZ
      13151 15AD 00583B10 ?is_optional@?$asn_explicit@VAlgorithmIdentifier@JONAH@@$01$00@JONAH@@UBE_NXZ
      13152 15AE 00583B10 ?is_optional@?$asn_explicit@VAlgorithmIdentifier@JONAH@@$01$0A@@JONAH@@UBE_NXZ
      13153 15AF 00583B10 ?is_optional@?$asn_explicit@VCAKeyUpdAnnContent@JONAH@@$01$0P@@JONAH@@UBE_NXZ
      13154 15B0 00583B10 ?is_optional@?$asn_explicit@VCALdapPostInfo@JONAH@@$01$0A@@JONAH@@UBE_NXZ
      13155 15B1 00583B10 ?is_optional@?$asn_explicit@VCRLAnnContent@JONAH@@$01$00@JONAH@@UBE_NXZ
      13156 15B2 00583B10 ?is_optional@?$asn_explicit@VCRLAnnContent@JONAH@@$01$0BC@@JONAH@@UBE_NXZ
      13157 15B3 00583B10 ?is_optional@?$asn_explicit@VCertId@JONAH@@$01$00@JONAH@@UBE_NXZ
      13158 15B4 00583B10 ?is_optional@?$asn_explicit@VCertIds@JONAH@@$01$0A@@JONAH@@UBE_NXZ
      13159 15B5 00583B10 ?is_optional@?$asn_explicit@VCertRepMessage@JONAH@@$01$00@JONAH@@UBE_NXZ
      13160 15B6 00583B10 ?is_optional@?$asn_explicit@VCertRepMessage@JONAH@@$01$02@JONAH@@UBE_NXZ
      13161 15B7 00583B10 ?is_optional@?$asn_explicit@VCertRepMessage@JONAH@@$01$07@JONAH@@UBE_NXZ
      13162 15B8 00583B10 ?is_optional@?$asn_explicit@VCertRepMessage@JONAH@@$01$0O@@JONAH@@UBE_NXZ
      13163 15B9 00583B10 ?is_optional@?$asn_explicit@VCertReqMessages@JONAH@@$01$01@JONAH@@UBE_NXZ
      13164 15BA 00583B10 ?is_optional@?$asn_explicit@VCertReqMessages@JONAH@@$01$06@JONAH@@UBE_NXZ
      13165 15BB 00583B10 ?is_optional@?$asn_explicit@VCertReqMessages@JONAH@@$01$08@JONAH@@UBE_NXZ
      13166 15BC 00583B10 ?is_optional@?$asn_explicit@VCertReqMessages@JONAH@@$01$0A@@JONAH@@UBE_NXZ
      13167 15BD 00583B10 ?is_optional@?$asn_explicit@VCertReqMessages@JONAH@@$01$0N@@JONAH@@UBE_NXZ
      13168 15BE 00583B10 ?is_optional@?$asn_explicit@VCertificates@JONAH@@$01$00@JONAH@@UBE_NXZ
      13169 15BF 00583B10 ?is_optional@?$asn_explicit@VCertificationRequest@JONAH@@$01$03@JONAH@@UBE_NXZ
      13170 15C0 00583B10 ?is_optional@?$asn_explicit@VCertifiedKeyPairs@JONAH@@$01$01@JONAH@@UBE_NXZ
      13171 15C1 00583B10 ?is_optional@?$asn_explicit@VContent@JONAH@@$01$0A@@JONAH@@UBE_NXZ
      13172 15C2 00583B10 ?is_optional@?$asn_explicit@VDistributionPointName@JONAH@@$01$0A@@JONAH@@UBE_NXZ
      13173 15C3 00583B10 ?is_optional@?$asn_explicit@VEncryptedKey@JONAH@@$01$0A@@JONAH@@UBE_NXZ
      13174 15C4 00583B10 ?is_optional@?$asn_explicit@VEncryptedValue@JONAH@@$01$00@JONAH@@UBE_NXZ
      13175 15C5 00583B10 ?is_optional@?$asn_explicit@VEncryptedValue@JONAH@@$01$0A@@JONAH@@UBE_NXZ
      13176 15C6 00583B10 ?is_optional@?$asn_explicit@VEnvelopedData@JONAH@@$01$0A@@JONAH@@UBE_NXZ
      13177 15C7 00583B10 ?is_optional@?$asn_explicit@VErrorMsgContent@JONAH@@$01$0BH@@JONAH@@UBE_NXZ
      13178 15C8 00583B10 ?is_optional@?$asn_explicit@VGeneralName@JONAH@@$01$0A@@JONAH@@UBE_NXZ
      13179 15C9 00583B10 ?is_optional@?$asn_explicit@VInfoTypesAndValues@JONAH@@$01$07@JONAH@@UBE_NXZ
      13180 15CA 00583B10 ?is_optional@?$asn_explicit@VInfoTypesAndValues@JONAH@@$01$0BF@@JONAH@@UBE_NXZ
      13181 15CB 00583B10 ?is_optional@?$asn_explicit@VInfoTypesAndValues@JONAH@@$01$0BG@@JONAH@@UBE_NXZ
      13182 15CC 00583B10 ?is_optional@?$asn_explicit@VJonahTime@JONAH@@$01$00@JONAH@@UBE_NXZ
      13183 15CD 00583B10 ?is_optional@?$asn_explicit@VJonahTime@JONAH@@$01$0A@@JONAH@@UBE_NXZ
      13184 15CE 00583B10 ?is_optional@?$asn_explicit@VKeyRecRepContent@JONAH@@$01$09@JONAH@@UBE_NXZ
      13185 15CF 00583B10 ?is_optional@?$asn_explicit@VNotesLicenseExt@JONAH@@$01$00@JONAH@@UBE_NXZ
      13186 15D0 00583B10 ?is_optional@?$asn_explicit@VPKIFreeText@JONAH@@$01$06@JONAH@@UBE_NXZ
      13187 15D1 00583B10 ?is_optional@?$asn_explicit@VPKIPublicationInfo@JONAH@@$01$00@JONAH@@UBE_NXZ
      13188 15D2 00583B10 ?is_optional@?$asn_explicit@VPOPODecKeyChallContent@JONAH@@$01$04@JONAH@@UBE_NXZ
      13189 15D3 00583B10 ?is_optional@?$asn_explicit@VPOPODecKeyRespContent@JONAH@@$01$05@JONAH@@UBE_NXZ
      13190 15D4 00583B10 ?is_optional@?$asn_explicit@VPOPOPrivKey@JONAH@@$01$01@JONAH@@UBE_NXZ
      13191 15D5 00583B10 ?is_optional@?$asn_explicit@VPOPOPrivKey@JONAH@@$01$02@JONAH@@UBE_NXZ
      13192 15D6 00583B10 ?is_optional@?$asn_explicit@VRACCertPkiConfirmWarp@JONAH@@$01$02@JONAH@@UBE_NXZ
      13193 15D7 00583B10 ?is_optional@?$asn_explicit@VRACCertWarp@JONAH@@$01$00@JONAH@@UBE_NXZ
      13194 15D8 00583B10 ?is_optional@?$asn_explicit@VRevAnnContent@JONAH@@$01$0BB@@JONAH@@UBE_NXZ
      13195 15D9 00583B10 ?is_optional@?$asn_explicit@VRevRepContent@JONAH@@$01$0M@@JONAH@@UBE_NXZ
      13196 15DA 00583B10 ?is_optional@?$asn_explicit@VRevReqContent@JONAH@@$01$0L@@JONAH@@UBE_NXZ
      13197 15DB 00583B10 ?is_optional@?$asn_explicit@VSignedContent@JONAH@@$01$0A@@JONAH@@UBE_NXZ
      13198 15DC 00583B10 ?is_optional@?$asn_explicit@VSubsequentMessage@JONAH@@$01$00@JONAH@@UBE_NXZ
      13199 15DD 00583B10 ?is_optional@?$asn_explicit@Vasn_UTF8String@JONAH@@$01$02@JONAH@@UBE_NXZ
      13200 15DE 00583B10 ?is_optional@?$asn_explicit@Vasn_UTF8String@JONAH@@$01$0A@@JONAH@@UBE_NXZ
      13201 15DF 00583B10 ?is_optional@?$asn_explicit@Vasn_any@JONAH@@$01$01@JONAH@@UBE_NXZ
      13202 15E0 00583B10 ?is_optional@?$asn_explicit@Vasn_any@JONAH@@$01$03@JONAH@@UBE_NXZ
      13203 15E1 00583B10 ?is_optional@?$asn_explicit@Vasn_any@JONAH@@$01$0A@@JONAH@@UBE_NXZ
      13204 15E2 00583B10 ?is_optional@?$asn_explicit@Vasn_any@JONAH@@$01$0BE@@JONAH@@UBE_NXZ
      13205 15E3 00583B10 ?is_optional@?$asn_explicit@Vasn_bitstring@JONAH@@$01$01@JONAH@@UBE_NXZ
      13206 15E4 00583B10 ?is_optional@?$asn_explicit@Vasn_bitstring@JONAH@@$01$0A@@JONAH@@UBE_NXZ
      13207 15E5 00583B10 ?is_optional@?$asn_explicit@Vasn_boolean@JONAH@@$01$00@JONAH@@UBE_NXZ
      13208 15E6 00583B10 ?is_optional@?$asn_explicit@Vasn_boolean@JONAH@@$01$01@JONAH@@UBE_NXZ
      13209 15E7 00583B10 ?is_optional@?$asn_explicit@Vasn_boolean@JONAH@@$01$0A@@JONAH@@UBE_NXZ
      13210 15E8 00583B10 ?is_optional@?$asn_explicit@Vasn_directoryString@JONAH@@$01$00@JONAH@@UBE_NXZ
      13211 15E9 00583B10 ?is_optional@?$asn_explicit@Vasn_directoryString@JONAH@@$01$0A@@JONAH@@UBE_NXZ
      13212 15EA 00583B10 ?is_optional@?$asn_explicit@Vasn_generalizedtime@JONAH@@$01$0A@@JONAH@@UBE_NXZ
      13213 15EB 00583B10 ?is_optional@?$asn_explicit@Vasn_ia5String@JONAH@@$01$0A@@JONAH@@UBE_NXZ
      13214 15EC 00583B10 ?is_optional@?$asn_explicit@Vasn_integer@JONAH@@$01$0A@@JONAH@@UBE_NXZ
      13215 15ED 00583B10 ?is_optional@?$asn_explicit@Vasn_null@JONAH@@$01$0BD@@JONAH@@UBE_NXZ
      13216 15EE 00583B10 ?is_optional@?$asn_explicit@Vasn_octetstring@JONAH@@$01$00@JONAH@@UBE_NXZ
      13217 15EF 00583B10 ?is_optional@?$asn_explicit@Vasn_octetstring@JONAH@@$01$01@JONAH@@UBE_NXZ
      13218 15F0 00583B10 ?is_optional@?$asn_explicit@Vasn_octetstring@JONAH@@$01$02@JONAH@@UBE_NXZ
      13219 15F1 00583B10 ?is_optional@?$asn_explicit@Vasn_octetstring@JONAH@@$01$03@JONAH@@UBE_NXZ
      13220 15F2 00583B10 ?is_optional@?$asn_explicit@Vasn_octetstring@JONAH@@$01$04@JONAH@@UBE_NXZ
      13221 15F3 00583B10 ?is_optional@?$asn_explicit@Vasn_octetstring@JONAH@@$01$05@JONAH@@UBE_NXZ
      13222 15F4 00583B10 ?is_optional@?$asn_explicit@Vasn_octetstring@JONAH@@$01$0A@@JONAH@@UBE_NXZ
      13223 15F5 00583B10 ?is_optional@?$asn_explicit@Vasn_x500name@JONAH@@$01$02@JONAH@@UBE_NXZ
      13224 15F6 00583B10 ?is_optional@?$asn_explicit@Vasn_x500name@JONAH@@$01$03@JONAH@@UBE_NXZ
      13225 15F7 00583B10 ?is_optional@?$asn_explicit@Vasn_x500name@JONAH@@$01$04@JONAH@@UBE_NXZ
      13226 15F8 00583B10 ?is_optional@?$asn_explicit@Vx509_Extensions@JONAH@@$01$02@JONAH@@UBE_NXZ
      13227 15F9 00583B10 ?is_optional@?$asn_explicit@Vx509_Extensions@JONAH@@$01$0A@@JONAH@@UBE_NXZ
      13228 15FA 00583B10 ?is_optional@?$asn_explicit@Vx509_certificate@JONAH@@$01$0A@@JONAH@@UBE_NXZ
      13229 15FB 00583B10 ?is_optional@?$asn_explicit@Vx509_certificate@JONAH@@$01$0BA@@JONAH@@UBE_NXZ
      13230 15FC 00583B10 ?is_optional@?$asn_implicit@V?$asn_sequenceof@VGeneralName@JONAH@@@JONAH@@$01$00@JONAH@@UBE_NXZ
      13231 15FD 00583B10 ?is_optional@?$asn_implicit@V?$asn_sequenceof@VGeneralName@JONAH@@@JONAH@@$01$01@JONAH@@UBE_NXZ
      13232 15FE 00583B10 ?is_optional@?$asn_implicit@V?$asn_sequenceof@VGeneralName@JONAH@@@JONAH@@$01$0A@@JONAH@@UBE_NXZ
      13233 15FF 00583B10 ?is_optional@?$asn_implicit@V?$asn_sequenceof@VGeneralSubtree@JONAH@@@JONAH@@$01$00@JONAH@@UBE_NXZ
      13234 1600 00583B10 ?is_optional@?$asn_implicit@V?$asn_sequenceof@VGeneralSubtree@JONAH@@@JONAH@@$01$0A@@JONAH@@UBE_NXZ
      13235 1601 00583B10 ?is_optional@?$asn_implicit@VAlgorithmIdentifier@JONAH@@$01$00@JONAH@@UBE_NXZ
      13236 1602 00583B10 ?is_optional@?$asn_implicit@VAlgorithmIdentifier@JONAH@@$01$01@JONAH@@UBE_NXZ
      13237 1603 00583B10 ?is_optional@?$asn_implicit@VAlgorithmIdentifier@JONAH@@$01$02@JONAH@@UBE_NXZ
      13238 1604 00583B10 ?is_optional@?$asn_implicit@VAlgorithmIdentifier@JONAH@@$01$0A@@JONAH@@UBE_NXZ
      13239 1605 00583B10 ?is_optional@?$asn_implicit@VAttributes@JONAH@@$01$00@JONAH@@UBE_NXZ
      13240 1606 00583B10 ?is_optional@?$asn_implicit@VAttributes@JONAH@@$01$0A@@JONAH@@UBE_NXZ
      13241 1607 00583B10 ?is_optional@?$asn_implicit@VCertRevocationLists@JONAH@@$01$00@JONAH@@UBE_NXZ
      13242 1608 00583B10 ?is_optional@?$asn_implicit@VEDIPartyName@JONAH@@$01$04@JONAH@@UBE_NXZ
      13243 1609 00583B10 ?is_optional@?$asn_implicit@VExtendedCertsAndCertificates@JONAH@@$01$0A@@JONAH@@UBE_NXZ
      13244 160A 00583B10 ?is_optional@?$asn_implicit@VOptionalValidity@JONAH@@$01$03@JONAH@@UBE_NXZ
      13245 160B 00583B10 ?is_optional@?$asn_implicit@VPOPOSigningKey@JONAH@@$01$00@JONAH@@UBE_NXZ
      13246 160C 00583B10 ?is_optional@?$asn_implicit@VPOPOSigningKeyInput@JONAH@@$01$0A@@JONAH@@UBE_NXZ
      13247 160D 00583B10 ?is_optional@?$asn_implicit@VReasonFlags@JONAH@@$01$00@JONAH@@UBE_NXZ
      13248 160E 00583B10 ?is_optional@?$asn_implicit@VReasonFlags@JONAH@@$01$02@JONAH@@UBE_NXZ
      13249 160F 00583B10 ?is_optional@?$asn_implicit@VSubjectPublicKeyInfo@JONAH@@$01$05@JONAH@@UBE_NXZ
      13250 1610 00583B10 ?is_optional@?$asn_implicit@Vasn_RDN@JONAH@@$01$00@JONAH@@UBE_NXZ
      13251 1611 00583B10 ?is_optional@?$asn_implicit@Vasn_bitstring@JONAH@@$01$00@JONAH@@UBE_NXZ
      13252 1612 00583B10 ?is_optional@?$asn_implicit@Vasn_bitstring@JONAH@@$01$01@JONAH@@UBE_NXZ
      13253 1613 00583B10 ?is_optional@?$asn_implicit@Vasn_bitstring@JONAH@@$01$06@JONAH@@UBE_NXZ
      13254 1614 00583B10 ?is_optional@?$asn_implicit@Vasn_bitstring@JONAH@@$01$07@JONAH@@UBE_NXZ
      13255 1615 00583B10 ?is_optional@?$asn_implicit@Vasn_boolean@JONAH@@$01$00@JONAH@@UBE_NXZ
      13256 1616 00583B10 ?is_optional@?$asn_implicit@Vasn_boolean@JONAH@@$01$01@JONAH@@UBE_NXZ
      13257 1617 00583B10 ?is_optional@?$asn_implicit@Vasn_boolean@JONAH@@$01$03@JONAH@@UBE_NXZ
      13258 1618 00583B10 ?is_optional@?$asn_implicit@Vasn_generalizedtime@JONAH@@$01$00@JONAH@@UBE_NXZ
      13259 1619 00583B10 ?is_optional@?$asn_implicit@Vasn_generalizedtime@JONAH@@$01$0A@@JONAH@@UBE_NXZ
      13260 161A 00583B10 ?is_optional@?$asn_implicit@Vasn_ia5String@JONAH@@$01$00@JONAH@@UBE_NXZ
      13261 161B 00583B10 ?is_optional@?$asn_implicit@Vasn_ia5String@JONAH@@$01$01@JONAH@@UBE_NXZ
      13262 161C 00583B10 ?is_optional@?$asn_implicit@Vasn_ia5String@JONAH@@$01$05@JONAH@@UBE_NXZ
      13263 161D 00583B10 ?is_optional@?$asn_implicit@Vasn_integer@JONAH@@$01$00@JONAH@@UBE_NXZ
      13264 161E 00583B10 ?is_optional@?$asn_implicit@Vasn_integer@JONAH@@$01$01@JONAH@@UBE_NXZ
      13265 161F 00583B10 ?is_optional@?$asn_implicit@Vasn_integer@JONAH@@$01$0A@@JONAH@@UBE_NXZ
      13266 1620 00583B10 ?is_optional@?$asn_implicit@Vasn_null@JONAH@@$01$0A@@JONAH@@UBE_NXZ
      13267 1621 00583B10 ?is_optional@?$asn_implicit@Vasn_octetstring@JONAH@@$01$03@JONAH@@UBE_NXZ
      13268 1622 00583B10 ?is_optional@?$asn_implicit@Vasn_octetstring@JONAH@@$01$06@JONAH@@UBE_NXZ
      13269 1623 00583B10 ?is_optional@?$asn_implicit@Vasn_octetstring@JONAH@@$01$0A@@JONAH@@UBE_NXZ
      13270 1624 00583B10 ?is_optional@?$asn_implicit@Vasn_oid@JONAH@@$01$07@JONAH@@UBE_NXZ
      13271 1625 00583B10 ?is_optional@?$asn_implicit@Vx509_Extensions@JONAH@@$01$08@JONAH@@UBE_NXZ
      13272 1626 005BE610 ?is_optional@asn_object@JONAH@@UBE_NXZ
      13273 1627 0048CAC0 ?is_polymorphic@asn_UTF8String@JONAH@@UBE_NXZ
      13274 1628 0048CAC0 ?is_polymorphic@asn_bmpString@JONAH@@UBE_NXZ
      13275 1629 0048E060 ?is_polymorphic@asn_charstring@JONAH@@UBE_NXZ
      13276 162A 0048E060 ?is_polymorphic@asn_choice@JONAH@@UBE_NXZ
      13277 162B 0048CAC0 ?is_polymorphic@asn_ia5String@JONAH@@UBE_NXZ
      13278 162C 0048CAC0 ?is_polymorphic@asn_object@JONAH@@UBE_NXZ
      13279 162D 0048CAC0 ?is_polymorphic@asn_teletexString@JONAH@@UBE_NXZ
      13280 162E 0048CAC0 ?is_polymorphic@asn_universalString@JONAH@@UBE_NXZ
      13281 162F 005839E0 ?is_present@?$asn_implicit@V?$asn_sequenceof@VGeneralName@JONAH@@@JONAH@@$01$00@JONAH@@UBE_NXZ
      13282 1630 005839E0 ?is_present@?$asn_implicit@V?$asn_sequenceof@VGeneralName@JONAH@@@JONAH@@$01$01@JONAH@@UBE_NXZ
      13283 1631 005839E0 ?is_present@?$asn_implicit@V?$asn_sequenceof@VGeneralName@JONAH@@@JONAH@@$01$0A@@JONAH@@UBE_NXZ
      13284 1632 005839E0 ?is_present@?$asn_implicit@V?$asn_sequenceof@VGeneralSubtree@JONAH@@@JONAH@@$01$00@JONAH@@UBE_NXZ
      13285 1633 005839E0 ?is_present@?$asn_implicit@V?$asn_sequenceof@VGeneralSubtree@JONAH@@@JONAH@@$01$0A@@JONAH@@UBE_NXZ
      13286 1634 005839E0 ?is_present@?$asn_implicit@VAlgorithmIdentifier@JONAH@@$01$00@JONAH@@UBE_NXZ
      13287 1635 005839E0 ?is_present@?$asn_implicit@VAlgorithmIdentifier@JONAH@@$01$01@JONAH@@UBE_NXZ
      13288 1636 005839E0 ?is_present@?$asn_implicit@VAlgorithmIdentifier@JONAH@@$01$02@JONAH@@UBE_NXZ
      13289 1637 005839E0 ?is_present@?$asn_implicit@VAlgorithmIdentifier@JONAH@@$01$0A@@JONAH@@UBE_NXZ
      13290 1638 005839E0 ?is_present@?$asn_implicit@VAttributes@JONAH@@$01$00@JONAH@@UBE_NXZ
      13291 1639 005839E0 ?is_present@?$asn_implicit@VAttributes@JONAH@@$01$0A@@JONAH@@UBE_NXZ
      13292 163A 005839E0 ?is_present@?$asn_implicit@VCertRevocationLists@JONAH@@$01$00@JONAH@@UBE_NXZ
      13293 163B 005839E0 ?is_present@?$asn_implicit@VEDIPartyName@JONAH@@$01$04@JONAH@@UBE_NXZ
      13294 163C 005839E0 ?is_present@?$asn_implicit@VExtendedCertsAndCertificates@JONAH@@$01$0A@@JONAH@@UBE_NXZ
      13295 163D 005839E0 ?is_present@?$asn_implicit@VOptionalValidity@JONAH@@$01$03@JONAH@@UBE_NXZ
      13296 163E 005839E0 ?is_present@?$asn_implicit@VPOPOSigningKey@JONAH@@$01$00@JONAH@@UBE_NXZ
      13297 163F 005839E0 ?is_present@?$asn_implicit@VPOPOSigningKeyInput@JONAH@@$01$0A@@JONAH@@UBE_NXZ
      13298 1640 005839E0 ?is_present@?$asn_implicit@VReasonFlags@JONAH@@$01$00@JONAH@@UBE_NXZ
      13299 1641 005839E0 ?is_present@?$asn_implicit@VReasonFlags@JONAH@@$01$02@JONAH@@UBE_NXZ
      13300 1642 005839E0 ?is_present@?$asn_implicit@VSubjectPublicKeyInfo@JONAH@@$01$05@JONAH@@UBE_NXZ
      13301 1643 005839E0 ?is_present@?$asn_implicit@Vasn_RDN@JONAH@@$01$00@JONAH@@UBE_NXZ
      13302 1644 005839E0 ?is_present@?$asn_implicit@Vasn_bitstring@JONAH@@$01$00@JONAH@@UBE_NXZ
      13303 1645 005839E0 ?is_present@?$asn_implicit@Vasn_bitstring@JONAH@@$01$01@JONAH@@UBE_NXZ
      13304 1646 005839E0 ?is_present@?$asn_implicit@Vasn_bitstring@JONAH@@$01$06@JONAH@@UBE_NXZ
      13305 1647 005839E0 ?is_present@?$asn_implicit@Vasn_bitstring@JONAH@@$01$07@JONAH@@UBE_NXZ
      13306 1648 005839E0 ?is_present@?$asn_implicit@Vasn_boolean@JONAH@@$01$00@JONAH@@UBE_NXZ
      13307 1649 005839E0 ?is_present@?$asn_implicit@Vasn_boolean@JONAH@@$01$01@JONAH@@UBE_NXZ
      13308 164A 005839E0 ?is_present@?$asn_implicit@Vasn_boolean@JONAH@@$01$03@JONAH@@UBE_NXZ
      13309 164B 005839E0 ?is_present@?$asn_implicit@Vasn_generalizedtime@JONAH@@$01$00@JONAH@@UBE_NXZ
      13310 164C 005839E0 ?is_present@?$asn_implicit@Vasn_generalizedtime@JONAH@@$01$0A@@JONAH@@UBE_NXZ
      13311 164D 005839E0 ?is_present@?$asn_implicit@Vasn_ia5String@JONAH@@$01$00@JONAH@@UBE_NXZ
      13312 164E 005839E0 ?is_present@?$asn_implicit@Vasn_ia5String@JONAH@@$01$01@JONAH@@UBE_NXZ
      13313 164F 005839E0 ?is_present@?$asn_implicit@Vasn_ia5String@JONAH@@$01$05@JONAH@@UBE_NXZ
      13314 1650 005839E0 ?is_present@?$asn_implicit@Vasn_integer@JONAH@@$01$00@JONAH@@UBE_NXZ
      13315 1651 005839E0 ?is_present@?$asn_implicit@Vasn_integer@JONAH@@$01$01@JONAH@@UBE_NXZ
      13316 1652 005839E0 ?is_present@?$asn_implicit@Vasn_integer@JONAH@@$01$0A@@JONAH@@UBE_NXZ
      13317 1653 005839E0 ?is_present@?$asn_implicit@Vasn_null@JONAH@@$01$0A@@JONAH@@UBE_NXZ
      13318 1654 005839E0 ?is_present@?$asn_implicit@Vasn_octetstring@JONAH@@$01$03@JONAH@@UBE_NXZ
      13319 1655 005839E0 ?is_present@?$asn_implicit@Vasn_octetstring@JONAH@@$01$06@JONAH@@UBE_NXZ
      13320 1656 005839E0 ?is_present@?$asn_implicit@Vasn_octetstring@JONAH@@$01$0A@@JONAH@@UBE_NXZ
      13321 1657 005839E0 ?is_present@?$asn_implicit@Vasn_oid@JONAH@@$01$07@JONAH@@UBE_NXZ
      13322 1658 005839E0 ?is_present@?$asn_implicit@Vx509_Extensions@JONAH@@$01$08@JONAH@@UBE_NXZ
      13323 1659 0048E060 ?is_present@asn_nothing@JONAH@@UBE_NXZ
      13324 165A 0048E060 ?is_present@asn_null@JONAH@@UBE_NXZ
      13325 165B 005BE230 ?is_present@asn_object@JONAH@@UBE_NXZ
      13326 165C 005C1EF0 ?is_valid@asn_composite@JONAH@@UBE_N_N@Z
      13327 165D 005C0080 ?is_valid@asn_nothing@JONAH@@UBE_N_N@Z
      13328 165E 005C0080 ?is_valid@asn_null@JONAH@@UBE_N_N@Z
      13329 165F 005BE1F0 ?is_valid@asn_object@JONAH@@UBE_N_N@Z
      13330 1660 007A2A60 ?logDxloException@XmlLog@@UAEXPBDABVDxloException@@H@Z
      13331 1661 007A2C40 ?logLmbcsMessage@XmlLog@@UAEXPBD0H@Z
      13332 1662 007A27D0 ?logSaxParserException@XmlLog@@UAEXPBDABVXmlSAXParserException@@H@Z
      13333 1663 005BCE50 ?malloc@memory_funcs_t@JONAH@@QAEPAXI@Z
      13334 1664 005C5F90 ?mod2@bigUInt@@QAEAAV1@I@Z
      13335 1665 005C5F80 ?mod@bigUInt@@QAEAAV1@ABV1@@Z
      13336 1666 005C60E0 ?msw@bigUInt@@QBEIXZ
      13337 1667 0047F370 ?newEngineObj@CSOAPFactory@@SGPAVCSOAPEngine@@PAVCSOAPDriver@@@Z
      13338 1668 005B92F0 ?normalize@asn_AVA@JONAH@@UAEHXZ
      13339 1669 005C57F0 ?normalize@asn_UTCtime@JONAH@@UAEHXZ
      13340 166A 005C0870 ?normalize@asn_choice@JONAH@@UAEHXZ
      13341 166B 005BF0E0 ?normalize@asn_composite@JONAH@@UAEHXZ
      13342 166C 005CD700 ?normalize@asn_directoryString@JONAH@@UAEHXZ
      13343 166D 005C5910 ?normalize@asn_generalizedtime@JONAH@@UAEHXZ
      13344 166E 001ACEA0 ?normalize@asn_object@JONAH@@UAEHXZ
      13345 166F 005C5EF0 ?onesComp@bigUInt@@QAEIXZ
      13346 1670 005A9250 ?parseIPaddress@JONAH@@YAGPBEAAVbuffer_t@1@@Z
      13347 1671 005BA200 ?propagate_syntax_options@asn_RDN@JONAH@@IAEXXZ
      13348 1672 005BB680 ?propagate_syntax_options@asn_x500name@JONAH@@IAEXXZ
      13349 1673 005C2790 ?read64@asn_object@JONAH@@UAEHPBDK@Z
      13350 1674 005D9440 ?read64@lsasn1@JONAH@@UAEHPBDK@Z
      13351 1675 005D1D20 ?read@PFX@JONAH@@QAEIPAEAAVr_buffer_t@2@@Z
      13352 1676 00491B80 ?read@PFX@JONAH@@UAEHAAVr_buffer_t@2@@Z
      13353 1677 005C42A0 ?read@asn_any@JONAH@@UAEHAAVr_buffer_t@2@@Z
      13354 1678 005C09E0 ?read@asn_choice@JONAH@@UAEHAAVr_buffer_t@2@@Z
      13355 1679 008D8AA0 ?read@asn_nothing@JONAH@@UAEHAAVr_buffer_t@2@@Z
      13356 167A 005C2980 ?read@asn_object@JONAH@@UAEHAAVr_buffer_t@2@@Z
      13357 167B 007A42B0 ?readBytes@XmlReformatter@@UAEKPAEK@Z
      13358 167C 005C28B0 ?readHAC@asn_object@JONAH@@UAEHPBDK@Z
      13359 167D 005C2670 ?readHex@asn_object@JONAH@@UAEHPBDK@Z
      13360 167E 005D36D0 ?read_file@PFX@JONAH@@QAEIQAE0@Z
      13361 167F 005D5BB0 ?read_file_extract_certs_and_keys@PFX@JONAH@@QAEIQAE0P6AHPAX1H1H@Z1P6AH11HH1H@Z1@Z
      13362 1680 005BCEE0 ?realloc@memory_funcs_t@JONAH@@QAEPAXPAXI@Z
      13363 1681 005BF190 ?register_child@asn_composite@JONAH@@UAEHPAVasn_object@2@@Z
      13364 1682 005BF250 ?register_child_before@asn_composite@JONAH@@UAEHPAVasn_object@2@@Z
      13365 1683 005BD9F0 ?reset@r_buffer_t@JONAH@@UAEXXZ
      13366 1684 005C5AB0 ?resize@bigUInt@@AAEIK@Z
      13367 1685 005C08A0 ?select@asn_choice@JONAH@@QAEHI@Z
      13368 1686 005C08F0 ?selected@asn_choice@JONAH@@QBEHXZ
      13369 1687 005BD9D0 ?set@r_buffer_t@JONAH@@UAEXPAEI@Z
      13370 1688 005B7D90 ?setDefaultX500nameSyntax@JONAH@@YAXW4x500name_syntax_t@1@@Z
      13371 1689 007A3700 ?setEncodingAttribute@XmlReformatter@@QAEGPBD@Z
      13372 168A 00314BA0 ?setInputUsesSingleCharset@XmlReformatter@@QAEXH@Z
      13373 168B 007A3AB0 ?setInputXmlDeclCharset@XmlReformatter@@QAEGPBD@Z
      13374 168C 007A2620 ?setLMBCSLogComment@XmlLog@@UAEGPBD@Z
      13375 168D 007A31A0 ?setOutputUsesSingleCharset@XmlReformatter@@QAEXH@Z
      13376 168E 007A3B30 ?setOutputXmlDeclCharset@XmlReformatter@@QAEGPBD@Z
      13377 168F 007A31E0 ?setStandaloneAttribute@XmlReformatter@@QAEGPBD@Z
      13378 1690 005B9290 ?set_attr_value_separator@asn_AVA@JONAH@@QAEHD@Z
      13379 1691 005BA3F0 ?set_attr_value_separator@asn_RDN@JONAH@@QAEHD@Z
      13380 1692 005BB8E0 ?set_attr_value_separator@asn_x500name@JONAH@@QAEHD@Z
      13381 1693 005B91C0 ?set_attr_value_separator_IA5@asn_AVA@JONAH@@QAEHE@Z
      13382 1694 005BA2D0 ?set_attr_value_separator_IA5@asn_RDN@JONAH@@QAEHE@Z
      13383 1695 005BB7A0 ?set_attr_value_separator_IA5@asn_x500name@JONAH@@QAEHE@Z
      13384 1696 005BA430 ?set_ava_separator@asn_RDN@JONAH@@QAEHD@Z
      13385 1697 005BB8A0 ?set_ava_separator@asn_x500name@JONAH@@QAEHD@Z
      13386 1698 005BA2F0 ?set_ava_separator_IA5@asn_RDN@JONAH@@QAEHE@Z
      13387 1699 005BB780 ?set_ava_separator_IA5@asn_x500name@JONAH@@QAEHE@Z
      13388 169A 005BF890 ?set_bit@asn_namedbits@JONAH@@QAEHI_N@Z
      13389 169B 005BEC30 ?set_class@asn_object@JONAH@@UAEXH@Z
      13390 169C 005B9260 ?set_close_quote_mark@asn_AVA@JONAH@@QAEHD@Z
      13391 169D 005BA3B0 ?set_close_quote_mark@asn_RDN@JONAH@@QAEHD@Z
      13392 169E 005BB9A0 ?set_close_quote_mark@asn_x500name@JONAH@@QAEHD@Z
      13393 169F 005B91A0 ?set_close_quote_mark_IA5@asn_AVA@JONAH@@QAEHE@Z
      13394 16A0 005BA2B0 ?set_close_quote_mark_IA5@asn_RDN@JONAH@@QAEHE@Z
      13395 16A1 005BB800 ?set_close_quote_mark_IA5@asn_x500name@JONAH@@QAEHE@Z
      13396 16A2 005C73F0 ?set_codeset@asn_charstring@JONAH@@MAEHI@Z
      13397 16A3 0048CA40 ?set_cons_int@asn_object@JONAH@@QAEX_N@Z
      13398 16A4 005C4FA0 ?set_default_value@asn_bitstring@JONAH@@QAEHPAEI@Z
      13399 16A5 0048D150 ?set_default_value@asn_bitstring@JONAH@@UAEXPAVasn_object@2@@Z
      13400 16A6 005C5080 ?set_default_value@asn_boolean@JONAH@@QAEH_N@Z
      13401 16A7 0048D150 ?set_default_value@asn_boolean@JONAH@@UAEXPAVasn_object@2@@Z
      13402 16A8 005C4870 ?set_default_value@asn_integer@JONAH@@QAEHJ@Z
      13403 16A9 005C4950 ?set_default_value@asn_integer@JONAH@@QAEHPAEI@Z
      13404 16AA 0048D150 ?set_default_value@asn_integer@JONAH@@UAEXPAVasn_object@2@@Z
      13405 16AB 005BEC90 ?set_default_value@asn_object@JONAH@@MAEXPAV12@@Z
      13406 16AC 005C5520 ?set_default_value@asn_octetstring@JONAH@@QAEHPAEI@Z
      13407 16AD 0048D150 ?set_default_value@asn_octetstring@JONAH@@UAEXPAVasn_object@2@@Z
      13408 16AE 005C56C0 ?set_default_value@asn_oid@JONAH@@QAEHPAKI@Z
      13409 16AF 0048D150 ?set_default_value@asn_oid@JONAH@@UAEXPAVasn_object@2@@Z
      13410 16B0 00584430 ?set_empty_permitted@?$asn_explicit@V?$asn_sequenceof@VCertificateRequest@JONAH@@@JONAH@@$01$0A@@JONAH@@UAEI_N@Z
      13411 16B1 00584430 ?set_empty_permitted@?$asn_explicit@V?$asn_sequenceof@VRevocationRequest@JONAH@@@JONAH@@$01$00@JONAH@@UAEI_N@Z
      13412 16B2 00584430 ?set_empty_permitted@?$asn_explicit@V?$asn_setof@VAliasWithTag@JONAH@@@JONAH@@$01$00@JONAH@@UAEI_N@Z
      13413 16B3 00584430 ?set_empty_permitted@?$asn_explicit@VAlgorithmIdentifier@JONAH@@$01$00@JONAH@@UAEI_N@Z
      13414 16B4 00584430 ?set_empty_permitted@?$asn_explicit@VAlgorithmIdentifier@JONAH@@$01$0A@@JONAH@@UAEI_N@Z
      13415 16B5 00584430 ?set_empty_permitted@?$asn_explicit@VCAKeyUpdAnnContent@JONAH@@$01$0P@@JONAH@@UAEI_N@Z
      13416 16B6 00584430 ?set_empty_permitted@?$asn_explicit@VCALdapPostInfo@JONAH@@$01$0A@@JONAH@@UAEI_N@Z
      13417 16B7 00584430 ?set_empty_permitted@?$asn_explicit@VCRLAnnContent@JONAH@@$01$00@JONAH@@UAEI_N@Z
      13418 16B8 00584430 ?set_empty_permitted@?$asn_explicit@VCRLAnnContent@JONAH@@$01$0BC@@JONAH@@UAEI_N@Z
      13419 16B9 00584430 ?set_empty_permitted@?$asn_explicit@VCertId@JONAH@@$01$00@JONAH@@UAEI_N@Z
      13420 16BA 00584430 ?set_empty_permitted@?$asn_explicit@VCertIds@JONAH@@$01$0A@@JONAH@@UAEI_N@Z
      13421 16BB 00584430 ?set_empty_permitted@?$asn_explicit@VCertRepMessage@JONAH@@$01$00@JONAH@@UAEI_N@Z
      13422 16BC 00584430 ?set_empty_permitted@?$asn_explicit@VCertRepMessage@JONAH@@$01$02@JONAH@@UAEI_N@Z
      13423 16BD 00584430 ?set_empty_permitted@?$asn_explicit@VCertRepMessage@JONAH@@$01$07@JONAH@@UAEI_N@Z
      13424 16BE 00584430 ?set_empty_permitted@?$asn_explicit@VCertRepMessage@JONAH@@$01$0O@@JONAH@@UAEI_N@Z
      13425 16BF 00584430 ?set_empty_permitted@?$asn_explicit@VCertReqMessages@JONAH@@$01$01@JONAH@@UAEI_N@Z
      13426 16C0 00584430 ?set_empty_permitted@?$asn_explicit@VCertReqMessages@JONAH@@$01$06@JONAH@@UAEI_N@Z
      13427 16C1 00584430 ?set_empty_permitted@?$asn_explicit@VCertReqMessages@JONAH@@$01$08@JONAH@@UAEI_N@Z
      13428 16C2 00584430 ?set_empty_permitted@?$asn_explicit@VCertReqMessages@JONAH@@$01$0A@@JONAH@@UAEI_N@Z
      13429 16C3 00584430 ?set_empty_permitted@?$asn_explicit@VCertReqMessages@JONAH@@$01$0N@@JONAH@@UAEI_N@Z
      13430 16C4 00584430 ?set_empty_permitted@?$asn_explicit@VCertificates@JONAH@@$01$00@JONAH@@UAEI_N@Z
      13431 16C5 00584430 ?set_empty_permitted@?$asn_explicit@VCertificationRequest@JONAH@@$01$03@JONAH@@UAEI_N@Z
      13432 16C6 00584430 ?set_empty_permitted@?$asn_explicit@VCertifiedKeyPairs@JONAH@@$01$01@JONAH@@UAEI_N@Z
      13433 16C7 00584430 ?set_empty_permitted@?$asn_explicit@VContent@JONAH@@$01$0A@@JONAH@@UAEI_N@Z
      13434 16C8 00584430 ?set_empty_permitted@?$asn_explicit@VDistributionPointName@JONAH@@$01$0A@@JONAH@@UAEI_N@Z
      13435 16C9 00584430 ?set_empty_permitted@?$asn_explicit@VEncryptedKey@JONAH@@$01$0A@@JONAH@@UAEI_N@Z
      13436 16CA 00584430 ?set_empty_permitted@?$asn_explicit@VEncryptedValue@JONAH@@$01$00@JONAH@@UAEI_N@Z
      13437 16CB 00584430 ?set_empty_permitted@?$asn_explicit@VEncryptedValue@JONAH@@$01$0A@@JONAH@@UAEI_N@Z
      13438 16CC 00584430 ?set_empty_permitted@?$asn_explicit@VEnvelopedData@JONAH@@$01$0A@@JONAH@@UAEI_N@Z
      13439 16CD 00584430 ?set_empty_permitted@?$asn_explicit@VErrorMsgContent@JONAH@@$01$0BH@@JONAH@@UAEI_N@Z
      13440 16CE 00584430 ?set_empty_permitted@?$asn_explicit@VGeneralName@JONAH@@$01$0A@@JONAH@@UAEI_N@Z
      13441 16CF 00584430 ?set_empty_permitted@?$asn_explicit@VInfoTypesAndValues@JONAH@@$01$07@JONAH@@UAEI_N@Z
      13442 16D0 00584430 ?set_empty_permitted@?$asn_explicit@VInfoTypesAndValues@JONAH@@$01$0BF@@JONAH@@UAEI_N@Z
      13443 16D1 00584430 ?set_empty_permitted@?$asn_explicit@VInfoTypesAndValues@JONAH@@$01$0BG@@JONAH@@UAEI_N@Z
      13444 16D2 00584430 ?set_empty_permitted@?$asn_explicit@VJonahTime@JONAH@@$01$00@JONAH@@UAEI_N@Z
      13445 16D3 00584430 ?set_empty_permitted@?$asn_explicit@VJonahTime@JONAH@@$01$0A@@JONAH@@UAEI_N@Z
      13446 16D4 00584430 ?set_empty_permitted@?$asn_explicit@VKeyRecRepContent@JONAH@@$01$09@JONAH@@UAEI_N@Z
      13447 16D5 00584430 ?set_empty_permitted@?$asn_explicit@VNotesLicenseExt@JONAH@@$01$00@JONAH@@UAEI_N@Z
      13448 16D6 00584430 ?set_empty_permitted@?$asn_explicit@VPKIFreeText@JONAH@@$01$06@JONAH@@UAEI_N@Z
      13449 16D7 00584430 ?set_empty_permitted@?$asn_explicit@VPKIPublicationInfo@JONAH@@$01$00@JONAH@@UAEI_N@Z
      13450 16D8 00584430 ?set_empty_permitted@?$asn_explicit@VPOPODecKeyChallContent@JONAH@@$01$04@JONAH@@UAEI_N@Z
      13451 16D9 00584430 ?set_empty_permitted@?$asn_explicit@VPOPODecKeyRespContent@JONAH@@$01$05@JONAH@@UAEI_N@Z
      13452 16DA 00584430 ?set_empty_permitted@?$asn_explicit@VPOPOPrivKey@JONAH@@$01$01@JONAH@@UAEI_N@Z
      13453 16DB 00584430 ?set_empty_permitted@?$asn_explicit@VPOPOPrivKey@JONAH@@$01$02@JONAH@@UAEI_N@Z
      13454 16DC 00584430 ?set_empty_permitted@?$asn_explicit@VRACCertPkiConfirmWarp@JONAH@@$01$02@JONAH@@UAEI_N@Z
      13455 16DD 00584430 ?set_empty_permitted@?$asn_explicit@VRACCertWarp@JONAH@@$01$00@JONAH@@UAEI_N@Z
      13456 16DE 00584430 ?set_empty_permitted@?$asn_explicit@VRevAnnContent@JONAH@@$01$0BB@@JONAH@@UAEI_N@Z
      13457 16DF 00584430 ?set_empty_permitted@?$asn_explicit@VRevRepContent@JONAH@@$01$0M@@JONAH@@UAEI_N@Z
      13458 16E0 00584430 ?set_empty_permitted@?$asn_explicit@VRevReqContent@JONAH@@$01$0L@@JONAH@@UAEI_N@Z
      13459 16E1 00584430 ?set_empty_permitted@?$asn_explicit@VSignedContent@JONAH@@$01$0A@@JONAH@@UAEI_N@Z
      13460 16E2 00584430 ?set_empty_permitted@?$asn_explicit@VSubsequentMessage@JONAH@@$01$00@JONAH@@UAEI_N@Z
      13461 16E3 00584430 ?set_empty_permitted@?$asn_explicit@Vasn_UTF8String@JONAH@@$01$02@JONAH@@UAEI_N@Z
      13462 16E4 00584430 ?set_empty_permitted@?$asn_explicit@Vasn_UTF8String@JONAH@@$01$0A@@JONAH@@UAEI_N@Z
      13463 16E5 00584430 ?set_empty_permitted@?$asn_explicit@Vasn_any@JONAH@@$01$01@JONAH@@UAEI_N@Z
      13464 16E6 00584430 ?set_empty_permitted@?$asn_explicit@Vasn_any@JONAH@@$01$03@JONAH@@UAEI_N@Z
      13465 16E7 00584430 ?set_empty_permitted@?$asn_explicit@Vasn_any@JONAH@@$01$0A@@JONAH@@UAEI_N@Z
      13466 16E8 00584430 ?set_empty_permitted@?$asn_explicit@Vasn_any@JONAH@@$01$0BE@@JONAH@@UAEI_N@Z
      13467 16E9 00584430 ?set_empty_permitted@?$asn_explicit@Vasn_bitstring@JONAH@@$01$01@JONAH@@UAEI_N@Z
      13468 16EA 00584430 ?set_empty_permitted@?$asn_explicit@Vasn_bitstring@JONAH@@$01$0A@@JONAH@@UAEI_N@Z
      13469 16EB 00584430 ?set_empty_permitted@?$asn_explicit@Vasn_boolean@JONAH@@$01$00@JONAH@@UAEI_N@Z
      13470 16EC 00584430 ?set_empty_permitted@?$asn_explicit@Vasn_boolean@JONAH@@$01$01@JONAH@@UAEI_N@Z
      13471 16ED 00584430 ?set_empty_permitted@?$asn_explicit@Vasn_boolean@JONAH@@$01$0A@@JONAH@@UAEI_N@Z
      13472 16EE 00584430 ?set_empty_permitted@?$asn_explicit@Vasn_directoryString@JONAH@@$01$00@JONAH@@UAEI_N@Z
      13473 16EF 00584430 ?set_empty_permitted@?$asn_explicit@Vasn_directoryString@JONAH@@$01$0A@@JONAH@@UAEI_N@Z
      13474 16F0 00584430 ?set_empty_permitted@?$asn_explicit@Vasn_generalizedtime@JONAH@@$01$0A@@JONAH@@UAEI_N@Z
      13475 16F1 00584430 ?set_empty_permitted@?$asn_explicit@Vasn_ia5String@JONAH@@$01$0A@@JONAH@@UAEI_N@Z
      13476 16F2 00584430 ?set_empty_permitted@?$asn_explicit@Vasn_integer@JONAH@@$01$0A@@JONAH@@UAEI_N@Z
      13477 16F3 00584430 ?set_empty_permitted@?$asn_explicit@Vasn_null@JONAH@@$01$0BD@@JONAH@@UAEI_N@Z
      13478 16F4 00584430 ?set_empty_permitted@?$asn_explicit@Vasn_octetstring@JONAH@@$01$00@JONAH@@UAEI_N@Z
      13479 16F5 00584430 ?set_empty_permitted@?$asn_explicit@Vasn_octetstring@JONAH@@$01$01@JONAH@@UAEI_N@Z
      13480 16F6 00584430 ?set_empty_permitted@?$asn_explicit@Vasn_octetstring@JONAH@@$01$02@JONAH@@UAEI_N@Z
      13481 16F7 00584430 ?set_empty_permitted@?$asn_explicit@Vasn_octetstring@JONAH@@$01$03@JONAH@@UAEI_N@Z
      13482 16F8 00584430 ?set_empty_permitted@?$asn_explicit@Vasn_octetstring@JONAH@@$01$04@JONAH@@UAEI_N@Z
      13483 16F9 00584430 ?set_empty_permitted@?$asn_explicit@Vasn_octetstring@JONAH@@$01$05@JONAH@@UAEI_N@Z
      13484 16FA 00584430 ?set_empty_permitted@?$asn_explicit@Vasn_octetstring@JONAH@@$01$0A@@JONAH@@UAEI_N@Z
      13485 16FB 00584430 ?set_empty_permitted@?$asn_explicit@Vasn_x500name@JONAH@@$01$02@JONAH@@UAEI_N@Z
      13486 16FC 00584430 ?set_empty_permitted@?$asn_explicit@Vasn_x500name@JONAH@@$01$03@JONAH@@UAEI_N@Z
      13487 16FD 00584430 ?set_empty_permitted@?$asn_explicit@Vasn_x500name@JONAH@@$01$04@JONAH@@UAEI_N@Z
      13488 16FE 00584430 ?set_empty_permitted@?$asn_explicit@Vx509_Extensions@JONAH@@$01$02@JONAH@@UAEI_N@Z
      13489 16FF 00584430 ?set_empty_permitted@?$asn_explicit@Vx509_Extensions@JONAH@@$01$0A@@JONAH@@UAEI_N@Z
      13490 1700 00584430 ?set_empty_permitted@?$asn_explicit@Vx509_certificate@JONAH@@$01$0A@@JONAH@@UAEI_N@Z
      13491 1701 00584430 ?set_empty_permitted@?$asn_explicit@Vx509_certificate@JONAH@@$01$0BA@@JONAH@@UAEI_N@Z
      13492 1702 00584430 ?set_empty_permitted@?$asn_implicit@V?$asn_sequenceof@VGeneralName@JONAH@@@JONAH@@$01$00@JONAH@@UAEI_N@Z
      13493 1703 00584430 ?set_empty_permitted@?$asn_implicit@V?$asn_sequenceof@VGeneralName@JONAH@@@JONAH@@$01$01@JONAH@@UAEI_N@Z
      13494 1704 00584430 ?set_empty_permitted@?$asn_implicit@V?$asn_sequenceof@VGeneralName@JONAH@@@JONAH@@$01$0A@@JONAH@@UAEI_N@Z
      13495 1705 00584430 ?set_empty_permitted@?$asn_implicit@V?$asn_sequenceof@VGeneralSubtree@JONAH@@@JONAH@@$01$00@JONAH@@UAEI_N@Z
      13496 1706 00584430 ?set_empty_permitted@?$asn_implicit@V?$asn_sequenceof@VGeneralSubtree@JONAH@@@JONAH@@$01$0A@@JONAH@@UAEI_N@Z
      13497 1707 00584430 ?set_empty_permitted@?$asn_implicit@VAlgorithmIdentifier@JONAH@@$01$00@JONAH@@UAEI_N@Z
      13498 1708 00584430 ?set_empty_permitted@?$asn_implicit@VAlgorithmIdentifier@JONAH@@$01$01@JONAH@@UAEI_N@Z
      13499 1709 00584430 ?set_empty_permitted@?$asn_implicit@VAlgorithmIdentifier@JONAH@@$01$02@JONAH@@UAEI_N@Z
      13500 170A 00584430 ?set_empty_permitted@?$asn_implicit@VAlgorithmIdentifier@JONAH@@$01$0A@@JONAH@@UAEI_N@Z
      13501 170B 00584430 ?set_empty_permitted@?$asn_implicit@VAttributes@JONAH@@$01$00@JONAH@@UAEI_N@Z
      13502 170C 00584430 ?set_empty_permitted@?$asn_implicit@VAttributes@JONAH@@$01$0A@@JONAH@@UAEI_N@Z
      13503 170D 00584430 ?set_empty_permitted@?$asn_implicit@VCertRevocationLists@JONAH@@$01$00@JONAH@@UAEI_N@Z
      13504 170E 00584430 ?set_empty_permitted@?$asn_implicit@VEDIPartyName@JONAH@@$01$04@JONAH@@UAEI_N@Z
      13505 170F 00584430 ?set_empty_permitted@?$asn_implicit@VExtendedCertsAndCertificates@JONAH@@$01$0A@@JONAH@@UAEI_N@Z
      13506 1710 00584430 ?set_empty_permitted@?$asn_implicit@VOptionalValidity@JONAH@@$01$03@JONAH@@UAEI_N@Z
      13507 1711 00584430 ?set_empty_permitted@?$asn_implicit@VPOPOSigningKey@JONAH@@$01$00@JONAH@@UAEI_N@Z
      13508 1712 00584430 ?set_empty_permitted@?$asn_implicit@VPOPOSigningKeyInput@JONAH@@$01$0A@@JONAH@@UAEI_N@Z
      13509 1713 00584430 ?set_empty_permitted@?$asn_implicit@VReasonFlags@JONAH@@$01$00@JONAH@@UAEI_N@Z
      13510 1714 00584430 ?set_empty_permitted@?$asn_implicit@VReasonFlags@JONAH@@$01$02@JONAH@@UAEI_N@Z
      13511 1715 00584430 ?set_empty_permitted@?$asn_implicit@VSubjectPublicKeyInfo@JONAH@@$01$05@JONAH@@UAEI_N@Z
      13512 1716 00584430 ?set_empty_permitted@?$asn_implicit@Vasn_RDN@JONAH@@$01$00@JONAH@@UAEI_N@Z
      13513 1717 00584430 ?set_empty_permitted@?$asn_implicit@Vasn_bitstring@JONAH@@$01$00@JONAH@@UAEI_N@Z
      13514 1718 00584430 ?set_empty_permitted@?$asn_implicit@Vasn_bitstring@JONAH@@$01$01@JONAH@@UAEI_N@Z
      13515 1719 00584430 ?set_empty_permitted@?$asn_implicit@Vasn_bitstring@JONAH@@$01$06@JONAH@@UAEI_N@Z
      13516 171A 00584430 ?set_empty_permitted@?$asn_implicit@Vasn_bitstring@JONAH@@$01$07@JONAH@@UAEI_N@Z
      13517 171B 00584430 ?set_empty_permitted@?$asn_implicit@Vasn_boolean@JONAH@@$01$00@JONAH@@UAEI_N@Z
      13518 171C 00584430 ?set_empty_permitted@?$asn_implicit@Vasn_boolean@JONAH@@$01$01@JONAH@@UAEI_N@Z
      13519 171D 00584430 ?set_empty_permitted@?$asn_implicit@Vasn_boolean@JONAH@@$01$03@JONAH@@UAEI_N@Z
      13520 171E 00584430 ?set_empty_permitted@?$asn_implicit@Vasn_generalizedtime@JONAH@@$01$00@JONAH@@UAEI_N@Z
      13521 171F 00584430 ?set_empty_permitted@?$asn_implicit@Vasn_generalizedtime@JONAH@@$01$0A@@JONAH@@UAEI_N@Z
      13522 1720 00584430 ?set_empty_permitted@?$asn_implicit@Vasn_ia5String@JONAH@@$01$00@JONAH@@UAEI_N@Z
      13523 1721 00584430 ?set_empty_permitted@?$asn_implicit@Vasn_ia5String@JONAH@@$01$01@JONAH@@UAEI_N@Z
      13524 1722 00584430 ?set_empty_permitted@?$asn_implicit@Vasn_ia5String@JONAH@@$01$05@JONAH@@UAEI_N@Z
      13525 1723 00584430 ?set_empty_permitted@?$asn_implicit@Vasn_integer@JONAH@@$01$00@JONAH@@UAEI_N@Z
      13526 1724 00584430 ?set_empty_permitted@?$asn_implicit@Vasn_integer@JONAH@@$01$01@JONAH@@UAEI_N@Z
      13527 1725 00584430 ?set_empty_permitted@?$asn_implicit@Vasn_integer@JONAH@@$01$0A@@JONAH@@UAEI_N@Z
      13528 1726 00584430 ?set_empty_permitted@?$asn_implicit@Vasn_null@JONAH@@$01$0A@@JONAH@@UAEI_N@Z
      13529 1727 00584430 ?set_empty_permitted@?$asn_implicit@Vasn_octetstring@JONAH@@$01$03@JONAH@@UAEI_N@Z
      13530 1728 00584430 ?set_empty_permitted@?$asn_implicit@Vasn_octetstring@JONAH@@$01$06@JONAH@@UAEI_N@Z
      13531 1729 00584430 ?set_empty_permitted@?$asn_implicit@Vasn_octetstring@JONAH@@$01$0A@@JONAH@@UAEI_N@Z
      13532 172A 00584430 ?set_empty_permitted@?$asn_implicit@Vasn_oid@JONAH@@$01$07@JONAH@@UAEI_N@Z
      13533 172B 00584430 ?set_empty_permitted@?$asn_implicit@Vx509_Extensions@JONAH@@$01$08@JONAH@@UAEI_N@Z
      13534 172C 005BF320 ?set_empty_permitted@asn_composite@JONAH@@UAEI_N@Z
      13535 172D 008D8AA0 ?set_empty_permitted@asn_object@JONAH@@UAEI_N@Z
      13536 172E 0048CA60 ?set_gencons_int@asn_object@JONAH@@QBEX_N@Z
      13537 172F 0048CA50 ?set_indef_int@asn_object@JONAH@@QAEX_N@Z
      13538 1730 005B9140 ?set_leading_rdn_separator@asn_x500name@JONAH@@QAEH_N@Z
      13539 1731 005C6FB0 ?set_now@JonahTime@JONAH@@QAEHXZ
      13540 1732 005BDD60 ?set_objType@asn_object@JONAH@@QBEXPBD@Z
      13541 1733 005B92C0 ?set_oid_subident_separator@asn_AVA@JONAH@@QAEHD@Z
      13542 1734 005BA470 ?set_oid_subident_separator@asn_RDN@JONAH@@QAEHD@Z
      13543 1735 005BB820 ?set_oid_subident_separator@asn_x500name@JONAH@@QAEHD@Z
      13544 1736 005B91E0 ?set_oid_subident_separator_IA5@asn_AVA@JONAH@@QAEHE@Z
      13545 1737 005BA310 ?set_oid_subident_separator_IA5@asn_RDN@JONAH@@QAEHE@Z
      13546 1738 005BB740 ?set_oid_subident_separator_IA5@asn_x500name@JONAH@@QAEHE@Z
      13547 1739 005B9230 ?set_open_quote_mark@asn_AVA@JONAH@@QAEHD@Z
      13548 173A 005BA370 ?set_open_quote_mark@asn_RDN@JONAH@@QAEHD@Z
      13549 173B 005BB960 ?set_open_quote_mark@asn_x500name@JONAH@@QAEHD@Z
      13550 173C 005B9180 ?set_open_quote_mark_IA5@asn_AVA@JONAH@@QAEHE@Z
      13551 173D 005BA290 ?set_open_quote_mark_IA5@asn_RDN@JONAH@@QAEHE@Z
      13552 173E 005BB7E0 ?set_open_quote_mark_IA5@asn_x500name@JONAH@@QAEHE@Z
      13553 173F 00585810 ?set_optional@?$asn_explicit@V?$asn_sequenceof@VCertificateRequest@JONAH@@@JONAH@@$01$0A@@JONAH@@UAEH_N@Z
      13554 1740 00585810 ?set_optional@?$asn_explicit@V?$asn_sequenceof@VRevocationRequest@JONAH@@@JONAH@@$01$00@JONAH@@UAEH_N@Z
      13555 1741 00585810 ?set_optional@?$asn_explicit@V?$asn_setof@VAliasWithTag@JONAH@@@JONAH@@$01$00@JONAH@@UAEH_N@Z
      13556 1742 00585810 ?set_optional@?$asn_explicit@VAlgorithmIdentifier@JONAH@@$01$00@JONAH@@UAEH_N@Z
      13557 1743 00585810 ?set_optional@?$asn_explicit@VAlgorithmIdentifier@JONAH@@$01$0A@@JONAH@@UAEH_N@Z
      13558 1744 00585810 ?set_optional@?$asn_explicit@VCAKeyUpdAnnContent@JONAH@@$01$0P@@JONAH@@UAEH_N@Z
      13559 1745 00585810 ?set_optional@?$asn_explicit@VCALdapPostInfo@JONAH@@$01$0A@@JONAH@@UAEH_N@Z
      13560 1746 00585810 ?set_optional@?$asn_explicit@VCRLAnnContent@JONAH@@$01$00@JONAH@@UAEH_N@Z
      13561 1747 00585810 ?set_optional@?$asn_explicit@VCRLAnnContent@JONAH@@$01$0BC@@JONAH@@UAEH_N@Z
      13562 1748 00585810 ?set_optional@?$asn_explicit@VCertId@JONAH@@$01$00@JONAH@@UAEH_N@Z
      13563 1749 00585810 ?set_optional@?$asn_explicit@VCertIds@JONAH@@$01$0A@@JONAH@@UAEH_N@Z
      13564 174A 00585810 ?set_optional@?$asn_explicit@VCertRepMessage@JONAH@@$01$00@JONAH@@UAEH_N@Z
      13565 174B 00585810 ?set_optional@?$asn_explicit@VCertRepMessage@JONAH@@$01$02@JONAH@@UAEH_N@Z
      13566 174C 00585810 ?set_optional@?$asn_explicit@VCertRepMessage@JONAH@@$01$07@JONAH@@UAEH_N@Z
      13567 174D 00585810 ?set_optional@?$asn_explicit@VCertRepMessage@JONAH@@$01$0O@@JONAH@@UAEH_N@Z
      13568 174E 00585810 ?set_optional@?$asn_explicit@VCertReqMessages@JONAH@@$01$01@JONAH@@UAEH_N@Z
      13569 174F 00585810 ?set_optional@?$asn_explicit@VCertReqMessages@JONAH@@$01$06@JONAH@@UAEH_N@Z
      13570 1750 00585810 ?set_optional@?$asn_explicit@VCertReqMessages@JONAH@@$01$08@JONAH@@UAEH_N@Z
      13571 1751 00585810 ?set_optional@?$asn_explicit@VCertReqMessages@JONAH@@$01$0A@@JONAH@@UAEH_N@Z
      13572 1752 00585810 ?set_optional@?$asn_explicit@VCertReqMessages@JONAH@@$01$0N@@JONAH@@UAEH_N@Z
      13573 1753 00585810 ?set_optional@?$asn_explicit@VCertificates@JONAH@@$01$00@JONAH@@UAEH_N@Z
      13574 1754 00585810 ?set_optional@?$asn_explicit@VCertificationRequest@JONAH@@$01$03@JONAH@@UAEH_N@Z
      13575 1755 00585810 ?set_optional@?$asn_explicit@VCertifiedKeyPairs@JONAH@@$01$01@JONAH@@UAEH_N@Z
      13576 1756 00585810 ?set_optional@?$asn_explicit@VContent@JONAH@@$01$0A@@JONAH@@UAEH_N@Z
      13577 1757 00585810 ?set_optional@?$asn_explicit@VDistributionPointName@JONAH@@$01$0A@@JONAH@@UAEH_N@Z
      13578 1758 00585810 ?set_optional@?$asn_explicit@VEncryptedKey@JONAH@@$01$0A@@JONAH@@UAEH_N@Z
      13579 1759 00585810 ?set_optional@?$asn_explicit@VEncryptedValue@JONAH@@$01$00@JONAH@@UAEH_N@Z
      13580 175A 00585810 ?set_optional@?$asn_explicit@VEncryptedValue@JONAH@@$01$0A@@JONAH@@UAEH_N@Z
      13581 175B 00585810 ?set_optional@?$asn_explicit@VEnvelopedData@JONAH@@$01$0A@@JONAH@@UAEH_N@Z
      13582 175C 00585810 ?set_optional@?$asn_explicit@VErrorMsgContent@JONAH@@$01$0BH@@JONAH@@UAEH_N@Z
      13583 175D 00585810 ?set_optional@?$asn_explicit@VGeneralName@JONAH@@$01$0A@@JONAH@@UAEH_N@Z
      13584 175E 00585810 ?set_optional@?$asn_explicit@VInfoTypesAndValues@JONAH@@$01$07@JONAH@@UAEH_N@Z
      13585 175F 00585810 ?set_optional@?$asn_explicit@VInfoTypesAndValues@JONAH@@$01$0BF@@JONAH@@UAEH_N@Z
      13586 1760 00585810 ?set_optional@?$asn_explicit@VInfoTypesAndValues@JONAH@@$01$0BG@@JONAH@@UAEH_N@Z
      13587 1761 00585810 ?set_optional@?$asn_explicit@VJonahTime@JONAH@@$01$00@JONAH@@UAEH_N@Z
      13588 1762 00585810 ?set_optional@?$asn_explicit@VJonahTime@JONAH@@$01$0A@@JONAH@@UAEH_N@Z
      13589 1763 00585810 ?set_optional@?$asn_explicit@VKeyRecRepContent@JONAH@@$01$09@JONAH@@UAEH_N@Z
      13590 1764 00585810 ?set_optional@?$asn_explicit@VNotesLicenseExt@JONAH@@$01$00@JONAH@@UAEH_N@Z
      13591 1765 00585810 ?set_optional@?$asn_explicit@VPKIFreeText@JONAH@@$01$06@JONAH@@UAEH_N@Z
      13592 1766 00585810 ?set_optional@?$asn_explicit@VPKIPublicationInfo@JONAH@@$01$00@JONAH@@UAEH_N@Z
      13593 1767 00585810 ?set_optional@?$asn_explicit@VPOPODecKeyChallContent@JONAH@@$01$04@JONAH@@UAEH_N@Z
      13594 1768 00585810 ?set_optional@?$asn_explicit@VPOPODecKeyRespContent@JONAH@@$01$05@JONAH@@UAEH_N@Z
      13595 1769 00585810 ?set_optional@?$asn_explicit@VPOPOPrivKey@JONAH@@$01$01@JONAH@@UAEH_N@Z
      13596 176A 00585810 ?set_optional@?$asn_explicit@VPOPOPrivKey@JONAH@@$01$02@JONAH@@UAEH_N@Z
      13597 176B 00585810 ?set_optional@?$asn_explicit@VRACCertPkiConfirmWarp@JONAH@@$01$02@JONAH@@UAEH_N@Z
      13598 176C 00585810 ?set_optional@?$asn_explicit@VRACCertWarp@JONAH@@$01$00@JONAH@@UAEH_N@Z
      13599 176D 00585810 ?set_optional@?$asn_explicit@VRevAnnContent@JONAH@@$01$0BB@@JONAH@@UAEH_N@Z
      13600 176E 00585810 ?set_optional@?$asn_explicit@VRevRepContent@JONAH@@$01$0M@@JONAH@@UAEH_N@Z
      13601 176F 00585810 ?set_optional@?$asn_explicit@VRevReqContent@JONAH@@$01$0L@@JONAH@@UAEH_N@Z
      13602 1770 00585810 ?set_optional@?$asn_explicit@VSignedContent@JONAH@@$01$0A@@JONAH@@UAEH_N@Z
      13603 1771 00585810 ?set_optional@?$asn_explicit@VSubsequentMessage@JONAH@@$01$00@JONAH@@UAEH_N@Z
      13604 1772 00585810 ?set_optional@?$asn_explicit@Vasn_UTF8String@JONAH@@$01$02@JONAH@@UAEH_N@Z
      13605 1773 00585810 ?set_optional@?$asn_explicit@Vasn_UTF8String@JONAH@@$01$0A@@JONAH@@UAEH_N@Z
      13606 1774 00585810 ?set_optional@?$asn_explicit@Vasn_any@JONAH@@$01$01@JONAH@@UAEH_N@Z
      13607 1775 00585810 ?set_optional@?$asn_explicit@Vasn_any@JONAH@@$01$03@JONAH@@UAEH_N@Z
      13608 1776 00585810 ?set_optional@?$asn_explicit@Vasn_any@JONAH@@$01$0A@@JONAH@@UAEH_N@Z
      13609 1777 00585810 ?set_optional@?$asn_explicit@Vasn_any@JONAH@@$01$0BE@@JONAH@@UAEH_N@Z
      13610 1778 00585810 ?set_optional@?$asn_explicit@Vasn_bitstring@JONAH@@$01$01@JONAH@@UAEH_N@Z
      13611 1779 00585810 ?set_optional@?$asn_explicit@Vasn_bitstring@JONAH@@$01$0A@@JONAH@@UAEH_N@Z
      13612 177A 00585810 ?set_optional@?$asn_explicit@Vasn_boolean@JONAH@@$01$00@JONAH@@UAEH_N@Z
      13613 177B 00585810 ?set_optional@?$asn_explicit@Vasn_boolean@JONAH@@$01$01@JONAH@@UAEH_N@Z
      13614 177C 00585810 ?set_optional@?$asn_explicit@Vasn_boolean@JONAH@@$01$0A@@JONAH@@UAEH_N@Z
      13615 177D 00585810 ?set_optional@?$asn_explicit@Vasn_directoryString@JONAH@@$01$00@JONAH@@UAEH_N@Z
      13616 177E 00585810 ?set_optional@?$asn_explicit@Vasn_directoryString@JONAH@@$01$0A@@JONAH@@UAEH_N@Z
      13617 177F 00585810 ?set_optional@?$asn_explicit@Vasn_generalizedtime@JONAH@@$01$0A@@JONAH@@UAEH_N@Z
      13618 1780 00585810 ?set_optional@?$asn_explicit@Vasn_ia5String@JONAH@@$01$0A@@JONAH@@UAEH_N@Z
      13619 1781 00585810 ?set_optional@?$asn_explicit@Vasn_integer@JONAH@@$01$0A@@JONAH@@UAEH_N@Z
      13620 1782 00585810 ?set_optional@?$asn_explicit@Vasn_null@JONAH@@$01$0BD@@JONAH@@UAEH_N@Z
      13621 1783 00585810 ?set_optional@?$asn_explicit@Vasn_octetstring@JONAH@@$01$00@JONAH@@UAEH_N@Z
      13622 1784 00585810 ?set_optional@?$asn_explicit@Vasn_octetstring@JONAH@@$01$01@JONAH@@UAEH_N@Z
      13623 1785 00585810 ?set_optional@?$asn_explicit@Vasn_octetstring@JONAH@@$01$02@JONAH@@UAEH_N@Z
      13624 1786 00585810 ?set_optional@?$asn_explicit@Vasn_octetstring@JONAH@@$01$03@JONAH@@UAEH_N@Z
      13625 1787 00585810 ?set_optional@?$asn_explicit@Vasn_octetstring@JONAH@@$01$04@JONAH@@UAEH_N@Z
      13626 1788 00585810 ?set_optional@?$asn_explicit@Vasn_octetstring@JONAH@@$01$05@JONAH@@UAEH_N@Z
      13627 1789 00585810 ?set_optional@?$asn_explicit@Vasn_octetstring@JONAH@@$01$0A@@JONAH@@UAEH_N@Z
      13628 178A 00585810 ?set_optional@?$asn_explicit@Vasn_x500name@JONAH@@$01$02@JONAH@@UAEH_N@Z
      13629 178B 00585810 ?set_optional@?$asn_explicit@Vasn_x500name@JONAH@@$01$03@JONAH@@UAEH_N@Z
      13630 178C 00585810 ?set_optional@?$asn_explicit@Vasn_x500name@JONAH@@$01$04@JONAH@@UAEH_N@Z
      13631 178D 00585810 ?set_optional@?$asn_explicit@Vx509_Extensions@JONAH@@$01$02@JONAH@@UAEH_N@Z
      13632 178E 00585810 ?set_optional@?$asn_explicit@Vx509_Extensions@JONAH@@$01$0A@@JONAH@@UAEH_N@Z
      13633 178F 00585810 ?set_optional@?$asn_explicit@Vx509_certificate@JONAH@@$01$0A@@JONAH@@UAEH_N@Z
      13634 1790 00585810 ?set_optional@?$asn_explicit@Vx509_certificate@JONAH@@$01$0BA@@JONAH@@UAEH_N@Z
      13635 1791 00585810 ?set_optional@?$asn_implicit@V?$asn_sequenceof@VGeneralName@JONAH@@@JONAH@@$01$00@JONAH@@UAEH_N@Z
      13636 1792 00585810 ?set_optional@?$asn_implicit@V?$asn_sequenceof@VGeneralName@JONAH@@@JONAH@@$01$01@JONAH@@UAEH_N@Z
      13637 1793 00585810 ?set_optional@?$asn_implicit@V?$asn_sequenceof@VGeneralName@JONAH@@@JONAH@@$01$0A@@JONAH@@UAEH_N@Z
      13638 1794 00585810 ?set_optional@?$asn_implicit@V?$asn_sequenceof@VGeneralSubtree@JONAH@@@JONAH@@$01$00@JONAH@@UAEH_N@Z
      13639 1795 00585810 ?set_optional@?$asn_implicit@V?$asn_sequenceof@VGeneralSubtree@JONAH@@@JONAH@@$01$0A@@JONAH@@UAEH_N@Z
      13640 1796 00585810 ?set_optional@?$asn_implicit@VAlgorithmIdentifier@JONAH@@$01$00@JONAH@@UAEH_N@Z
      13641 1797 00585810 ?set_optional@?$asn_implicit@VAlgorithmIdentifier@JONAH@@$01$01@JONAH@@UAEH_N@Z
      13642 1798 00585810 ?set_optional@?$asn_implicit@VAlgorithmIdentifier@JONAH@@$01$02@JONAH@@UAEH_N@Z
      13643 1799 00585810 ?set_optional@?$asn_implicit@VAlgorithmIdentifier@JONAH@@$01$0A@@JONAH@@UAEH_N@Z
      13644 179A 00585810 ?set_optional@?$asn_implicit@VAttributes@JONAH@@$01$00@JONAH@@UAEH_N@Z
      13645 179B 00585810 ?set_optional@?$asn_implicit@VAttributes@JONAH@@$01$0A@@JONAH@@UAEH_N@Z
      13646 179C 00585810 ?set_optional@?$asn_implicit@VCertRevocationLists@JONAH@@$01$00@JONAH@@UAEH_N@Z
      13647 179D 00585810 ?set_optional@?$asn_implicit@VEDIPartyName@JONAH@@$01$04@JONAH@@UAEH_N@Z
      13648 179E 00585810 ?set_optional@?$asn_implicit@VExtendedCertsAndCertificates@JONAH@@$01$0A@@JONAH@@UAEH_N@Z
      13649 179F 00585810 ?set_optional@?$asn_implicit@VOptionalValidity@JONAH@@$01$03@JONAH@@UAEH_N@Z
      13650 17A0 00585810 ?set_optional@?$asn_implicit@VPOPOSigningKey@JONAH@@$01$00@JONAH@@UAEH_N@Z
      13651 17A1 00585810 ?set_optional@?$asn_implicit@VPOPOSigningKeyInput@JONAH@@$01$0A@@JONAH@@UAEH_N@Z
      13652 17A2 00585810 ?set_optional@?$asn_implicit@VReasonFlags@JONAH@@$01$00@JONAH@@UAEH_N@Z
      13653 17A3 00585810 ?set_optional@?$asn_implicit@VReasonFlags@JONAH@@$01$02@JONAH@@UAEH_N@Z
      13654 17A4 00585810 ?set_optional@?$asn_implicit@VSubjectPublicKeyInfo@JONAH@@$01$05@JONAH@@UAEH_N@Z
      13655 17A5 00585810 ?set_optional@?$asn_implicit@Vasn_RDN@JONAH@@$01$00@JONAH@@UAEH_N@Z
      13656 17A6 00585810 ?set_optional@?$asn_implicit@Vasn_bitstring@JONAH@@$01$00@JONAH@@UAEH_N@Z
      13657 17A7 00585810 ?set_optional@?$asn_implicit@Vasn_bitstring@JONAH@@$01$01@JONAH@@UAEH_N@Z
      13658 17A8 00585810 ?set_optional@?$asn_implicit@Vasn_bitstring@JONAH@@$01$06@JONAH@@UAEH_N@Z
      13659 17A9 00585810 ?set_optional@?$asn_implicit@Vasn_bitstring@JONAH@@$01$07@JONAH@@UAEH_N@Z
      13660 17AA 00585810 ?set_optional@?$asn_implicit@Vasn_boolean@JONAH@@$01$00@JONAH@@UAEH_N@Z
      13661 17AB 00585810 ?set_optional@?$asn_implicit@Vasn_boolean@JONAH@@$01$01@JONAH@@UAEH_N@Z
      13662 17AC 00585810 ?set_optional@?$asn_implicit@Vasn_boolean@JONAH@@$01$03@JONAH@@UAEH_N@Z
      13663 17AD 00585810 ?set_optional@?$asn_implicit@Vasn_generalizedtime@JONAH@@$01$00@JONAH@@UAEH_N@Z
      13664 17AE 00585810 ?set_optional@?$asn_implicit@Vasn_generalizedtime@JONAH@@$01$0A@@JONAH@@UAEH_N@Z
      13665 17AF 00585810 ?set_optional@?$asn_implicit@Vasn_ia5String@JONAH@@$01$00@JONAH@@UAEH_N@Z
      13666 17B0 00585810 ?set_optional@?$asn_implicit@Vasn_ia5String@JONAH@@$01$01@JONAH@@UAEH_N@Z
      13667 17B1 00585810 ?set_optional@?$asn_implicit@Vasn_ia5String@JONAH@@$01$05@JONAH@@UAEH_N@Z
      13668 17B2 00585810 ?set_optional@?$asn_implicit@Vasn_integer@JONAH@@$01$00@JONAH@@UAEH_N@Z
      13669 17B3 00585810 ?set_optional@?$asn_implicit@Vasn_integer@JONAH@@$01$01@JONAH@@UAEH_N@Z
      13670 17B4 00585810 ?set_optional@?$asn_implicit@Vasn_integer@JONAH@@$01$0A@@JONAH@@UAEH_N@Z
      13671 17B5 00585810 ?set_optional@?$asn_implicit@Vasn_null@JONAH@@$01$0A@@JONAH@@UAEH_N@Z
      13672 17B6 00585810 ?set_optional@?$asn_implicit@Vasn_octetstring@JONAH@@$01$03@JONAH@@UAEH_N@Z
      13673 17B7 00585810 ?set_optional@?$asn_implicit@Vasn_octetstring@JONAH@@$01$06@JONAH@@UAEH_N@Z
      13674 17B8 00585810 ?set_optional@?$asn_implicit@Vasn_octetstring@JONAH@@$01$0A@@JONAH@@UAEH_N@Z
      13675 17B9 00585810 ?set_optional@?$asn_implicit@Vasn_oid@JONAH@@$01$07@JONAH@@UAEH_N@Z
      13676 17BA 00585810 ?set_optional@?$asn_implicit@Vx509_Extensions@JONAH@@$01$08@JONAH@@UAEH_N@Z
      13677 17BB 00496A40 ?set_optional@?$asn_sequenceof@VAttributeTypeAndValue@JONAH@@@JONAH@@UAEH_N@Z
      13678 17BC 00496A40 ?set_optional@?$asn_sequenceof@VCertId@JONAH@@@JONAH@@UAEH_N@Z
      13679 17BD 00496A40 ?set_optional@?$asn_sequenceof@VCertReqMsg@JONAH@@@JONAH@@UAEH_N@Z
      13680 17BE 00496A40 ?set_optional@?$asn_sequenceof@VCertResponse@JONAH@@@JONAH@@UAEH_N@Z
      13681 17BF 00496A40 ?set_optional@?$asn_sequenceof@VCertificateList@JONAH@@@JONAH@@UAEH_N@Z
      13682 17C0 00496A40 ?set_optional@?$asn_sequenceof@VCertificateRequest@JONAH@@@JONAH@@UAEH_N@Z
      13683 17C1 00496A40 ?set_optional@?$asn_sequenceof@VCertifiedKeyPair@JONAH@@@JONAH@@UAEH_N@Z
      13684 17C2 00496A40 ?set_optional@?$asn_sequenceof@VChallenge@JONAH@@@JONAH@@UAEH_N@Z
      13685 17C3 00496A40 ?set_optional@?$asn_sequenceof@VContentInfo@JONAH@@@JONAH@@UAEH_N@Z
      13686 17C4 00496A40 ?set_optional@?$asn_sequenceof@VGeneralName@JONAH@@@JONAH@@UAEH_N@Z
      13687 17C5 00496A40 ?set_optional@?$asn_sequenceof@VGeneralSubtree@JONAH@@@JONAH@@UAEH_N@Z
      13688 17C6 00496A40 ?set_optional@?$asn_sequenceof@VInfoTypeAndValue@JONAH@@@JONAH@@UAEH_N@Z
      13689 17C7 00496A40 ?set_optional@?$asn_sequenceof@VPKIStatusInfo@JONAH@@@JONAH@@UAEH_N@Z
      13690 17C8 00496A40 ?set_optional@?$asn_sequenceof@VPolicyInformation@JONAH@@@JONAH@@UAEH_N@Z
      13691 17C9 00496A40 ?set_optional@?$asn_sequenceof@VPolicyMapping@JONAH@@@JONAH@@UAEH_N@Z
      13692 17CA 00496A40 ?set_optional@?$asn_sequenceof@VPolicyQualifierInfo@JONAH@@@JONAH@@UAEH_N@Z
      13693 17CB 00496A40 ?set_optional@?$asn_sequenceof@VPrivateKeyInfo@JONAH@@@JONAH@@UAEH_N@Z
      13694 17CC 00496A40 ?set_optional@?$asn_sequenceof@VRecipientInfo@JONAH@@@JONAH@@UAEH_N@Z
      13695 17CD 00496A40 ?set_optional@?$asn_sequenceof@VRevDetails@JONAH@@@JONAH@@UAEH_N@Z
      13696 17CE 00496A40 ?set_optional@?$asn_sequenceof@VRevocationRequest@JONAH@@@JONAH@@UAEH_N@Z
      13697 17CF 00496A40 ?set_optional@?$asn_sequenceof@VRevokedCertificate@JONAH@@@JONAH@@UAEH_N@Z
      13698 17D0 00496A40 ?set_optional@?$asn_sequenceof@VSafeBag@JONAH@@@JONAH@@UAEH_N@Z
      13699 17D1 00496A40 ?set_optional@?$asn_sequenceof@VSinglePubInfo@JONAH@@@JONAH@@UAEH_N@Z
      13700 17D2 00496A40 ?set_optional@?$asn_sequenceof@Vasn_RDN@JONAH@@@JONAH@@UAEH_N@Z
      13701 17D3 00496A40 ?set_optional@?$asn_sequenceof@Vasn_UTF8String@JONAH@@@JONAH@@UAEH_N@Z
      13702 17D4 00496A40 ?set_optional@?$asn_sequenceof@Vasn_integer@JONAH@@@JONAH@@UAEH_N@Z
      13703 17D5 00496A40 ?set_optional@?$asn_sequenceof@Vx509_Extension@JONAH@@@JONAH@@UAEH_N@Z
      13704 17D6 00496A40 ?set_optional@?$asn_sequenceof@Vx509_certificate@JONAH@@@JONAH@@UAEH_N@Z
      13705 17D7 00496A40 ?set_optional@?$asn_setof@VAlgorithmIdentifier@JONAH@@@JONAH@@UAEH_N@Z
      13706 17D8 00496A40 ?set_optional@?$asn_setof@VAliasWithTag@JONAH@@@JONAH@@UAEH_N@Z
      13707 17D9 00496A40 ?set_optional@?$asn_setof@VAttribute@JONAH@@@JONAH@@UAEH_N@Z
      13708 17DA 00496A40 ?set_optional@?$asn_setof@VCertificateList@JONAH@@@JONAH@@UAEH_N@Z
      13709 17DB 00496A40 ?set_optional@?$asn_setof@VHostIdMappingValue@JONAH@@@JONAH@@UAEH_N@Z
      13710 17DC 00496A40 ?set_optional@?$asn_setof@VSignerInfo@JONAH@@@JONAH@@UAEH_N@Z
      13711 17DD 00496A40 ?set_optional@?$asn_setof@Vasn_AVA@JONAH@@@JONAH@@UAEH_N@Z
      13712 17DE 00496A40 ?set_optional@?$asn_setof@Vasn_octetstring@JONAH@@@JONAH@@UAEH_N@Z
      13713 17DF 00496A40 ?set_optional@?$asn_setof@Vx509_certificate@JONAH@@@JONAH@@UAEH_N@Z
      13714 17E0 005BE170 ?set_optional@asn_object@JONAH@@UAEH_N@Z
      13715 17E1 005BEC20 ?set_parent@asn_object@JONAH@@IAEXPAV12@@Z
      13716 17E2 005BE260 ?set_postread@asn_object@JONAH@@QAEHP6AXPAV12@AAVr_buffer_t@2@H@Z@Z
      13717 17E3 005C0C10 ?set_preencode@asn_any@JONAH@@QAEHP6AHPAV12@@Z@Z
      13718 17E4 005C7330 ?set_preferred_codeset@asn_directoryString@JONAH@@UAEXI@Z
      13719 17E5 005C0BF0 ?set_preparse@asn_any@JONAH@@QAEHP6AHPAV12@@Z@Z
      13720 17E6 005BE240 ?set_preread@asn_object@JONAH@@QAEHP6AXPAV12@AAVr_buffer_t@2@@Z@Z
      13721 17E7 005B9200 ?set_quote_mark@asn_AVA@JONAH@@QAEHD@Z
      13722 17E8 005BA330 ?set_quote_mark@asn_RDN@JONAH@@QAEHD@Z
      13723 17E9 005BB920 ?set_quote_mark@asn_x500name@JONAH@@QAEHD@Z
      13724 17EA 005B9160 ?set_quote_mark_IA5@asn_AVA@JONAH@@QAEHE@Z
      13725 17EB 005BA270 ?set_quote_mark_IA5@asn_RDN@JONAH@@QAEHE@Z
      13726 17EC 005BB7C0 ?set_quote_mark_IA5@asn_x500name@JONAH@@QAEHE@Z
      13727 17ED 005B9120 ?set_rdn_bigendian@asn_x500name@JONAH@@QAEH_N@Z
      13728 17EE 005BB860 ?set_rdn_separator@asn_x500name@JONAH@@QAEHD@Z
      13729 17EF 005BB760 ?set_rdn_separator_IA5@asn_x500name@JONAH@@QAEHE@Z
      13730 17F0 005C0E20 ?set_secure@asn_any@JONAH@@UAEXW4security_t@2@@Z
      13731 17F1 005BF6A0 ?set_secure@asn_bitstring@JONAH@@UAEXW4security_t@2@@Z
      13732 17F2 005BF080 ?set_secure@asn_integer@JONAH@@UAEXW4security_t@2@@Z
      13733 17F3 005BE660 ?set_secure@asn_object@JONAH@@UAEXW4security_t@2@@Z
      13734 17F4 005BF6A0 ?set_secure@asn_octetstring@JONAH@@UAEXW4security_t@2@@Z
      13735 17F5 005C0B80 ?set_syntax@asn_any@JONAH@@QAEHPAVasn_object@2@@Z
      13736 17F6 005BBA50 ?set_syntax_1779@asn_x500name@JONAH@@QAEXXZ
      13737 17F7 005BBAC0 ?set_syntax_Notes@asn_x500name@JONAH@@QAEXXZ
      13738 17F8 005BB9E0 ?set_syntax_OSF@asn_x500name@JONAH@@QAEXXZ
      13739 17F9 005C73D0 ?set_tag@asn_charstring@JONAH@@UAEXI@Z
      13740 17FA 0048DE50 ?set_tag@asn_choice@JONAH@@UAEXI@Z
      13741 17FB 005BEC50 ?set_tag@asn_object@JONAH@@UAEXI@Z
      13742 17FC 0048DE90 ?set_tag_unchecked@asn_choice@JONAH@@UAEXI@Z
      13743 17FD 00580150 ?set_value@Action@JONAH@@UAEHW4pubaction_t@2@@Z
      13744 17FE 005811D0 ?set_value@CaLdapPostType@JONAH@@UAEHW4capub_t@2@@Z
      13745 17FF 005C6E80 ?set_value@JonahTime@JONAH@@QAEHABUtagTIMEDATE@@@Z
      13746 1800 005C6FE0 ?set_value@JonahTime@JONAH@@QAEHABUutcDateTime@@@Z
      13747 1801 005C72C0 ?set_value@JonahTime@JONAH@@QAEHABV12@@Z
      13748 1802 005C68B0 ?set_value@JonahTime@JONAH@@QAEHABVTime@2@@Z
      13749 1803 00580B00 ?set_value@PKIStatus@JONAH@@UAEHW4pkistatus_t@2@@Z
      13750 1804 00580410 ?set_value@PubMethod@JONAH@@UAEHW4pubmethod_t@2@@Z
      13751 1805 00490460 ?set_value@ReasonFlags@JONAH@@UAEHJ@Z
      13752 1806 00580150 ?set_value@SubsequentMessage@JONAH@@UAEHW4submsg_t@2@@Z
      13753 1807 0048EE80 ?set_value@Version@JONAH@@UAEHW4x509_version_t@2@@Z
      13754 1808 0048F920 ?set_value@XKeyUsage@JONAH@@UAEHJ@Z
      13755 1809 005C4340 ?set_value@asn_UTCtime@JONAH@@QAEHIIIIIIHH@Z
      13756 180A 005C0C90 ?set_value@asn_any@JONAH@@QAEHPAEI@Z
      13757 180B 005BF580 ?set_value@asn_bitstring@JONAH@@QAEHPAEI@Z
      13758 180C 005BFEB0 ?set_value@asn_boolean@JONAH@@QAEH_N@Z
      13759 180D 005C44E0 ?set_value@asn_generalizedtime@JONAH@@QAEHIIIIIIIHH@Z
      13760 180E 005C4A70 ?set_value@asn_integer@JONAH@@QAEHABV12@@Z
      13761 180F 005BEDA0 ?set_value@asn_integer@JONAH@@QAEHJ@Z
      13762 1810 005C3060 ?set_value@asn_integer@JONAH@@QAEHPAEI@Z
      13763 1811 005BFFC0 ?set_value@asn_octetstring@JONAH@@QAEHPAEI@Z
      13764 1812 005C5680 ?set_value@asn_oid@JONAH@@QAEHABV12@@Z
      13765 1813 005C3D40 ?set_value@asn_oid@JONAH@@QAEHPAEI@Z
      13766 1814 005C0610 ?set_value@asn_oid@JONAH@@QAEHPAKI@Z
      13767 1815 005B9C00 ?set_value_BMP@asn_AVA@JONAH@@QAEHAAVr_buffer_t@2@@Z
      13768 1816 005BAEF0 ?set_value_BMP@asn_RDN@JONAH@@QAEHAAVr_buffer_t@2@@Z
      13769 1817 005CB7A0 ?set_value_BMP@asn_charstring@JONAH@@UAEHAAVr_buffer_t@2@@Z
      13770 1818 005CB710 ?set_value_BMP@asn_charstring@JONAH@@UAEHPBG@Z
      13771 1819 005BC050 ?set_value_BMP@asn_x500name@JONAH@@QAEHAAVr_buffer_t@2@@Z
      13772 181A 005CA730 ?set_value_C@asn_charstring@JONAH@@UAEHPBD@Z
      13773 181B 005BCA10 ?set_value_C@asn_x500name@JONAH@@QAEHPADD@Z
      13774 181C 005B9760 ?set_value_IA5@asn_AVA@JONAH@@QAEHAAVr_buffer_t@2@@Z
      13775 181D 005BAAB0 ?set_value_IA5@asn_RDN@JONAH@@QAEHAAVr_buffer_t@2@@Z
      13776 181E 005CAEC0 ?set_value_IA5@asn_charstring@JONAH@@UAEHAAVr_buffer_t@2@_N@Z
      13777 181F 005CAE40 ?set_value_IA5@asn_charstring@JONAH@@UAEHPBD_N@Z
      13778 1820 005BBB30 ?set_value_IA5@asn_x500name@JONAH@@QAEHAAVr_buffer_t@2@@Z
      13779 1821 005CB690 ?set_value_T61@asn_charstring@JONAH@@UAEHAAVr_buffer_t@2@@Z
      13780 1822 005CB610 ?set_value_T61@asn_charstring@JONAH@@UAEHPBD@Z
      13781 1823 005B99B0 ?set_value_UTF8@asn_AVA@JONAH@@QAEHAAVr_buffer_t@2@@Z
      13782 1824 005BACD0 ?set_value_UTF8@asn_RDN@JONAH@@QAEHAAVr_buffer_t@2@@Z
      13783 1825 005CB970 ?set_value_UTF8@asn_charstring@JONAH@@UAEHAAVr_buffer_t@2@@Z
      13784 1826 005CB8F0 ?set_value_UTF8@asn_charstring@JONAH@@UAEHPBD@Z
      13785 1827 005BBDC0 ?set_value_UTF8@asn_x500name@JONAH@@QAEHAAVr_buffer_t@2@@Z
      13786 1828 005B9E60 ?set_value_Univ@asn_AVA@JONAH@@QAEHAAVr_buffer_t@2@@Z
      13787 1829 005BB200 ?set_value_Univ@asn_RDN@JONAH@@QAEHAAVr_buffer_t@2@@Z
      13788 182A 005CB880 ?set_value_Univ@asn_charstring@JONAH@@UAEHAAVr_buffer_t@2@@Z
      13789 182B 005CB810 ?set_value_Univ@asn_charstring@JONAH@@UAEHPBI@Z
      13790 182C 005BC3E0 ?set_value_Univ@asn_x500name@JONAH@@QAEHAAVr_buffer_t@2@@Z
      13791 182D 005C6280 ?set_value_bigendian@bigUInt@@QAEIPBEI@Z
      13792 182E 005C3850 ?set_value_numeric@asn_oid@JONAH@@QAEHPBD@Z
      13793 182F 005CB4A0 ?set_value_printable@asn_charstring@JONAH@@UAEHAAVr_buffer_t@2@@Z
      13794 1830 005CB420 ?set_value_printable@asn_charstring@JONAH@@UAEHPBD@Z
      13795 1831 005C7390 ?set_value_uninterpreted@asn_charstring@JONAH@@IAEHAAVr_buffer_t@2@@Z
      13796 1832 005C7340 ?set_value_uninterpreted@asn_charstring@JONAH@@IAEHPBEI@Z
      13797 1833 005BE6E0 ?set_value_valid@asn_object@JONAH@@MAEXXZ
      13798 1834 005CB590 ?set_value_visible@asn_charstring@JONAH@@UAEHAAVr_buffer_t@2@@Z
